(lp0
(dp1
Verr-counts
p2
(dp3
V01000
p4
L106L
sV01100
p5
L426L
sV10000
p6
L180L
sV00100
p7
L307L
sV10100
p8
L519L
sV00000
p9
L91L
sV11000
p10
L166L
sV11100
p11
L253L
ssVmain-qasm
p12
V\u000ainclude "qelib1.inc";\u000aqreg main_qr[5];\u000acreg main_cr[5];\u000au3(0.132645023151569,0.0,0.0) main_qr[4];\u000au3(0.502654824574367,0.0,0.0) main_qr[3];\u000au3(0.474729556542458,0.0,0.0) main_qr[2];\u000acx main_qr[3],main_qr[2];\u000au3(0.719075651821664,0.0,0.0) main_qr[3];\u000acx main_qr[3],main_qr[4];\u000au3(0.893608577021097,0.0,0.0) main_qr[4];\u000ameasure main_qr[3] -> main_cr[3];\u000au3(0.307177948351002,0.0,0.0) main_qr[2];\u000acx main_qr[4],main_qr[2];\u000ameasure main_qr[4] -> main_cr[4];\u000ameasure main_qr[2] -> main_cr[2];\u000a
p13
sVexp-ON
p14
(lp15
F0.19977651019724374
aF0.4085466033715378
aF0.46316792545772245
aF0.5368320745422775
aF0.5914533966284622
aF0.8002234898027563
asVmain-counts
p16
(dp17
g4
L92L
sg5
L192L
sg6
L232L
sg7
L189L
sg8
L195L
sg9
L389L
sg10
L694L
sg11
L65L
ssVparameters
p18
(lp19
F0.132645023151569
aF0.502654824574367
aF0.474729556542458
aF0.719075651821664
aF0.893608577021097
aF0.307177948351002
asVideal
p20
(lp21
F0.07158992836766254
aF0.24152474879873947
aF0.28419237646618273
aF0.7158076235338171
aF0.7584752512012604
aF0.9284100716323375
asVerr-qasm
p22
V\u000ainclude "qelib1.inc";\u000aqreg err_qr[5];\u000acreg err_cr[5];\u000au3(0.132645023151569,0.0,0.0) err_qr[4];\u000au3(0.502654824574367,0.0,0.0) err_qr[3];\u000au3(0.474729556542458,0.0,0.0) err_qr[2];\u000acx err_qr[3],err_qr[2];\u000au3(0.719075651821664,0.0,0.0) err_qr[3];\u000acx err_qr[3],err_qr[4];\u000au3(0.893608577021097,0.0,0.0) err_qr[4];\u000au3(-1.570796326794897,0.0,0.0) err_qr[3];\u000ameasure err_qr[3] -> err_cr[3];\u000au3(0.307177948351002,0.0,0.0) err_qr[2];\u000acx err_qr[4],err_qr[2];\u000au3(1.570796326794897,0.0,0.0) err_qr[4];\u000ameasure err_qr[4] -> err_cr[4];\u000au3(1.570796326794897,0.0,0.0) err_qr[2];\u000ameasure err_qr[2] -> err_cr[2];\u000a
p23
sa(dp24
g2
(dp25
g4
L374L
sg5
L116L
sg6
L172L
sg7
L130L
sg8
L456L
sg9
L262L
sg10
L223L
sg11
L315L
ssg12
V\u000ainclude "qelib1.inc";\u000aqreg main_qr[5];\u000acreg main_cr[5];\u000au3(0.635299847725936,0.0,0.0) main_qr[4];\u000au3(1.43116998663535,0.0,0.0) main_qr[3];\u000au3(0.174532925199433,0.0,0.0) main_qr[2];\u000acx main_qr[3],main_qr[2];\u000au3(1.085594794740473,0.0,0.0) main_qr[3];\u000acx main_qr[3],main_qr[4];\u000au3(1.350884841043611,0.0,0.0) main_qr[4];\u000ameasure main_qr[3] -> main_cr[3];\u000au3(1.288052987971815,0.0,0.0) main_qr[2];\u000acx main_qr[4],main_qr[2];\u000ameasure main_qr[4] -> main_cr[4];\u000ameasure main_qr[2] -> main_cr[2];\u000a
p26
sg14
(lp27
F0.28859902895281586
aF0.3920357265931207
aF0.4072060055669979
aF0.5927939944330021
aF0.6079642734068793
aF0.7114009710471841
asg16
(dp28
g4
L80L
sg5
L272L
sg6
L234L
sg7
L100L
sg8
L337L
sg9
L163L
sg10
L768L
sg11
L94L
ssg18
(lp29
F0.635299847725936
aF1.43116998663535
aF0.174532925199433
aF1.085594794740473
aF1.350884841043611
aF1.288052987971815
asg20
(lp30
F0.10630507622586205
aF0.2084391203655117
aF0.2330206644291848
aF0.7669793355708152
aF0.7915608796344884
aF0.8936949237741378
asg22
V\u000ainclude "qelib1.inc";\u000aqreg err_qr[5];\u000acreg err_cr[5];\u000au3(0.635299847725936,0.0,0.0) err_qr[4];\u000au3(1.43116998663535,0.0,0.0) err_qr[3];\u000au3(0.174532925199433,0.0,0.0) err_qr[2];\u000acx err_qr[3],err_qr[2];\u000au3(1.085594794740473,0.0,0.0) err_qr[3];\u000acx err_qr[3],err_qr[4];\u000au3(1.350884841043611,0.0,0.0) err_qr[4];\u000au3(-1.570796326794897,0.0,0.0) err_qr[3];\u000ameasure err_qr[3] -> err_cr[3];\u000au3(1.288052987971815,0.0,0.0) err_qr[2];\u000acx err_qr[4],err_qr[2];\u000au3(1.570796326794897,0.0,0.0) err_qr[4];\u000ameasure err_qr[4] -> err_cr[4];\u000au3(1.570796326794897,0.0,0.0) err_qr[2];\u000ameasure err_qr[2] -> err_cr[2];\u000a
p31
sa(dp32
g2
(dp33
g4
L374L
sg5
L157L
sg6
L152L
sg7
L136L
sg8
L415L
sg9
L374L
sg10
L109L
sg11
L331L
ssg12
V\u000ainclude "qelib1.inc";\u000aqreg main_qr[5];\u000acreg main_cr[5];\u000au3(0.28623399732707,0.0,0.0) main_qr[4];\u000au3(1.242674427419963,0.0,0.0) main_qr[3];\u000au3(0.167551608191456,0.0,0.0) main_qr[2];\u000acx main_qr[3],main_qr[2];\u000au3(0.890117918517108,0.0,0.0) main_qr[3];\u000acx main_qr[3],main_qr[4];\u000au3(0.013962634015955,0.0,0.0) main_qr[4];\u000ameasure main_qr[3] -> main_cr[3];\u000au3(1.424188669627373,0.0,0.0) main_qr[2];\u000acx main_qr[4],main_qr[2];\u000ameasure main_qr[4] -> main_cr[4];\u000ameasure main_qr[2] -> main_cr[2];\u000a
p34
sg14
(lp35
F0.2762472815652109
aF0.385928052483509
aF0.43817117583752335
aF0.5618288241624766
aF0.614071947516491
aF0.7237527184347892
asg16
(dp36
g4
L80L
sg5
L87L
sg6
L223L
sg7
L331L
sg8
L62L
sg9
L293L
sg10
L886L
sg11
L86L
ssg18
(lp37
F0.28623399732707
aF1.242674427419963
aF0.167551608191456
aF0.890117918517108
aF0.013962634015955
aF1.424188669627373
asg20
(lp38
F0.06810855770027324
aF0.15564506127663363
aF0.3588011983992056
aF0.6411988016007945
aF0.8443549387233663
aF0.9318914422997268
asg22
V\u000ainclude "qelib1.inc";\u000aqreg err_qr[5];\u000acreg err_cr[5];\u000au3(0.28623399732707,0.0,0.0) err_qr[4];\u000au3(1.242674427419963,0.0,0.0) err_qr[3];\u000au3(0.167551608191456,0.0,0.0) err_qr[2];\u000acx err_qr[3],err_qr[2];\u000au3(0.890117918517108,0.0,0.0) err_qr[3];\u000acx err_qr[3],err_qr[4];\u000au3(0.013962634015955,0.0,0.0) err_qr[4];\u000au3(-1.570796326794897,0.0,0.0) err_qr[3];\u000ameasure err_qr[3] -> err_cr[3];\u000au3(1.424188669627373,0.0,0.0) err_qr[2];\u000acx err_qr[4],err_qr[2];\u000au3(1.570796326794897,0.0,0.0) err_qr[4];\u000ameasure err_qr[4] -> err_cr[4];\u000au3(1.570796326794897,0.0,0.0) err_qr[2];\u000ameasure err_qr[2] -> err_cr[2];\u000a
p39
sa(dp40
g2
(dp41
g4
L319L
sg5
L292L
sg6
L143L
sg7
L267L
sg8
L576L
sg9
L150L
sg10
L160L
sg11
L141L
ssg12
V\u000ainclude "qelib1.inc";\u000aqreg main_qr[5];\u000acreg main_cr[5];\u000au3(1.452113937659282,0.0,0.0) main_qr[4];\u000au3(1.033234917180643,0.0,0.0) main_qr[3];\u000au3(0.223402144255274,0.0,0.0) main_qr[2];\u000acx main_qr[3],main_qr[2];\u000au3(1.455604596163271,0.0,0.0) main_qr[3];\u000acx main_qr[3],main_qr[4];\u000au3(0.188495559215388,0.0,0.0) main_qr[4];\u000ameasure main_qr[3] -> main_cr[3];\u000au3(1.396263401595464,0.0,0.0) main_qr[2];\u000acx main_qr[4],main_qr[2];\u000ameasure main_qr[4] -> main_cr[4];\u000ameasure main_qr[2] -> main_cr[2];\u000a
p42
sg14
(lp43
F0.29905580238125656
aF0.3235520185664411
aF0.38914294943581607
aF0.6108570505641839
aF0.6764479814335589
aF0.7009441976187435
asg16
(dp44
g4
L127L
sg5
L421L
sg6
L189L
sg7
L118L
sg8
L190L
sg9
L131L
sg10
L836L
sg11
L36L
ssg18
(lp45
F1.452113937659282
aF1.033234917180643
aF0.223402144255274
aF1.455604596163271
aF0.188495559215388
aF1.396263401595464
asg20
(lp46
F0.10131755188367708
aF0.2878882032976153
aF0.42984961783030134
aF0.5701503821696985
aF0.7121117967023844
aF0.8986824481163229
asg22
V\u000ainclude "qelib1.inc";\u000aqreg err_qr[5];\u000acreg err_cr[5];\u000au3(1.452113937659282,0.0,0.0) err_qr[4];\u000au3(1.033234917180643,0.0,0.0) err_qr[3];\u000au3(0.223402144255274,0.0,0.0) err_qr[2];\u000acx err_qr[3],err_qr[2];\u000au3(1.455604596163271,0.0,0.0) err_qr[3];\u000acx err_qr[3],err_qr[4];\u000au3(0.188495559215388,0.0,0.0) err_qr[4];\u000au3(-1.570796326794897,0.0,0.0) err_qr[3];\u000ameasure err_qr[3] -> err_cr[3];\u000au3(1.396263401595464,0.0,0.0) err_qr[2];\u000acx err_qr[4],err_qr[2];\u000au3(1.570796326794897,0.0,0.0) err_qr[4];\u000ameasure err_qr[4] -> err_cr[4];\u000au3(1.570796326794897,0.0,0.0) err_qr[2];\u000ameasure err_qr[2] -> err_cr[2];\u000a
p47
sa(dp48
g2
(dp49
g4
L162L
sg5
L230L
sg6
L200L
sg7
L330L
sg8
L581L
sg9
L153L
sg10
L157L
sg11
L235L
ssg12
V\u000ainclude "qelib1.inc";\u000aqreg main_qr[5];\u000acreg main_cr[5];\u000au3(0.628318530717959,0.0,0.0) main_qr[4];\u000au3(1.329940890019679,0.0,0.0) main_qr[3];\u000au3(0.841248699461267,0.0,0.0) main_qr[2];\u000acx main_qr[3],main_qr[2];\u000au3(0.446804288510548,0.0,0.0) main_qr[3];\u000acx main_qr[3],main_qr[4];\u000au3(1.183333232852155,0.0,0.0) main_qr[4];\u000ameasure main_qr[3] -> main_cr[3];\u000au3(1.057669526708564,0.0,0.0) main_qr[2];\u000acx main_qr[4],main_qr[2];\u000ameasure main_qr[4] -> main_cr[4];\u000ameasure main_qr[2] -> main_cr[2];\u000a
p50
sg14
(lp51
F0.22257201708269153
aF0.26343693076924085
aF0.3776526580987045
aF0.6223473419012955
aF0.7365630692307592
aF0.7774279829173085
asg16
(dp52
g4
L85L
sg5
L125L
sg6
L344L
sg7
L131L
sg8
L255L
sg9
L222L
sg10
L819L
sg11
L67L
ssg18
(lp53
F0.628318530717959
aF1.329940890019679
aF0.841248699461267
aF0.446804288510548
aF1.183333232852155
aF1.057669526708564
asg20
(lp54
F0.10550029699844762
aF0.2117126844287729
aF0.4121824374362184
aF0.5878175625637816
aF0.788287315571227
aF0.8944997030015523
asg22
V\u000ainclude "qelib1.inc";\u000aqreg err_qr[5];\u000acreg err_cr[5];\u000au3(0.628318530717959,0.0,0.0) err_qr[4];\u000au3(1.329940890019679,0.0,0.0) err_qr[3];\u000au3(0.841248699461267,0.0,0.0) err_qr[2];\u000acx err_qr[3],err_qr[2];\u000au3(0.446804288510548,0.0,0.0) err_qr[3];\u000acx err_qr[3],err_qr[4];\u000au3(1.183333232852155,0.0,0.0) err_qr[4];\u000au3(-1.570796326794897,0.0,0.0) err_qr[3];\u000ameasure err_qr[3] -> err_cr[3];\u000au3(1.057669526708564,0.0,0.0) err_qr[2];\u000acx err_qr[4],err_qr[2];\u000au3(1.570796326794897,0.0,0.0) err_qr[4];\u000ameasure err_qr[4] -> err_cr[4];\u000au3(1.570796326794897,0.0,0.0) err_qr[2];\u000ameasure err_qr[2] -> err_cr[2];\u000a
p55
sa(dp56
g2
(dp57
g4
L164L
sg5
L410L
sg6
L94L
sg7
L334L
sg8
L429L
sg9
L191L
sg10
L105L
sg11
L321L
ssg12
V\u000ainclude "qelib1.inc";\u000aqreg main_qr[5];\u000acreg main_cr[5];\u000au3(0.076794487087751,0.0,0.0) main_qr[4];\u000au3(1.12050137978036,0.0,0.0) main_qr[3];\u000au3(0.205948851735331,0.0,0.0) main_qr[2];\u000acx main_qr[3],main_qr[2];\u000au3(1.232202451907997,0.0,0.0) main_qr[3];\u000acx main_qr[3],main_qr[4];\u000au3(0.254818070791172,0.0,0.0) main_qr[4];\u000ameasure main_qr[3] -> main_cr[3];\u000au3(0.446804288510548,0.0,0.0) main_qr[2];\u000acx main_qr[4],main_qr[2];\u000ameasure main_qr[4] -> main_cr[4];\u000ameasure main_qr[2] -> main_cr[2];\u000a
p58
sg14
(lp59
F0.11581821490706723
aF0.28398258699739753
aF0.29799963435593263
aF0.7020003656440674
aF0.7160174130026025
aF0.8841817850929328
asg16
(dp60
g4
L101L
sg5
L55L
sg6
L107L
sg7
L41L
sg8
L72L
sg9
L391L
sg10
L1056L
sg11
L225L
ssg18
(lp61
F0.076794487087751
aF1.12050137978036
aF0.205948851735331
aF1.232202451907997
aF0.254818070791172
aF0.446804288510548
asg20
(lp62
F0.005128124093904091
aF0.45741181231106753
aF0.4761609344585213
aF0.5238390655414786
aF0.5425881876889325
aF0.9948718759060959
asg22
V\u000ainclude "qelib1.inc";\u000aqreg err_qr[5];\u000acreg err_cr[5];\u000au3(0.076794487087751,0.0,0.0) err_qr[4];\u000au3(1.12050137978036,0.0,0.0) err_qr[3];\u000au3(0.205948851735331,0.0,0.0) err_qr[2];\u000acx err_qr[3],err_qr[2];\u000au3(1.232202451907997,0.0,0.0) err_qr[3];\u000acx err_qr[3],err_qr[4];\u000au3(0.254818070791172,0.0,0.0) err_qr[4];\u000au3(-1.570796326794897,0.0,0.0) err_qr[3];\u000ameasure err_qr[3] -> err_cr[3];\u000au3(0.446804288510548,0.0,0.0) err_qr[2];\u000acx err_qr[4],err_qr[2];\u000au3(1.570796326794897,0.0,0.0) err_qr[4];\u000ameasure err_qr[4] -> err_cr[4];\u000au3(1.570796326794897,0.0,0.0) err_qr[2];\u000ameasure err_qr[2] -> err_cr[2];\u000a
p63
sa(dp64
g2
(dp65
g4
L466L
sg5
L79L
sg6
L127L
sg7
L101L
sg8
L455L
sg9
L403L
sg10
L112L
sg11
L305L
ssg12
V\u000ainclude "qelib1.inc";\u000aqreg main_qr[5];\u000acreg main_cr[5];\u000au3(1.291543646475804,0.0,0.0) main_qr[4];\u000au3(0.370009801422798,0.0,0.0) main_qr[3];\u000au3(0.855211333477221,0.0,0.0) main_qr[2];\u000acx main_qr[3],main_qr[2];\u000au3(1.270599695451872,0.0,0.0) main_qr[3];\u000acx main_qr[3],main_qr[4];\u000au3(0.010471975511966,0.0,0.0) main_qr[4];\u000ameasure main_qr[3] -> main_cr[3];\u000au3(1.518436449235067,0.0,0.0) main_qr[2];\u000acx main_qr[4],main_qr[2];\u000ameasure main_qr[4] -> main_cr[4];\u000ameasure main_qr[2] -> main_cr[2];\u000a
p66
sg14
(lp67
F0.39362974800996825
aF0.4000883015437966
aF0.43631906398349285
aF0.5636809360165072
aF0.5999116984562034
aF0.6063702519900318
asg16
(dp68
g4
L75L
sg5
L290L
sg6
L270L
sg7
L451L
sg8
L28L
sg9
L80L
sg10
L800L
sg11
L54L
ssg18
(lp69
F1.291543646475804
aF0.370009801422798
aF0.855211333477221
aF1.270599695451872
aF0.010471975511966
aF1.518436449235067
asg20
(lp70
F0.2983408550935489
aF0.30199565954222557
aF0.41755352375474164
aF0.5824464762452584
aF0.6980043404577745
aF0.7016591449064511
asg22
V\u000ainclude "qelib1.inc";\u000aqreg err_qr[5];\u000acreg err_cr[5];\u000au3(1.291543646475804,0.0,0.0) err_qr[4];\u000au3(0.370009801422798,0.0,0.0) err_qr[3];\u000au3(0.855211333477221,0.0,0.0) err_qr[2];\u000acx err_qr[3],err_qr[2];\u000au3(1.270599695451872,0.0,0.0) err_qr[3];\u000acx err_qr[3],err_qr[4];\u000au3(0.010471975511966,0.0,0.0) err_qr[4];\u000au3(-1.570796326794897,0.0,0.0) err_qr[3];\u000ameasure err_qr[3] -> err_cr[3];\u000au3(1.518436449235067,0.0,0.0) err_qr[2];\u000acx err_qr[4],err_qr[2];\u000au3(1.570796326794897,0.0,0.0) err_qr[4];\u000ameasure err_qr[4] -> err_cr[4];\u000au3(1.570796326794897,0.0,0.0) err_qr[2];\u000ameasure err_qr[2] -> err_cr[2];\u000a
p71
sa(dp72
g2
(dp73
g4
L97L
sg5
L544L
sg6
L90L
sg7
L444L
sg8
L340L
sg9
L109L
sg10
L77L
sg11
L347L
ssg12
V\u000ainclude "qelib1.inc";\u000aqreg main_qr[5];\u000acreg main_cr[5];\u000au3(0.010471975511966,0.0,0.0) main_qr[4];\u000au3(0.020943951023932,0.0,0.0) main_qr[3];\u000au3(0.108210413623648,0.0,0.0) main_qr[2];\u000acx main_qr[3],main_qr[2];\u000au3(1.567305668290908,0.0,0.0) main_qr[3];\u000acx main_qr[3],main_qr[4];\u000au3(1.448623279155294,0.0,0.0) main_qr[4];\u000ameasure main_qr[3] -> main_cr[3];\u000au3(0.136135681655558,0.0,0.0) main_qr[2];\u000acx main_qr[4],main_qr[2];\u000ameasure main_qr[4] -> main_cr[4];\u000ameasure main_qr[2] -> main_cr[2];\u000a
p74
sg14
(lp75
F0.16927459799038144
aF0.34790920815837434
aF0.38832761219313733
aF0.6116723878068626
aF0.6520907918416257
aF0.8307254020096186
asg16
(dp76
g4
L236L
sg5
L125L
sg6
L148L
sg7
L141L
sg8
L249L
sg9
L261L
sg10
L566L
sg11
L322L
ssg18
(lp77
F0.010471975511966
aF0.020943951023932
aF0.108210413623648
aF1.567305668290908
aF1.448623279155294
aF0.136135681655558
asg20
(lp78
F0.002137171979068153
aF0.4393468921159023
aF0.44786478567225413
aF0.5521352143277459
aF0.5606531078840977
aF0.9978628280209318
asg22
V\u000ainclude "qelib1.inc";\u000aqreg err_qr[5];\u000acreg err_cr[5];\u000au3(0.010471975511966,0.0,0.0) err_qr[4];\u000au3(0.020943951023932,0.0,0.0) err_qr[3];\u000au3(0.108210413623648,0.0,0.0) err_qr[2];\u000acx err_qr[3],err_qr[2];\u000au3(1.567305668290908,0.0,0.0) err_qr[3];\u000acx err_qr[3],err_qr[4];\u000au3(1.448623279155294,0.0,0.0) err_qr[4];\u000au3(-1.570796326794897,0.0,0.0) err_qr[3];\u000ameasure err_qr[3] -> err_cr[3];\u000au3(0.136135681655558,0.0,0.0) err_qr[2];\u000acx err_qr[4],err_qr[2];\u000au3(1.570796326794897,0.0,0.0) err_qr[4];\u000ameasure err_qr[4] -> err_cr[4];\u000au3(1.570796326794897,0.0,0.0) err_qr[2];\u000ameasure err_qr[2] -> err_cr[2];\u000a
p79
sa(dp80
g2
(dp81
g4
L89L
sg5
L364L
sg6
L175L
sg7
L376L
sg8
L443L
sg9
L190L
sg10
L143L
sg11
L268L
ssg12
V\u000ainclude "qelib1.inc";\u000aqreg main_qr[5];\u000acreg main_cr[5];\u000au3(0.125663706143592,0.0,0.0) main_qr[4];\u000au3(0.373500459926786,0.0,0.0) main_qr[3];\u000au3(1.385791426083498,0.0,0.0) main_qr[2];\u000acx main_qr[3],main_qr[2];\u000au3(1.448623279155294,0.0,0.0) main_qr[3];\u000acx main_qr[3],main_qr[4];\u000au3(0.85870199198121,0.0,0.0) main_qr[4];\u000ameasure main_qr[3] -> main_cr[3];\u000au3(0.108210413623648,0.0,0.0) main_qr[2];\u000acx main_qr[4],main_qr[2];\u000ameasure main_qr[4] -> main_cr[4];\u000ameasure main_qr[2] -> main_cr[2];\u000a
p82
sg14
(lp83
F0.1963875982543295
aF0.2724478402039294
aF0.3831343939165423
aF0.6168656060834576
aF0.7275521597960706
aF0.8036124017456705
asg16
(dp84
g4
L110L
sg5
L91L
sg6
L354L
sg7
L220L
sg8
L135L
sg9
L137L
sg10
L875L
sg11
L126L
ssg18
(lp85
F0.125663706143592
aF0.373500459926786
aF1.385791426083498
aF1.448623279155294
aF0.85870199198121
aF0.108210413623648
asg20
(lp86
F0.24689535160960657
aF0.24743223057772007
aF0.25978729433666475
aF0.7402127056633351
aF0.7525677694222799
aF0.7531046483903934
asg22
V\u000ainclude "qelib1.inc";\u000aqreg err_qr[5];\u000acreg err_cr[5];\u000au3(0.125663706143592,0.0,0.0) err_qr[4];\u000au3(0.373500459926786,0.0,0.0) err_qr[3];\u000au3(1.385791426083498,0.0,0.0) err_qr[2];\u000acx err_qr[3],err_qr[2];\u000au3(1.448623279155294,0.0,0.0) err_qr[3];\u000acx err_qr[3],err_qr[4];\u000au3(0.85870199198121,0.0,0.0) err_qr[4];\u000au3(-1.570796326794897,0.0,0.0) err_qr[3];\u000ameasure err_qr[3] -> err_cr[3];\u000au3(0.108210413623648,0.0,0.0) err_qr[2];\u000acx err_qr[4],err_qr[2];\u000au3(1.570796326794897,0.0,0.0) err_qr[4];\u000ameasure err_qr[4] -> err_cr[4];\u000au3(1.570796326794897,0.0,0.0) err_qr[2];\u000ameasure err_qr[2] -> err_cr[2];\u000a
p87
sa(dp88
g2
(dp89
g4
L246L
sg5
L263L
sg6
L77L
sg7
L213L
sg8
L799L
sg9
L211L
sg10
L65L
sg11
L174L
ssg12
V\u000ainclude "qelib1.inc";\u000aqreg main_qr[5];\u000acreg main_cr[5];\u000au3(0.045378560551853,0.0,0.0) main_qr[4];\u000au3(1.06814150222053,0.0,0.0) main_qr[3];\u000au3(0.247836753783195,0.0,0.0) main_qr[2];\u000acx main_qr[3],main_qr[2];\u000au3(1.19729586686811,0.0,0.0) main_qr[3];\u000acx main_qr[3],main_qr[4];\u000au3(0.663225115757845,0.0,0.0) main_qr[4];\u000ameasure main_qr[3] -> main_cr[3];\u000au3(0.080285145591739,0.0,0.0) main_qr[2];\u000acx main_qr[4],main_qr[2];\u000ameasure main_qr[4] -> main_cr[4];\u000ameasure main_qr[2] -> main_cr[2];\u000a
p90
sg14
(lp91
F0.2584937046784667
aF0.3624883483274849
aF0.4109706471873942
aF0.5890293528126058
aF0.6375116516725151
aF0.7415062953215332
asg16
(dp92
g4
L83L
sg5
L247L
sg6
L205L
sg7
L139L
sg8
L227L
sg9
L397L
sg10
L592L
sg11
L158L
ssg18
(lp93
F0.045378560551853
aF1.06814150222053
aF0.247836753783195
aF1.19729586686811
aF0.663225115757845
aF0.080285145591739
asg20
(lp94
F0.06533990687735503
aF0.09227687928374739
aF0.09758498350585942
aF0.9024150164941406
aF0.9077231207162525
aF0.9346600931226449
asg22
V\u000ainclude "qelib1.inc";\u000aqreg err_qr[5];\u000acreg err_cr[5];\u000au3(0.045378560551853,0.0,0.0) err_qr[4];\u000au3(1.06814150222053,0.0,0.0) err_qr[3];\u000au3(0.247836753783195,0.0,0.0) err_qr[2];\u000acx err_qr[3],err_qr[2];\u000au3(1.19729586686811,0.0,0.0) err_qr[3];\u000acx err_qr[3],err_qr[4];\u000au3(0.663225115757845,0.0,0.0) err_qr[4];\u000au3(-1.570796326794897,0.0,0.0) err_qr[3];\u000ameasure err_qr[3] -> err_cr[3];\u000au3(0.080285145591739,0.0,0.0) err_qr[2];\u000acx err_qr[4],err_qr[2];\u000au3(1.570796326794897,0.0,0.0) err_qr[4];\u000ameasure err_qr[4] -> err_cr[4];\u000au3(1.570796326794897,0.0,0.0) err_qr[2];\u000ameasure err_qr[2] -> err_cr[2];\u000a
p95
sa(dp96
g2
(dp97
g4
L147L
sg5
L513L
sg6
L89L
sg7
L394L
sg8
L399L
sg9
L109L
sg10
L62L
sg11
L335L
ssg12
V\u000ainclude "qelib1.inc";\u000aqreg main_qr[5];\u000acreg main_cr[5];\u000au3(0.198967534727354,0.0,0.0) main_qr[4];\u000au3(1.410226035611418,0.0,0.0) main_qr[3];\u000au3(0.876155284501153,0.0,0.0) main_qr[2];\u000acx main_qr[3],main_qr[2];\u000au3(1.228711793404008,0.0,0.0) main_qr[3];\u000acx main_qr[3],main_qr[4];\u000au3(0.18151424220741,0.0,0.0) main_qr[4];\u000ameasure main_qr[3] -> main_cr[3];\u000au3(0.048869219055841,0.0,0.0) main_qr[2];\u000acx main_qr[4],main_qr[2];\u000ameasure main_qr[4] -> main_cr[4];\u000ameasure main_qr[2] -> main_cr[2];\u000a
p98
sg14
(lp99
F0.16393122909065536
aF0.3210983876658683
aF0.33271823581409005
aF0.66728176418591
aF0.6789016123341317
aF0.8360687709093446
asg16
(dp100
g4
L242L
sg5
L88L
sg6
L88L
sg7
L55L
sg8
L240L
sg9
L300L
sg10
L699L
sg11
L336L
ssg18
(lp101
F0.198967534727354
aF1.410226035611418
aF0.876155284501153
aF1.228711793404008
aF0.18151424220741
aF0.048869219055841
asg20
(lp102
F0.16344655126859853
aF0.16954653131038244
aF0.327378184634734
aF0.672621815365266
aF0.8304534686896176
aF0.8365534487314013
asg22
V\u000ainclude "qelib1.inc";\u000aqreg err_qr[5];\u000acreg err_cr[5];\u000au3(0.198967534727354,0.0,0.0) err_qr[4];\u000au3(1.410226035611418,0.0,0.0) err_qr[3];\u000au3(0.876155284501153,0.0,0.0) err_qr[2];\u000acx err_qr[3],err_qr[2];\u000au3(1.228711793404008,0.0,0.0) err_qr[3];\u000acx err_qr[3],err_qr[4];\u000au3(0.18151424220741,0.0,0.0) err_qr[4];\u000au3(-1.570796326794897,0.0,0.0) err_qr[3];\u000ameasure err_qr[3] -> err_cr[3];\u000au3(0.048869219055841,0.0,0.0) err_qr[2];\u000acx err_qr[4],err_qr[2];\u000au3(1.570796326794897,0.0,0.0) err_qr[4];\u000ameasure err_qr[4] -> err_cr[4];\u000au3(1.570796326794897,0.0,0.0) err_qr[2];\u000ameasure err_qr[2] -> err_cr[2];\u000a
p103
sa(dp104
g2
(dp105
g4
L279L
sg5
L122L
sg6
L166L
sg7
L130L
sg8
L738L
sg9
L238L
sg10
L199L
sg11
L176L
ssg12
V\u000ainclude "qelib1.inc";\u000aqreg main_qr[5];\u000acreg main_cr[5];\u000au3(1.539380400258999,0.0,0.0) main_qr[4];\u000au3(0.617846555205993,0.0,0.0) main_qr[3];\u000au3(0.122173047639603,0.0,0.0) main_qr[2];\u000acx main_qr[3],main_qr[2];\u000au3(1.403244718603441,0.0,0.0) main_qr[3];\u000acx main_qr[3],main_qr[4];\u000au3(0.136135681655558,0.0,0.0) main_qr[4];\u000ameasure main_qr[3] -> main_cr[3];\u000au3(1.556833692778942,0.0,0.0) main_qr[2];\u000acx main_qr[4],main_qr[2];\u000ameasure main_qr[4] -> main_cr[4];\u000ameasure main_qr[2] -> main_cr[2];\u000a
p106
sg14
(lp107
F0.28855392165845095
aF0.3724585447199954
aF0.3810275905762115
aF0.6189724094237885
aF0.6275414552800046
aF0.711446078341549
asg16
(dp108
g4
L81L
sg5
L270L
sg6
L295L
sg7
L171L
sg8
L324L
sg9
L152L
sg10
L694L
sg11
L61L
ssg18
(lp109
F1.539380400258999
aF0.617846555205993
aF0.122173047639603
aF1.403244718603441
aF0.136135681655558
aF1.556833692778942
asg20
(lp110
F0.3878149319695352
aF0.40852867338340393
aF0.4311603152171657
aF0.5688396847828343
aF0.5914713266165961
aF0.6121850680304647
asg22
V\u000ainclude "qelib1.inc";\u000aqreg err_qr[5];\u000acreg err_cr[5];\u000au3(1.539380400258999,0.0,0.0) err_qr[4];\u000au3(0.617846555205993,0.0,0.0) err_qr[3];\u000au3(0.122173047639603,0.0,0.0) err_qr[2];\u000acx err_qr[3],err_qr[2];\u000au3(1.403244718603441,0.0,0.0) err_qr[3];\u000acx err_qr[3],err_qr[4];\u000au3(0.136135681655558,0.0,0.0) err_qr[4];\u000au3(-1.570796326794897,0.0,0.0) err_qr[3];\u000ameasure err_qr[3] -> err_cr[3];\u000au3(1.556833692778942,0.0,0.0) err_qr[2];\u000acx err_qr[4],err_qr[2];\u000au3(1.570796326794897,0.0,0.0) err_qr[4];\u000ameasure err_qr[4] -> err_cr[4];\u000au3(1.570796326794897,0.0,0.0) err_qr[2];\u000ameasure err_qr[2] -> err_cr[2];\u000a
p111
sa(dp112
g2
(dp113
g4
L176L
sg5
L476L
sg6
L66L
sg7
L286L
sg8
L627L
sg9
L195L
sg10
L57L
sg11
L165L
ssg12
V\u000ainclude "qelib1.inc";\u000aqreg main_qr[5];\u000acreg main_cr[5];\u000au3(0.045378560551853,0.0,0.0) main_qr[4];\u000au3(1.06814150222053,0.0,0.0) main_qr[3];\u000au3(0.247836753783195,0.0,0.0) main_qr[2];\u000acx main_qr[3],main_qr[2];\u000au3(1.19729586686811,0.0,0.0) main_qr[3];\u000acx main_qr[3],main_qr[4];\u000au3(0.663225115757845,0.0,0.0) main_qr[4];\u000ameasure main_qr[3] -> main_cr[3];\u000au3(0.080285145591739,0.0,0.0) main_qr[2];\u000acx main_qr[4],main_qr[2];\u000ameasure main_qr[4] -> main_cr[4];\u000ameasure main_qr[2] -> main_cr[2];\u000a
p114
sg14
(lp115
F0.1841076915850165
aF0.40262491647824306
aF0.42419836574091785
aF0.5758016342590822
aF0.5973750835217569
aF0.8158923084149836
asg16
(dp116
g4
L81L
sg5
L50L
sg6
L86L
sg7
L65L
sg8
L172L
sg9
L661L
sg10
L567L
sg11
L366L
ssg18
(lp117
F0.045378560551853
aF1.06814150222053
aF0.247836753783195
aF1.19729586686811
aF0.663225115757845
aF0.080285145591739
asg20
(lp118
F0.2723669580223469
aF0.33146814720949636
aF0.4734292054127092
aF0.5265707945872908
aF0.6685318527905036
aF0.7276330419776531
asg22
V\u000ainclude "qelib1.inc";\u000aqreg err_qr[5];\u000acreg err_cr[5];\u000au3(0.045378560551853,0.0,0.0) err_qr[4];\u000au3(1.06814150222053,0.0,0.0) err_qr[3];\u000au3(0.247836753783195,0.0,0.0) err_qr[2];\u000acx err_qr[3],err_qr[2];\u000au3(1.19729586686811,0.0,0.0) err_qr[3];\u000acx err_qr[3],err_qr[4];\u000au3(0.663225115757845,0.0,0.0) err_qr[4];\u000au3(-1.570796326794897,0.0,0.0) err_qr[3];\u000ameasure err_qr[3] -> err_cr[3];\u000au3(0.080285145591739,0.0,0.0) err_qr[2];\u000acx err_qr[4],err_qr[2];\u000au3(1.570796326794897,0.0,0.0) err_qr[4];\u000ameasure err_qr[4] -> err_cr[4];\u000au3(1.570796326794897,0.0,0.0) err_qr[2];\u000ameasure err_qr[2] -> err_cr[2];\u000a
p119
sa(dp120
g2
(dp121
g4
L360L
sg5
L291L
sg6
L149L
sg7
L168L
sg8
L469L
sg9
L284L
sg10
L78L
sg11
L249L
ssg12
V\u000ainclude "qelib1.inc";\u000aqreg main_qr[5];\u000acreg main_cr[5];\u000au3(0.764454212373516,0.0,0.0) main_qr[4];\u000au3(1.071632160724518,0.0,0.0) main_qr[3];\u000au3(1.473057888683214,0.0,0.0) main_qr[2];\u000acx main_qr[3],main_qr[2];\u000au3(0.628318530717959,0.0,0.0) main_qr[3];\u000acx main_qr[3],main_qr[4];\u000au3(0.429350995990605,0.0,0.0) main_qr[4];\u000ameasure main_qr[3] -> main_cr[3];\u000au3(1.179842574348167,0.0,0.0) main_qr[2];\u000acx main_qr[4],main_qr[2];\u000ameasure main_qr[4] -> main_cr[4];\u000ameasure main_qr[2] -> main_cr[2];\u000a
p122
sg14
(lp123
F0.2108843053327023
aF0.34284851729545995
aF0.39646019408313654
aF0.6035398059168635
aF0.65715148270454
aF0.7891156946672977
asg16
(dp124
g4
L74L
sg5
L91L
sg6
L216L
sg7
L199L
sg8
L54L
sg9
L348L
sg10
L958L
sg11
L108L
ssg18
(lp125
F0.764454212373516
aF1.071632160724518
aF1.473057888683214
aF0.628318530717959
aF0.429350995990605
aF1.179842574348167
asg20
(lp126
F0.2427679238158662
aF0.304538798806515
aF0.4342938343456263
aF0.5657061656543738
aF0.695461201193485
aF0.7572320761841338
asg22
V\u000ainclude "qelib1.inc";\u000aqreg err_qr[5];\u000acreg err_cr[5];\u000au3(0.764454212373516,0.0,0.0) err_qr[4];\u000au3(1.071632160724518,0.0,0.0) err_qr[3];\u000au3(1.473057888683214,0.0,0.0) err_qr[2];\u000acx err_qr[3],err_qr[2];\u000au3(0.628318530717959,0.0,0.0) err_qr[3];\u000acx err_qr[3],err_qr[4];\u000au3(0.429350995990605,0.0,0.0) err_qr[4];\u000au3(-1.570796326794897,0.0,0.0) err_qr[3];\u000ameasure err_qr[3] -> err_cr[3];\u000au3(1.179842574348167,0.0,0.0) err_qr[2];\u000acx err_qr[4],err_qr[2];\u000au3(1.570796326794897,0.0,0.0) err_qr[4];\u000ameasure err_qr[4] -> err_cr[4];\u000au3(1.570796326794897,0.0,0.0) err_qr[2];\u000ameasure err_qr[2] -> err_cr[2];\u000a
p127
sa(dp128
g2
(dp129
g4
L268L
sg5
L254L
sg6
L104L
sg7
L153L
sg8
L629L
sg9
L294L
sg10
L101L
sg11
L245L
ssg12
V\u000ainclude "qelib1.inc";\u000aqreg main_qr[5];\u000acreg main_cr[5];\u000au3(0.373500459926786,0.0,0.0) main_qr[4];\u000au3(0.387463093942741,0.0,0.0) main_qr[3];\u000au3(0.013962634015955,0.0,0.0) main_qr[2];\u000acx main_qr[3],main_qr[2];\u000au3(1.466076571675237,0.0,0.0) main_qr[3];\u000acx main_qr[3],main_qr[4];\u000au3(0.310668606854991,0.0,0.0) main_qr[4];\u000ameasure main_qr[3] -> main_cr[3];\u000au3(0.349065850398866,0.0,0.0) main_qr[2];\u000acx main_qr[4],main_qr[2];\u000ameasure main_qr[4] -> main_cr[4];\u000ameasure main_qr[2] -> main_cr[2];\u000a
p130
sg14
(lp131
F0.3048798554637861
aF0.39163895985755787
aF0.42356409691196295
aF0.576435903088037
aF0.6083610401424421
aF0.6951201445362138
asg16
(dp132
g4
L49L
sg5
L49L
sg6
L156L
sg7
L289L
sg8
L144L
sg9
L422L
sg10
L703L
sg11
L236L
ssg18
(lp133
F0.373500459926786
aF0.387463093942741
aF0.013962634015955
aF1.466076571675237
aF0.310668606854991
aF0.349065850398866
asg20
(lp134
F0.2933483919457647
aF0.29667459575028526
aF0.4162169389838286
aF0.5837830610161714
aF0.7033254042497148
aF0.7066516080542353
asg22
V\u000ainclude "qelib1.inc";\u000aqreg err_qr[5];\u000acreg err_cr[5];\u000au3(0.373500459926786,0.0,0.0) err_qr[4];\u000au3(0.387463093942741,0.0,0.0) err_qr[3];\u000au3(0.013962634015955,0.0,0.0) err_qr[2];\u000acx err_qr[3],err_qr[2];\u000au3(1.466076571675237,0.0,0.0) err_qr[3];\u000acx err_qr[3],err_qr[4];\u000au3(0.310668606854991,0.0,0.0) err_qr[4];\u000au3(-1.570796326794897,0.0,0.0) err_qr[3];\u000ameasure err_qr[3] -> err_cr[3];\u000au3(0.349065850398866,0.0,0.0) err_qr[2];\u000acx err_qr[4],err_qr[2];\u000au3(1.570796326794897,0.0,0.0) err_qr[4];\u000ameasure err_qr[4] -> err_cr[4];\u000au3(1.570796326794897,0.0,0.0) err_qr[2];\u000ameasure err_qr[2] -> err_cr[2];\u000a
p135
sa(dp136
g2
(dp137
g4
L157L
sg5
L379L
sg6
L95L
sg7
L356L
sg8
L454L
sg9
L140L
sg10
L121L
sg11
L346L
ssg12
V\u000ainclude "qelib1.inc";\u000aqreg main_qr[5];\u000acreg main_cr[5];\u000au3(0.289724655831059,0.0,0.0) main_qr[4];\u000au3(0.471238898038469,0.0,0.0) main_qr[3];\u000au3(0.205948851735331,0.0,0.0) main_qr[2];\u000acx main_qr[3],main_qr[2];\u000au3(1.494001839707146,0.0,0.0) main_qr[3];\u000acx main_qr[3],main_qr[4];\u000au3(0.558505360638185,0.0,0.0) main_qr[4];\u000ameasure main_qr[3] -> main_cr[3];\u000au3(0.020943951023932,0.0,0.0) main_qr[2];\u000acx main_qr[4],main_qr[2];\u000ameasure main_qr[4] -> main_cr[4];\u000ameasure main_qr[2] -> main_cr[2];\u000a
p138
sg14
(lp139
F0.2217974995783742
aF0.3554159724740489
aF0.4753091857816982
aF0.5246908142183018
aF0.6445840275259511
aF0.7782025004216259
asg16
(dp140
g4
L104L
sg5
L107L
sg6
L157L
sg7
L75L
sg8
L304L
sg9
L442L
sg10
L573L
sg11
L286L
ssg18
(lp141
F0.289724655831059
aF0.471238898038469
aF0.205948851735331
aF1.494001839707146
aF0.558505360638185
aF0.020943951023932
asg20
(lp142
F0.18165653826208505
aF0.41036499264448695
aF0.42602453489327935
aF0.5739754651067207
aF0.5896350073555131
aF0.8183434617379151
asg22
V\u000ainclude "qelib1.inc";\u000aqreg err_qr[5];\u000acreg err_cr[5];\u000au3(0.289724655831059,0.0,0.0) err_qr[4];\u000au3(0.471238898038469,0.0,0.0) err_qr[3];\u000au3(0.205948851735331,0.0,0.0) err_qr[2];\u000acx err_qr[3],err_qr[2];\u000au3(1.494001839707146,0.0,0.0) err_qr[3];\u000acx err_qr[3],err_qr[4];\u000au3(0.558505360638185,0.0,0.0) err_qr[4];\u000au3(-1.570796326794897,0.0,0.0) err_qr[3];\u000ameasure err_qr[3] -> err_cr[3];\u000au3(0.020943951023932,0.0,0.0) err_qr[2];\u000acx err_qr[4],err_qr[2];\u000au3(1.570796326794897,0.0,0.0) err_qr[4];\u000ameasure err_qr[4] -> err_cr[4];\u000au3(1.570796326794897,0.0,0.0) err_qr[2];\u000ameasure err_qr[2] -> err_cr[2];\u000a
p143
sa(dp144
g2
(dp145
g4
L298L
sg5
L217L
sg6
L109L
sg7
L199L
sg8
L637L
sg9
L203L
sg10
L86L
sg11
L299L
ssg12
V\u000ainclude "qelib1.inc";\u000aqreg main_qr[5];\u000acreg main_cr[5];\u000au3(0.132645023151569,0.0,0.0) main_qr[4];\u000au3(0.502654824574367,0.0,0.0) main_qr[3];\u000au3(0.474729556542458,0.0,0.0) main_qr[2];\u000acx main_qr[3],main_qr[2];\u000au3(0.719075651821664,0.0,0.0) main_qr[3];\u000acx main_qr[3],main_qr[4];\u000au3(0.893608577021097,0.0,0.0) main_qr[4];\u000ameasure main_qr[3] -> main_cr[3];\u000au3(0.307177948351002,0.0,0.0) main_qr[2];\u000acx main_qr[4],main_qr[2];\u000ameasure main_qr[4] -> main_cr[4];\u000ameasure main_qr[2] -> main_cr[2];\u000a
p146
sg14
(lp147
F0.2367045511061706
aF0.3883980888502996
aF0.4425361216018563
aF0.5574638783981435
aF0.6116019111497002
aF0.7632954488938294
asg16
(dp148
g4
L61L
sg5
L62L
sg6
L167L
sg7
L222L
sg8
L197L
sg9
L630L
sg10
L594L
sg11
L115L
ssg18
(lp149
F0.132645023151569
aF0.502654824574367
aF0.474729556542458
aF0.719075651821664
aF0.893608577021097
aF0.307177948351002
asg20
(lp150
F0.2381523532185176
aF0.2611525739347397
aF0.38030244401409014
aF0.6196975559859097
aF0.7388474260652603
aF0.7618476467814822
asg22
V\u000ainclude "qelib1.inc";\u000aqreg err_qr[5];\u000acreg err_cr[5];\u000au3(0.132645023151569,0.0,0.0) err_qr[4];\u000au3(0.502654824574367,0.0,0.0) err_qr[3];\u000au3(0.474729556542458,0.0,0.0) err_qr[2];\u000acx err_qr[3],err_qr[2];\u000au3(0.719075651821664,0.0,0.0) err_qr[3];\u000acx err_qr[3],err_qr[4];\u000au3(0.893608577021097,0.0,0.0) err_qr[4];\u000au3(-1.570796326794897,0.0,0.0) err_qr[3];\u000ameasure err_qr[3] -> err_cr[3];\u000au3(0.307177948351002,0.0,0.0) err_qr[2];\u000acx err_qr[4],err_qr[2];\u000au3(1.570796326794897,0.0,0.0) err_qr[4];\u000ameasure err_qr[4] -> err_cr[4];\u000au3(1.570796326794897,0.0,0.0) err_qr[2];\u000ameasure err_qr[2] -> err_cr[2];\u000a
p151
sa(dp152
g2
(dp153
g4
L286L
sg5
L226L
sg6
L39L
sg7
L192L
sg8
L444L
sg9
L349L
sg10
L63L
sg11
L449L
ssg12
V\u000ainclude "qelib1.inc";\u000aqreg main_qr[5];\u000acreg main_cr[5];\u000au3(1.291543646475804,0.0,0.0) main_qr[4];\u000au3(0.370009801422798,0.0,0.0) main_qr[3];\u000au3(0.855211333477221,0.0,0.0) main_qr[2];\u000acx main_qr[3],main_qr[2];\u000au3(1.270599695451872,0.0,0.0) main_qr[3];\u000acx main_qr[3],main_qr[4];\u000au3(0.010471975511966,0.0,0.0) main_qr[4];\u000ameasure main_qr[3] -> main_cr[3];\u000au3(1.518436449235067,0.0,0.0) main_qr[2];\u000acx main_qr[4],main_qr[2];\u000ameasure main_qr[4] -> main_cr[4];\u000ameasure main_qr[2] -> main_cr[2];\u000a
p154
sg14
(lp155
F0.3488495440218349
aF0.41771772736034163
aF0.42724609375
aF0.57275390625
aF0.5822822726396584
aF0.6511504559781651
asg16
(dp156
g4
L102L
sg5
L243L
sg6
L221L
sg7
L225L
sg8
L141L
sg9
L288L
sg10
L529L
sg11
L299L
ssg18
(lp157
F1.291543646475804
aF0.370009801422798
aF0.855211333477221
aF1.270599695451872
aF0.010471975511966
aF1.518436449235067
asg20
(lp158
F0.37186353210375056
aF0.3860987351193156
aF0.41596411979353953
aF0.5840358802064604
aF0.6139012648806844
aF0.6281364678962494
asg22
V\u000ainclude "qelib1.inc";\u000aqreg err_qr[5];\u000acreg err_cr[5];\u000au3(1.291543646475804,0.0,0.0) err_qr[4];\u000au3(0.370009801422798,0.0,0.0) err_qr[3];\u000au3(0.855211333477221,0.0,0.0) err_qr[2];\u000acx err_qr[3],err_qr[2];\u000au3(1.270599695451872,0.0,0.0) err_qr[3];\u000acx err_qr[3],err_qr[4];\u000au3(0.010471975511966,0.0,0.0) err_qr[4];\u000au3(-1.570796326794897,0.0,0.0) err_qr[3];\u000ameasure err_qr[3] -> err_cr[3];\u000au3(1.518436449235067,0.0,0.0) err_qr[2];\u000acx err_qr[4],err_qr[2];\u000au3(1.570796326794897,0.0,0.0) err_qr[4];\u000ameasure err_qr[4] -> err_cr[4];\u000au3(1.570796326794897,0.0,0.0) err_qr[2];\u000ameasure err_qr[2] -> err_cr[2];\u000a
p159
sa.