(lp0
(dp1
Vparameters
p2
(lp3
F0.160570291183478
aF0.066322511575785
aF0.048869219055841
aF1.385791426083498
aF0.816814089933346
aF0.188495559215388
asVideal
p4
(lp5
F0.3044514693074888
aF0.40814654425118235
aF0.4874165573470532
aF0.5125834426529468
aF0.5918534557488176
aF0.6955485306925112
asVerr-qasm
p6
V\u000ainclude "qelib1.inc";\u000aqreg err_qr[5];\u000acreg err_cr[5];\u000au3(0.160570291183478,0.0,0.0) err_qr[4];\u000au3(0.066322511575785,0.0,0.0) err_qr[3];\u000au3(0.048869219055841,0.0,0.0) err_qr[2];\u000acx err_qr[3],err_qr[2];\u000au3(1.385791426083498,0.0,0.0) err_qr[3];\u000acx err_qr[3],err_qr[4];\u000au3(0.816814089933346,0.0,0.0) err_qr[4];\u000au3(-1.570796326794897,0.0,0.0) err_qr[3];\u000ameasure err_qr[3] -> err_cr[3];\u000au3(0.188495559215388,0.0,0.0) err_qr[2];\u000acx err_qr[4],err_qr[2];\u000au3(1.570796326794897,0.0,0.0) err_qr[4];\u000ameasure err_qr[4] -> err_cr[4];\u000au3(1.570796326794897,0.0,0.0) err_qr[2];\u000ameasure err_qr[2] -> err_cr[2];\u000a
p7
sVmain-qasm
p8
V\u000ainclude "qelib1.inc";\u000aqreg main_qr[5];\u000acreg main_cr[5];\u000au3(0.160570291183478,0.0,0.0) main_qr[4];\u000au3(0.066322511575785,0.0,0.0) main_qr[3];\u000au3(0.048869219055841,0.0,0.0) main_qr[2];\u000acx main_qr[3],main_qr[2];\u000au3(1.385791426083498,0.0,0.0) main_qr[3];\u000acx main_qr[3],main_qr[4];\u000au3(0.816814089933346,0.0,0.0) main_qr[4];\u000ameasure main_qr[3] -> main_cr[3];\u000au3(0.188495559215388,0.0,0.0) main_qr[2];\u000acx main_qr[4],main_qr[2];\u000ameasure main_qr[4] -> main_cr[4];\u000ameasure main_qr[2] -> main_cr[2];\u000a
p9
sVexp-ON
p10
(lp11
F0.36958593726599476
aF0.4086496377285027
aF0.4487211689982003
aF0.5512788310017998
aF0.5913503622714973
aF0.6304140627340052
asVmain-counts
p12
(dp13
V00000
p14
L349L
sV01000
p15
L104L
sV10000
p16
L170L
sV11000
p17
L571L
sV01100
p18
L147L
sV11100
p19
L307L
sV10100
p20
L156L
sV00100
p21
L244L
ssVerr-counts
p22
(dp23
g14
L245L
sg15
L193L
sg16
L182L
sg17
L198L
sg18
L368L
sg19
L267L
sg20
L326L
sg21
L269L
ssa(dp24
g2
(lp25
F0.78190750489346
aF1.057669526708564
aF0.15707963267949
aF0.719075651821664
aF0.897099235525085
aF0.91106186954104
asg4
(lp26
F0.27937591761735914
aF0.3458160955254719
aF0.3509196515027238
aF0.6490803484972762
aF0.6541839044745281
aF0.720624082382641
asg6
V\u000ainclude "qelib1.inc";\u000aqreg err_qr[5];\u000acreg err_cr[5];\u000au3(0.78190750489346,0.0,0.0) err_qr[4];\u000au3(1.057669526708564,0.0,0.0) err_qr[3];\u000au3(0.15707963267949,0.0,0.0) err_qr[2];\u000acx err_qr[3],err_qr[2];\u000au3(0.719075651821664,0.0,0.0) err_qr[3];\u000acx err_qr[3],err_qr[4];\u000au3(0.897099235525085,0.0,0.0) err_qr[4];\u000au3(-1.570796326794897,0.0,0.0) err_qr[3];\u000ameasure err_qr[3] -> err_cr[3];\u000au3(0.91106186954104,0.0,0.0) err_qr[2];\u000acx err_qr[4],err_qr[2];\u000au3(1.570796326794897,0.0,0.0) err_qr[4];\u000ameasure err_qr[4] -> err_cr[4];\u000au3(1.570796326794897,0.0,0.0) err_qr[2];\u000ameasure err_qr[2] -> err_cr[2];\u000a
p27
sg8
V\u000ainclude "qelib1.inc";\u000aqreg main_qr[5];\u000acreg main_cr[5];\u000au3(0.78190750489346,0.0,0.0) main_qr[4];\u000au3(1.057669526708564,0.0,0.0) main_qr[3];\u000au3(0.15707963267949,0.0,0.0) main_qr[2];\u000acx main_qr[3],main_qr[2];\u000au3(0.719075651821664,0.0,0.0) main_qr[3];\u000acx main_qr[3],main_qr[4];\u000au3(0.897099235525085,0.0,0.0) main_qr[4];\u000ameasure main_qr[3] -> main_cr[3];\u000au3(0.91106186954104,0.0,0.0) main_qr[2];\u000acx main_qr[4],main_qr[2];\u000ameasure main_qr[4] -> main_cr[4];\u000ameasure main_qr[2] -> main_cr[2];\u000a
p28
sg10
(lp29
F0.3673482633713723
aF0.3787940760231577
aF0.4488235592149018
aF0.5511764407850982
aF0.6212059239768423
aF0.6326517366286277
asg12
(dp30
g14
L283L
sg15
L122L
sg16
L188L
sg17
L638L
sg18
L266L
sg19
L102L
sg20
L334L
sg21
L115L
ssg22
(dp31
g14
L401L
sg15
L298L
sg16
L93L
sg17
L95L
sg18
L102L
sg19
L542L
sg20
L425L
sg21
L92L
ssa(dp32
g2
(lp33
F1.040216234188621
aF1.214749159388053
aF0.115191730631626
aF0.904080552533063
aF0.740019602845596
aF0.331612557878923
asg4
(lp34
F0.2336589836508065
aF0.4241089665597532
aF0.4343404898449681
aF0.5656595101550319
aF0.5758910334402468
aF0.7663410163491935
asg6
V\u000ainclude "qelib1.inc";\u000aqreg err_qr[5];\u000acreg err_cr[5];\u000au3(1.040216234188621,0.0,0.0) err_qr[4];\u000au3(1.214749159388053,0.0,0.0) err_qr[3];\u000au3(0.115191730631626,0.0,0.0) err_qr[2];\u000acx err_qr[3],err_qr[2];\u000au3(0.904080552533063,0.0,0.0) err_qr[3];\u000acx err_qr[3],err_qr[4];\u000au3(0.740019602845596,0.0,0.0) err_qr[4];\u000au3(-1.570796326794897,0.0,0.0) err_qr[3];\u000ameasure err_qr[3] -> err_cr[3];\u000au3(0.331612557878923,0.0,0.0) err_qr[2];\u000acx err_qr[4],err_qr[2];\u000au3(1.570796326794897,0.0,0.0) err_qr[4];\u000ameasure err_qr[4] -> err_cr[4];\u000au3(1.570796326794897,0.0,0.0) err_qr[2];\u000ameasure err_qr[2] -> err_cr[2];\u000a
p35
sg8
V\u000ainclude "qelib1.inc";\u000aqreg main_qr[5];\u000acreg main_cr[5];\u000au3(1.040216234188621,0.0,0.0) main_qr[4];\u000au3(1.214749159388053,0.0,0.0) main_qr[3];\u000au3(0.115191730631626,0.0,0.0) main_qr[2];\u000acx main_qr[3],main_qr[2];\u000au3(0.904080552533063,0.0,0.0) main_qr[3];\u000acx main_qr[3],main_qr[4];\u000au3(0.740019602845596,0.0,0.0) main_qr[4];\u000ameasure main_qr[3] -> main_cr[3];\u000au3(0.331612557878923,0.0,0.0) main_qr[2];\u000acx main_qr[4],main_qr[2];\u000ameasure main_qr[4] -> main_cr[4];\u000ameasure main_qr[2] -> main_cr[2];\u000a
p36
sg10
(lp37
F0.3356340580524224
aF0.388051473388554
aF0.42957907665109396
aF0.570420923348906
aF0.6119485266114459
aF0.6643659419475776
asg12
(dp38
g14
L214L
sg15
L62L
sg16
L133L
sg17
L832L
sg18
L86L
sg19
L124L
sg20
L270L
sg21
L327L
ssg22
(dp39
g14
L345L
sg15
L397L
sg16
L172L
sg17
L184L
sg18
L144L
sg19
L179L
sg20
L456L
sg21
L171L
ssa(dp40
g2
(lp41
F0.474729556542458
aF0.760963553869528
aF1.549852375770965
aF0.949459113084915
aF0.18151424220741
aF1.521927107739055
asg4
(lp42
F0.17106308727830188
aF0.23251050939378964
aF0.4087608712473615
aF0.5912391287526385
aF0.7674894906062101
aF0.8289369127216981
asg6
V\u000ainclude "qelib1.inc";\u000aqreg err_qr[5];\u000acreg err_cr[5];\u000au3(0.474729556542458,0.0,0.0) err_qr[4];\u000au3(0.760963553869528,0.0,0.0) err_qr[3];\u000au3(1.549852375770965,0.0,0.0) err_qr[2];\u000acx err_qr[3],err_qr[2];\u000au3(0.949459113084915,0.0,0.0) err_qr[3];\u000acx err_qr[3],err_qr[4];\u000au3(0.18151424220741,0.0,0.0) err_qr[4];\u000au3(-1.570796326794897,0.0,0.0) err_qr[3];\u000ameasure err_qr[3] -> err_cr[3];\u000au3(1.521927107739055,0.0,0.0) err_qr[2];\u000acx err_qr[4],err_qr[2];\u000au3(1.570796326794897,0.0,0.0) err_qr[4];\u000ameasure err_qr[4] -> err_cr[4];\u000au3(1.570796326794897,0.0,0.0) err_qr[2];\u000ameasure err_qr[2] -> err_cr[2];\u000a
p43
sg8
V\u000ainclude "qelib1.inc";\u000aqreg main_qr[5];\u000acreg main_cr[5];\u000au3(0.474729556542458,0.0,0.0) main_qr[4];\u000au3(0.760963553869528,0.0,0.0) main_qr[3];\u000au3(1.549852375770965,0.0,0.0) main_qr[2];\u000acx main_qr[3],main_qr[2];\u000au3(0.949459113084915,0.0,0.0) main_qr[3];\u000acx main_qr[3],main_qr[4];\u000au3(0.18151424220741,0.0,0.0) main_qr[4];\u000ameasure main_qr[3] -> main_cr[3];\u000au3(1.521927107739055,0.0,0.0) main_qr[2];\u000acx main_qr[4],main_qr[2];\u000ameasure main_qr[4] -> main_cr[4];\u000ameasure main_qr[2] -> main_cr[2];\u000a
p44
sg10
(lp45
F0.33167676848957156
aF0.356295086840985
aF0.38854131490697547
aF0.6114586850930246
aF0.643704913159015
aF0.6683232315104284
asg12
(dp46
g14
L112L
sg15
L68L
sg16
L293L
sg17
L845L
sg18
L142L
sg19
L94L
sg20
L83L
sg21
L411L
ssg22
(dp47
g14
L514L
sg15
L187L
sg16
L193L
sg17
L310L
sg18
L163L
sg19
L173L
sg20
L392L
sg21
L116L
ssa(dp48
g2
(lp49
F1.308996938995747
aF1.434660645139339
aF0.132645023151569
aF0.300196631343025
aF1.127482696788337
aF1.448623279155294
asg4
(lp50
F0.06873446612556666
aF0.3624553295979811
aF0.40933484130053055
aF0.5906651586994695
aF0.6375446704020189
aF0.9312655338744333
asg6
V\u000ainclude "qelib1.inc";\u000aqreg err_qr[5];\u000acreg err_cr[5];\u000au3(1.308996938995747,0.0,0.0) err_qr[4];\u000au3(1.434660645139339,0.0,0.0) err_qr[3];\u000au3(0.132645023151569,0.0,0.0) err_qr[2];\u000acx err_qr[3],err_qr[2];\u000au3(0.300196631343025,0.0,0.0) err_qr[3];\u000acx err_qr[3],err_qr[4];\u000au3(1.127482696788337,0.0,0.0) err_qr[4];\u000au3(-1.570796326794897,0.0,0.0) err_qr[3];\u000ameasure err_qr[3] -> err_cr[3];\u000au3(1.448623279155294,0.0,0.0) err_qr[2];\u000acx err_qr[4],err_qr[2];\u000au3(1.570796326794897,0.0,0.0) err_qr[4];\u000ameasure err_qr[4] -> err_cr[4];\u000au3(1.570796326794897,0.0,0.0) err_qr[2];\u000ameasure err_qr[2] -> err_cr[2];\u000a
p51
sg8
V\u000ainclude "qelib1.inc";\u000aqreg main_qr[5];\u000acreg main_cr[5];\u000au3(1.308996938995747,0.0,0.0) main_qr[4];\u000au3(1.434660645139339,0.0,0.0) main_qr[3];\u000au3(0.132645023151569,0.0,0.0) main_qr[2];\u000acx main_qr[3],main_qr[2];\u000au3(0.300196631343025,0.0,0.0) main_qr[3];\u000acx main_qr[3],main_qr[4];\u000au3(1.127482696788337,0.0,0.0) main_qr[4];\u000ameasure main_qr[3] -> main_cr[3];\u000au3(1.448623279155294,0.0,0.0) main_qr[2];\u000acx main_qr[4],main_qr[2];\u000ameasure main_qr[4] -> main_cr[4];\u000ameasure main_qr[2] -> main_cr[2];\u000a
p52
sg10
(lp53
F0.27998662382388856
aF0.3329278791452789
aF0.4101297168934885
aF0.5898702831065116
aF0.6670721208547211
aF0.7200133761761115
asg12
(dp54
g14
L351L
sg15
L92L
sg16
L293L
sg17
L398L
sg18
L51L
sg19
L423L
sg20
L360L
sg21
L80L
ssg22
(dp55
g14
L304L
sg15
L206L
sg16
L102L
sg17
L88L
sg18
L250L
sg19
L306L
sg20
L505L
sg21
L287L
ssa(dp56
g2
(lp57
F1.308996938995747
aF1.434660645139339
aF0.132645023151569
aF0.300196631343025
aF1.127482696788337
aF1.448623279155294
asg4
(lp58
F-0.07787319729591191
aF-0.0038584884508743866
aF0.2788201112193968
aF0.7211798887806031
aF1.0038584884508746
aF1.077873197295912
asg6
V\u000ainclude "qelib1.inc";\u000aqreg err_qr[5];\u000acreg err_cr[5];\u000au3(1.308996938995747,0.0,0.0) err_qr[4];\u000au3(1.434660645139339,0.0,0.0) err_qr[3];\u000au3(0.132645023151569,0.0,0.0) err_qr[2];\u000acx err_qr[3],err_qr[2];\u000au3(0.300196631343025,0.0,0.0) err_qr[3];\u000acx err_qr[3],err_qr[4];\u000au3(1.127482696788337,0.0,0.0) err_qr[4];\u000au3(-1.570796326794897,0.0,0.0) err_qr[3];\u000ameasure err_qr[3] -> err_cr[3];\u000au3(1.448623279155294,0.0,0.0) err_qr[2];\u000acx err_qr[4],err_qr[2];\u000au3(1.570796326794897,0.0,0.0) err_qr[4];\u000ameasure err_qr[4] -> err_cr[4];\u000au3(1.570796326794897,0.0,0.0) err_qr[2];\u000ameasure err_qr[2] -> err_cr[2];\u000a
p59
sg8
V\u000ainclude "qelib1.inc";\u000aqreg main_qr[5];\u000acreg main_cr[5];\u000au3(1.308996938995747,0.0,0.0) main_qr[4];\u000au3(1.434660645139339,0.0,0.0) main_qr[3];\u000au3(0.132645023151569,0.0,0.0) main_qr[2];\u000acx main_qr[3],main_qr[2];\u000au3(0.300196631343025,0.0,0.0) main_qr[3];\u000acx main_qr[3],main_qr[4];\u000au3(1.127482696788337,0.0,0.0) main_qr[4];\u000ameasure main_qr[3] -> main_cr[3];\u000au3(1.448623279155294,0.0,0.0) main_qr[2];\u000acx main_qr[4],main_qr[2];\u000ameasure main_qr[4] -> main_cr[4];\u000ameasure main_qr[2] -> main_cr[2];\u000a
p60
sg10
(lp61
F0.25803212926098906
aF0.2901446940862204
aF0.3951786270940153
aF0.6048213729059847
aF0.7098553059137795
aF0.7419678707390109
asg12
(dp62
g14
L177L
sg15
L58L
sg16
L444L
sg17
L540L
sg18
L56L
sg19
L228L
sg20
L245L
sg21
L300L
ssg22
(dp63
g14
L242L
sg15
L216L
sg16
L83L
sg17
L100L
sg18
L130L
sg19
L417L
sg20
L665L
sg21
L195L
ssa(dp64
g2
(lp65
F0.324631240870945
aF1.141445330804292
aF0.05235987755983
aF0.258308729295161
aF0.621337213709981
aF0.254818070791172
asg4
(lp66
F-0.10535636816837074
aF0.29563496516282445
aF0.4225095550858043
aF0.5774904449141958
aF0.7043650348371755
aF1.1053563681683707
asg6
V\u000ainclude "qelib1.inc";\u000aqreg err_qr[5];\u000acreg err_cr[5];\u000au3(0.324631240870945,0.0,0.0) err_qr[4];\u000au3(1.141445330804292,0.0,0.0) err_qr[3];\u000au3(0.05235987755983,0.0,0.0) err_qr[2];\u000acx err_qr[3],err_qr[2];\u000au3(0.258308729295161,0.0,0.0) err_qr[3];\u000acx err_qr[3],err_qr[4];\u000au3(0.621337213709981,0.0,0.0) err_qr[4];\u000au3(-1.570796326794897,0.0,0.0) err_qr[3];\u000ameasure err_qr[3] -> err_cr[3];\u000au3(0.254818070791172,0.0,0.0) err_qr[2];\u000acx err_qr[4],err_qr[2];\u000au3(1.570796326794897,0.0,0.0) err_qr[4];\u000ameasure err_qr[4] -> err_cr[4];\u000au3(1.570796326794897,0.0,0.0) err_qr[2];\u000ameasure err_qr[2] -> err_cr[2];\u000a
p67
sg8
V\u000ainclude "qelib1.inc";\u000aqreg main_qr[5];\u000acreg main_cr[5];\u000au3(0.324631240870945,0.0,0.0) main_qr[4];\u000au3(1.141445330804292,0.0,0.0) main_qr[3];\u000au3(0.05235987755983,0.0,0.0) main_qr[2];\u000acx main_qr[3],main_qr[2];\u000au3(0.258308729295161,0.0,0.0) main_qr[3];\u000acx main_qr[3],main_qr[4];\u000au3(0.621337213709981,0.0,0.0) main_qr[4];\u000ameasure main_qr[3] -> main_cr[3];\u000au3(0.254818070791172,0.0,0.0) main_qr[2];\u000acx main_qr[4],main_qr[2];\u000ameasure main_qr[4] -> main_cr[4];\u000ameasure main_qr[2] -> main_cr[2];\u000a
p68
sg10
(lp69
F0.19124983876344512
aF0.38022768481004504
aF0.44106342155392236
aF0.5589365784460776
aF0.6197723151899549
aF0.8087501612365549
asg12
(dp70
g14
L394L
sg15
L138L
sg16
L160L
sg17
L755L
sg18
L96L
sg19
L155L
sg20
L199L
sg21
L151L
ssg22
(dp71
g14
L202L
sg15
L170L
sg16
L86L
sg17
L96L
sg18
L360L
sg19
L385L
sg20
L445L
sg21
L304L
ssa(dp72
g2
(lp73
F0.324631240870945
aF1.141445330804292
aF0.05235987755983
aF0.258308729295161
aF0.621337213709981
aF0.254818070791172
asg4
(lp74
F0.03414311621799389
aF0.22910680322204227
aF0.28111340860246825
aF0.7188865913975317
aF0.7708931967779578
aF0.9658568837820062
asg6
V\u000ainclude "qelib1.inc";\u000aqreg err_qr[5];\u000acreg err_cr[5];\u000au3(0.324631240870945,0.0,0.0) err_qr[4];\u000au3(1.141445330804292,0.0,0.0) err_qr[3];\u000au3(0.05235987755983,0.0,0.0) err_qr[2];\u000acx err_qr[3],err_qr[2];\u000au3(0.258308729295161,0.0,0.0) err_qr[3];\u000acx err_qr[3],err_qr[4];\u000au3(0.621337213709981,0.0,0.0) err_qr[4];\u000au3(-1.570796326794897,0.0,0.0) err_qr[3];\u000ameasure err_qr[3] -> err_cr[3];\u000au3(0.254818070791172,0.0,0.0) err_qr[2];\u000acx err_qr[4],err_qr[2];\u000au3(1.570796326794897,0.0,0.0) err_qr[4];\u000ameasure err_qr[4] -> err_cr[4];\u000au3(1.570796326794897,0.0,0.0) err_qr[2];\u000ameasure err_qr[2] -> err_cr[2];\u000a
p75
sg8
V\u000ainclude "qelib1.inc";\u000aqreg main_qr[5];\u000acreg main_cr[5];\u000au3(0.324631240870945,0.0,0.0) main_qr[4];\u000au3(1.141445330804292,0.0,0.0) main_qr[3];\u000au3(0.05235987755983,0.0,0.0) main_qr[2];\u000acx main_qr[3],main_qr[2];\u000au3(0.258308729295161,0.0,0.0) main_qr[3];\u000acx main_qr[3],main_qr[4];\u000au3(0.621337213709981,0.0,0.0) main_qr[4];\u000ameasure main_qr[3] -> main_cr[3];\u000au3(0.254818070791172,0.0,0.0) main_qr[2];\u000acx main_qr[4],main_qr[2];\u000ameasure main_qr[4] -> main_cr[4];\u000ameasure main_qr[2] -> main_cr[2];\u000a
p76
sg10
(lp77
F0.27510526788417816
aF0.332681895849001
aF0.4500018120140351
aF0.5499981879859649
aF0.667318104150999
aF0.7248947321158219
asg12
(dp78
g14
L463L
sg15
L99L
sg16
L216L
sg17
L649L
sg18
L115L
sg19
L74L
sg20
L296L
sg21
L136L
ssg22
(dp79
g14
L191L
sg15
L163L
sg16
L200L
sg17
L247L
sg18
L202L
sg19
L358L
sg20
L489L
sg21
L198L
ssa(dp80
g2
(lp81
F0.293215314335047
aF1.521927107739055
aF0.003490658503989
aF1.560324351282931
aF0.991347015132779
aF0.820304748437335
asg4
(lp82
F0.27369111136176005
aF0.3077219826662917
aF0.3773969854805148
aF0.6226030145194852
aF0.6922780173337083
aF0.72630888863824
asg6
V\u000ainclude "qelib1.inc";\u000aqreg err_qr[5];\u000acreg err_cr[5];\u000au3(0.293215314335047,0.0,0.0) err_qr[4];\u000au3(1.521927107739055,0.0,0.0) err_qr[3];\u000au3(0.003490658503989,0.0,0.0) err_qr[2];\u000acx err_qr[3],err_qr[2];\u000au3(1.560324351282931,0.0,0.0) err_qr[3];\u000acx err_qr[3],err_qr[4];\u000au3(0.991347015132779,0.0,0.0) err_qr[4];\u000au3(-1.570796326794897,0.0,0.0) err_qr[3];\u000ameasure err_qr[3] -> err_cr[3];\u000au3(0.820304748437335,0.0,0.0) err_qr[2];\u000acx err_qr[4],err_qr[2];\u000au3(1.570796326794897,0.0,0.0) err_qr[4];\u000ameasure err_qr[4] -> err_cr[4];\u000au3(1.570796326794897,0.0,0.0) err_qr[2];\u000ameasure err_qr[2] -> err_cr[2];\u000a
p83
sg8
V\u000ainclude "qelib1.inc";\u000aqreg main_qr[5];\u000acreg main_cr[5];\u000au3(0.293215314335047,0.0,0.0) main_qr[4];\u000au3(1.521927107739055,0.0,0.0) main_qr[3];\u000au3(0.003490658503989,0.0,0.0) main_qr[2];\u000acx main_qr[3],main_qr[2];\u000au3(1.560324351282931,0.0,0.0) main_qr[3];\u000acx main_qr[3],main_qr[4];\u000au3(0.991347015132779,0.0,0.0) main_qr[4];\u000ameasure main_qr[3] -> main_cr[3];\u000au3(0.820304748437335,0.0,0.0) main_qr[2];\u000acx main_qr[4],main_qr[2];\u000ameasure main_qr[4] -> main_cr[4];\u000ameasure main_qr[2] -> main_cr[2];\u000a
p84
sg10
(lp85
F0.2489792680829473
aF0.26760428439624484
aF0.38163836893651804
aF0.618361631063482
aF0.7323957156037552
aF0.7510207319170528
asg12
(dp86
g14
L196L
sg15
L94L
sg16
L180L
sg17
L959L
sg18
L106L
sg19
L103L
sg20
L149L
sg21
L261L
ssg22
(dp87
g14
L497L
sg15
L473L
sg16
L130L
sg17
L174L
sg18
L242L
sg19
L181L
sg20
L179L
sg21
L172L
ssa(dp88
g2
(lp89
F0.78190750489346
aF1.057669526708564
aF0.15707963267949
aF0.719075651821664
aF0.897099235525085
aF0.91106186954104
asg4
(lp90
F0.2577064715063486
aF0.28618860201310553
aF0.3591203221471565
aF0.6408796778528435
aF0.7138113979868945
aF0.7422935284936514
asg6
V\u000ainclude "qelib1.inc";\u000aqreg err_qr[5];\u000acreg err_cr[5];\u000au3(0.78190750489346,0.0,0.0) err_qr[4];\u000au3(1.057669526708564,0.0,0.0) err_qr[3];\u000au3(0.15707963267949,0.0,0.0) err_qr[2];\u000acx err_qr[3],err_qr[2];\u000au3(0.719075651821664,0.0,0.0) err_qr[3];\u000acx err_qr[3],err_qr[4];\u000au3(0.897099235525085,0.0,0.0) err_qr[4];\u000au3(-1.570796326794897,0.0,0.0) err_qr[3];\u000ameasure err_qr[3] -> err_cr[3];\u000au3(0.91106186954104,0.0,0.0) err_qr[2];\u000acx err_qr[4],err_qr[2];\u000au3(1.570796326794897,0.0,0.0) err_qr[4];\u000ameasure err_qr[4] -> err_cr[4];\u000au3(1.570796326794897,0.0,0.0) err_qr[2];\u000ameasure err_qr[2] -> err_cr[2];\u000a
p91
sg8
V\u000ainclude "qelib1.inc";\u000aqreg main_qr[5];\u000acreg main_cr[5];\u000au3(0.78190750489346,0.0,0.0) main_qr[4];\u000au3(1.057669526708564,0.0,0.0) main_qr[3];\u000au3(0.15707963267949,0.0,0.0) main_qr[2];\u000acx main_qr[3],main_qr[2];\u000au3(0.719075651821664,0.0,0.0) main_qr[3];\u000acx main_qr[3],main_qr[4];\u000au3(0.897099235525085,0.0,0.0) main_qr[4];\u000ameasure main_qr[3] -> main_cr[3];\u000au3(0.91106186954104,0.0,0.0) main_qr[2];\u000acx main_qr[4],main_qr[2];\u000ameasure main_qr[4] -> main_cr[4];\u000ameasure main_qr[2] -> main_cr[2];\u000a
p92
sg10
(lp93
F0.3004309051007245
aF0.3372733596244455
aF0.4462624355773531
aF0.5537375644226469
aF0.6627266403755545
aF0.6995690948992754
asg12
(dp94
g14
L174L
sg15
L79L
sg16
L280L
sg17
L819L
sg18
L140L
sg19
L90L
sg20
L230L
sg21
L236L
ssg22
(dp95
g14
L285L
sg15
L246L
sg16
L227L
sg17
L207L
sg18
L208L
sg19
L327L
sg20
L368L
sg21
L180L
ssa(dp96
g2
(lp97
F1.497492498211135
aF1.497492498211135
aF0.090757121103705
aF1.148426647812269
aF0.041887902047864
aF0.471238898038469
asg4
(lp98
F0.45549941125850885
aF0.473271010824621
aF0.47718587946279845
aF0.5228141205372016
aF0.526728989175379
aF0.5445005887414911
asg6
V\u000ainclude "qelib1.inc";\u000aqreg err_qr[5];\u000acreg err_cr[5];\u000au3(1.497492498211135,0.0,0.0) err_qr[4];\u000au3(1.497492498211135,0.0,0.0) err_qr[3];\u000au3(0.090757121103705,0.0,0.0) err_qr[2];\u000acx err_qr[3],err_qr[2];\u000au3(1.148426647812269,0.0,0.0) err_qr[3];\u000acx err_qr[3],err_qr[4];\u000au3(0.041887902047864,0.0,0.0) err_qr[4];\u000au3(-1.570796326794897,0.0,0.0) err_qr[3];\u000ameasure err_qr[3] -> err_cr[3];\u000au3(0.471238898038469,0.0,0.0) err_qr[2];\u000acx err_qr[4],err_qr[2];\u000au3(1.570796326794897,0.0,0.0) err_qr[4];\u000ameasure err_qr[4] -> err_cr[4];\u000au3(1.570796326794897,0.0,0.0) err_qr[2];\u000ameasure err_qr[2] -> err_cr[2];\u000a
p99
sg8
V\u000ainclude "qelib1.inc";\u000aqreg main_qr[5];\u000acreg main_cr[5];\u000au3(1.497492498211135,0.0,0.0) main_qr[4];\u000au3(1.497492498211135,0.0,0.0) main_qr[3];\u000au3(0.090757121103705,0.0,0.0) main_qr[2];\u000acx main_qr[3],main_qr[2];\u000au3(1.148426647812269,0.0,0.0) main_qr[3];\u000acx main_qr[3],main_qr[4];\u000au3(0.041887902047864,0.0,0.0) main_qr[4];\u000ameasure main_qr[3] -> main_cr[3];\u000au3(0.471238898038469,0.0,0.0) main_qr[2];\u000acx main_qr[4],main_qr[2];\u000ameasure main_qr[4] -> main_cr[4];\u000ameasure main_qr[2] -> main_cr[2];\u000a
p100
sg10
(lp101
F0.39004994746092786
aF0.4386356533618252
aF0.46309355960801385
aF0.5369064403919861
aF0.5613643466381748
aF0.6099500525390722
asg12
(dp102
g14
L166L
sg15
L88L
sg16
L145L
sg17
L648L
sg18
L320L
sg19
L81L
sg20
L183L
sg21
L417L
ssg22
(dp103
g14
L635L
sg15
L284L
sg16
L103L
sg17
L226L
sg18
L128L
sg19
L331L
sg20
L296L
sg21
L45L
ssa(dp104
g2
(lp105
F1.040216234188621
aF1.214749159388053
aF0.115191730631626
aF0.904080552533063
aF0.740019602845596
aF0.331612557878923
asg4
(lp106
F-0.0032750834251866756
aF0.032118321086493706
aF0.2738613077825939
aF0.7261386922174061
aF0.9678816789135063
aF1.0032750834251867
asg6
V\u000ainclude "qelib1.inc";\u000aqreg err_qr[5];\u000acreg err_cr[5];\u000au3(1.040216234188621,0.0,0.0) err_qr[4];\u000au3(1.214749159388053,0.0,0.0) err_qr[3];\u000au3(0.115191730631626,0.0,0.0) err_qr[2];\u000acx err_qr[3],err_qr[2];\u000au3(0.904080552533063,0.0,0.0) err_qr[3];\u000acx err_qr[3],err_qr[4];\u000au3(0.740019602845596,0.0,0.0) err_qr[4];\u000au3(-1.570796326794897,0.0,0.0) err_qr[3];\u000ameasure err_qr[3] -> err_cr[3];\u000au3(0.331612557878923,0.0,0.0) err_qr[2];\u000acx err_qr[4],err_qr[2];\u000au3(1.570796326794897,0.0,0.0) err_qr[4];\u000ameasure err_qr[4] -> err_cr[4];\u000au3(1.570796326794897,0.0,0.0) err_qr[2];\u000ameasure err_qr[2] -> err_cr[2];\u000a
p107
sg8
V\u000ainclude "qelib1.inc";\u000aqreg main_qr[5];\u000acreg main_cr[5];\u000au3(1.040216234188621,0.0,0.0) main_qr[4];\u000au3(1.214749159388053,0.0,0.0) main_qr[3];\u000au3(0.115191730631626,0.0,0.0) main_qr[2];\u000acx main_qr[3],main_qr[2];\u000au3(0.904080552533063,0.0,0.0) main_qr[3];\u000acx main_qr[3],main_qr[4];\u000au3(0.740019602845596,0.0,0.0) main_qr[4];\u000ameasure main_qr[3] -> main_cr[3];\u000au3(0.331612557878923,0.0,0.0) main_qr[2];\u000acx main_qr[4],main_qr[2];\u000ameasure main_qr[4] -> main_cr[4];\u000ameasure main_qr[2] -> main_cr[2];\u000a
p108
sg10
(lp109
F0.24690917445924598
aF0.29509749893515946
aF0.42177435681810793
aF0.5782256431818921
aF0.7049025010648404
aF0.753090825540754
asg12
(dp110
g14
L289L
sg15
L63L
sg16
L267L
sg17
L634L
sg18
L84L
sg19
L114L
sg20
L336L
sg21
L261L
ssg22
(dp111
g14
L261L
sg15
L180L
sg16
L69L
sg17
L49L
sg18
L174L
sg19
L526L
sg20
L643L
sg21
L146L
ssa(dp112
g2
(lp113
F0.146607657167524
aF0.774926187885482
aF0.638790506229925
aF0.830776723949301
aF1.075122819228507
aF1.480039205691191
asg4
(lp114
F0.1707081291266532
aF0.23426159758323717
aF0.3682073107584485
aF0.6317926892415515
aF0.7657384024167626
aF0.8292918708733468
asg6
V\u000ainclude "qelib1.inc";\u000aqreg err_qr[5];\u000acreg err_cr[5];\u000au3(0.146607657167524,0.0,0.0) err_qr[4];\u000au3(0.774926187885482,0.0,0.0) err_qr[3];\u000au3(0.638790506229925,0.0,0.0) err_qr[2];\u000acx err_qr[3],err_qr[2];\u000au3(0.830776723949301,0.0,0.0) err_qr[3];\u000acx err_qr[3],err_qr[4];\u000au3(1.075122819228507,0.0,0.0) err_qr[4];\u000au3(-1.570796326794897,0.0,0.0) err_qr[3];\u000ameasure err_qr[3] -> err_cr[3];\u000au3(1.480039205691191,0.0,0.0) err_qr[2];\u000acx err_qr[4],err_qr[2];\u000au3(1.570796326794897,0.0,0.0) err_qr[4];\u000ameasure err_qr[4] -> err_cr[4];\u000au3(1.570796326794897,0.0,0.0) err_qr[2];\u000ameasure err_qr[2] -> err_cr[2];\u000a
p115
sg8
V\u000ainclude "qelib1.inc";\u000aqreg main_qr[5];\u000acreg main_cr[5];\u000au3(0.146607657167524,0.0,0.0) main_qr[4];\u000au3(0.774926187885482,0.0,0.0) main_qr[3];\u000au3(0.638790506229925,0.0,0.0) main_qr[2];\u000acx main_qr[3],main_qr[2];\u000au3(0.830776723949301,0.0,0.0) main_qr[3];\u000acx main_qr[3],main_qr[4];\u000au3(1.075122819228507,0.0,0.0) main_qr[4];\u000ameasure main_qr[3] -> main_cr[3];\u000au3(1.480039205691191,0.0,0.0) main_qr[2];\u000acx main_qr[4],main_qr[2];\u000ameasure main_qr[4] -> main_cr[4];\u000ameasure main_qr[2] -> main_cr[2];\u000a
p116
sg10
(lp117
F0.25154927606809024
aF0.30966298328585523
aF0.4286574472936372
aF0.5713425527063628
aF0.6903370167141447
aF0.7484507239319098
asg12
(dp118
g14
L192L
sg15
L69L
sg16
L381L
sg17
L686L
sg18
L160L
sg19
L61L
sg20
L189L
sg21
L310L
ssg22
(dp119
g14
L149L
sg15
L84L
sg16
L285L
sg17
L262L
sg18
L203L
sg19
L337L
sg20
L556L
sg21
L172L
ssa(dp120
g2
(lp121
F0.108210413623648
aF0.240855436775217
aF1.560324351282931
aF1.403244718603441
aF0.139626340159546
aF1.340412865531645
asg4
(lp122
F0.3734933546789656
aF0.4348784740761984
aF0.4548971784974176
aF0.5451028215025824
aF0.5651215259238016
aF0.6265066453210344
asg6
V\u000ainclude "qelib1.inc";\u000aqreg err_qr[5];\u000acreg err_cr[5];\u000au3(0.108210413623648,0.0,0.0) err_qr[4];\u000au3(0.240855436775217,0.0,0.0) err_qr[3];\u000au3(1.560324351282931,0.0,0.0) err_qr[2];\u000acx err_qr[3],err_qr[2];\u000au3(1.403244718603441,0.0,0.0) err_qr[3];\u000acx err_qr[3],err_qr[4];\u000au3(0.139626340159546,0.0,0.0) err_qr[4];\u000au3(-1.570796326794897,0.0,0.0) err_qr[3];\u000ameasure err_qr[3] -> err_cr[3];\u000au3(1.340412865531645,0.0,0.0) err_qr[2];\u000acx err_qr[4],err_qr[2];\u000au3(1.570796326794897,0.0,0.0) err_qr[4];\u000ameasure err_qr[4] -> err_cr[4];\u000au3(1.570796326794897,0.0,0.0) err_qr[2];\u000ameasure err_qr[2] -> err_cr[2];\u000a
p123
sg8
V\u000ainclude "qelib1.inc";\u000aqreg main_qr[5];\u000acreg main_cr[5];\u000au3(0.108210413623648,0.0,0.0) main_qr[4];\u000au3(0.240855436775217,0.0,0.0) main_qr[3];\u000au3(1.560324351282931,0.0,0.0) main_qr[2];\u000acx main_qr[3],main_qr[2];\u000au3(1.403244718603441,0.0,0.0) main_qr[3];\u000acx main_qr[3],main_qr[4];\u000au3(0.139626340159546,0.0,0.0) main_qr[4];\u000ameasure main_qr[3] -> main_cr[3];\u000au3(1.340412865531645,0.0,0.0) main_qr[2];\u000acx main_qr[4],main_qr[2];\u000ameasure main_qr[4] -> main_cr[4];\u000ameasure main_qr[2] -> main_cr[2];\u000a
p124
sg10
(lp125
F0.3242017966074737
aF0.39564708829225337
aF0.39596973448761114
aF0.6040302655123889
aF0.6043529117077466
aF0.6757982033925263
asg12
(dp126
g14
L98L
sg15
L64L
sg16
L142L
sg17
L932L
sg18
L81L
sg19
L92L
sg20
L22L
sg21
L617L
ssg22
(dp127
g14
L595L
sg15
L243L
sg16
L169L
sg17
L308L
sg18
L212L
sg19
L104L
sg20
L307L
sg21
L110L
ssa(dp128
g2
(lp129
F0.293215314335047
aF1.521927107739055
aF0.003490658503989
aF1.560324351282931
aF0.991347015132779
aF0.820304748437335
asg4
(lp130
F0.1211196643506266
aF0.37597607938113176
aF0.37829470443211977
aF0.6217052955678801
aF0.6240239206188681
aF0.8788803356493734
asg6
V\u000ainclude "qelib1.inc";\u000aqreg err_qr[5];\u000acreg err_cr[5];\u000au3(0.293215314335047,0.0,0.0) err_qr[4];\u000au3(1.521927107739055,0.0,0.0) err_qr[3];\u000au3(0.003490658503989,0.0,0.0) err_qr[2];\u000acx err_qr[3],err_qr[2];\u000au3(1.560324351282931,0.0,0.0) err_qr[3];\u000acx err_qr[3],err_qr[4];\u000au3(0.991347015132779,0.0,0.0) err_qr[4];\u000au3(-1.570796326794897,0.0,0.0) err_qr[3];\u000ameasure err_qr[3] -> err_cr[3];\u000au3(0.820304748437335,0.0,0.0) err_qr[2];\u000acx err_qr[4],err_qr[2];\u000au3(1.570796326794897,0.0,0.0) err_qr[4];\u000ameasure err_qr[4] -> err_cr[4];\u000au3(1.570796326794897,0.0,0.0) err_qr[2];\u000ameasure err_qr[2] -> err_cr[2];\u000a
p131
sg8
V\u000ainclude "qelib1.inc";\u000aqreg main_qr[5];\u000acreg main_cr[5];\u000au3(0.293215314335047,0.0,0.0) main_qr[4];\u000au3(1.521927107739055,0.0,0.0) main_qr[3];\u000au3(0.003490658503989,0.0,0.0) main_qr[2];\u000acx main_qr[3],main_qr[2];\u000au3(1.560324351282931,0.0,0.0) main_qr[3];\u000acx main_qr[3],main_qr[4];\u000au3(0.991347015132779,0.0,0.0) main_qr[4];\u000ameasure main_qr[3] -> main_cr[3];\u000au3(0.820304748437335,0.0,0.0) main_qr[2];\u000acx main_qr[4],main_qr[2];\u000ameasure main_qr[4] -> main_cr[4];\u000ameasure main_qr[2] -> main_cr[2];\u000a
p132
sg10
(lp133
F0.20640529110970188
aF0.2922049164003429
aF0.43335005652050174
aF0.5666499434794983
aF0.707795083599657
aF0.7935947088902982
asg12
(dp134
g14
L404L
sg15
L92L
sg16
L174L
sg17
L868L
sg18
L52L
sg19
L146L
sg20
L244L
sg21
L68L
ssg22
(dp135
g14
L151L
sg15
L339L
sg16
L104L
sg17
L118L
sg18
L387L
sg19
L154L
sg20
L527L
sg21
L268L
ssa(dp136
g2
(lp137
F0.352556508902855
aF1.148426647812269
aF0.715584993317675
aF0.740019602845596
aF0.527089434102287
aF0.0
asg4
(lp138
F0.24144891443275665
aF0.3245162609100205
aF0.37168440533590624
aF0.6283155946640938
aF0.6754837390899795
aF0.7585510855672433
asg6
V\u000ainclude "qelib1.inc";\u000aqreg err_qr[5];\u000acreg err_cr[5];\u000au3(0.352556508902855,0.0,0.0) err_qr[4];\u000au3(1.148426647812269,0.0,0.0) err_qr[3];\u000au3(0.715584993317675,0.0,0.0) err_qr[2];\u000acx err_qr[3],err_qr[2];\u000au3(0.740019602845596,0.0,0.0) err_qr[3];\u000acx err_qr[3],err_qr[4];\u000au3(0.527089434102287,0.0,0.0) err_qr[4];\u000au3(-1.570796326794897,0.0,0.0) err_qr[3];\u000ameasure err_qr[3] -> err_cr[3];\u000au3(0.0,0.0,0.0) err_qr[2];\u000acx err_qr[4],err_qr[2];\u000au3(1.570796326794897,0.0,0.0) err_qr[4];\u000ameasure err_qr[4] -> err_cr[4];\u000au3(1.570796326794897,0.0,0.0) err_qr[2];\u000ameasure err_qr[2] -> err_cr[2];\u000a
p139
sg8
V\u000ainclude "qelib1.inc";\u000aqreg main_qr[5];\u000acreg main_cr[5];\u000au3(0.352556508902855,0.0,0.0) main_qr[4];\u000au3(1.148426647812269,0.0,0.0) main_qr[3];\u000au3(0.715584993317675,0.0,0.0) main_qr[2];\u000acx main_qr[3],main_qr[2];\u000au3(0.740019602845596,0.0,0.0) main_qr[3];\u000acx main_qr[3],main_qr[4];\u000au3(0.527089434102287,0.0,0.0) main_qr[4];\u000ameasure main_qr[3] -> main_cr[3];\u000au3(0.0,0.0,0.0) main_qr[2];\u000acx main_qr[4],main_qr[2];\u000ameasure main_qr[4] -> main_cr[4];\u000ameasure main_qr[2] -> main_cr[2];\u000a
p140
sg10
(lp141
F0.12063029209666953
aF0.37665702479479946
aF0.3846281193155753
aF0.6153718806844245
aF0.6233429752052004
aF0.8793697079033304
asg12
(dp142
g14
L628L
sg15
L80L
sg16
L79L
sg17
L658L
sg18
L32L
sg19
L323L
sg20
L179L
sg21
L69L
ssg22
(dp143
g14
L147L
sg15
L127L
sg16
L56L
sg17
L41L
sg18
L427L
sg19
L186L
sg20
L839L
sg21
L225L
ssa.