(dp0
Vqubits
p1
(lp2
(dp3
VreadoutError
p4
(dp5
Vvalue
p6
F0.064
sVdate
p7
V2018-08-21T09:58:00Z
p8
ssVname
p9
VQ0
p10
sVgateError
p11
(dp12
g6
F0.0007726307293453583
sg7
V2018-08-21T09:58:00Z
p13
ssa(dp14
g4
(dp15
g6
F0.065
sg7
V2018-08-21T09:58:00Z
p16
ssg9
VQ1
p17
sg11
(dp18
g6
F0.001803112096824766
sg7
V2018-08-21T09:58:00Z
p19
ssa(dp20
g4
(dp21
g6
F0.016
sg7
V2018-08-21T09:58:00Z
p22
ssg9
VQ2
p23
sg11
(dp24
g6
F0.0010302181416348977
sg7
V2018-08-21T09:58:00Z
p25
ssa(dp26
g4
(dp27
g6
F0.038
sg7
V2018-08-21T09:58:00Z
p28
ssg9
VQ3
p29
sg11
(dp30
g6
F0.0014595792651160289
sg7
V2018-08-21T09:58:00Z
p31
ssa(dp32
g4
(dp33
g6
F0.045
sg7
V2018-08-21T09:58:00Z
p34
ssg9
VQ4
p35
sg11
(dp36
g6
F0.0013737021608475342
sg7
V2018-08-21T09:58:00Z
p37
ssasVbackend
p38
Vibmq_5_tenerife
p39
sVlast_update_date
p40
V2018-08-21T09:58:00.000Z
p41
sVmulti_qubit_gates
p42
(lp43
(dp44
g9
VCX1_0
p45
sVtype
p46
VCX
p47
sVqubits
p48
(lp49
L1L
aL0L
asg11
(dp50
g6
F0.02921980791296222
sg7
V2018-08-21T09:58:00Z
p51
ssa(dp52
g9
VCX2_0
p53
sg46
VCX
p54
sg48
(lp55
L2L
aL0L
asg11
(dp56
g6
F0.03051247405186558
sg7
V2018-08-21T09:58:00Z
p57
ssa(dp58
g9
VCX2_1
p59
sg46
VCX
p60
sg48
(lp61
L2L
aL1L
asg11
(dp62
g6
F0.029900013885674814
sg7
V2018-08-21T09:58:00Z
p63
ssa(dp64
g9
VCX3_2
p65
sg46
VCX
p66
sg48
(lp67
L3L
aL2L
asg11
(dp68
g6
F0.0432977105493699
sg7
V2018-08-21T09:58:00Z
p69
ssa(dp70
g9
VCX3_4
p71
sg46
VCX
p72
sg48
(lp73
L3L
aL4L
asg11
(dp74
g6
F0.03685658121032315
sg7
V2018-08-21T09:58:00Z
p75
ssa(dp76
g9
VCX4_2
p77
sg46
VCX
p78
sg48
(lp79
L4L
aL2L
asg11
(dp80
g6
F0.04384724580129881
sg7
V2018-08-21T09:58:00Z
p81
ssas.