(dp0
Vmulti_qubit_gates
p1
(lp2
(dp3
Vname
p4
VCX1_0
p5
sVgateError
p6
(dp7
Vvalue
p8
F0.024602884224917937
sVdate
p9
V2018-08-28T02:09:17Z
p10
ssVqubits
p11
(lp12
L1L
aL0L
asVtype
p13
VCX
p14
sa(dp15
g4
VCX2_0
p16
sg6
(dp17
g8
F0.0248740607207448
sg9
V2018-08-28T02:09:17Z
p18
ssg11
(lp19
L2L
aL0L
asg13
VCX
p20
sa(dp21
g4
VCX2_1
p22
sg6
(dp23
g8
F0.032692225330089614
sg9
V2018-08-28T02:09:17Z
p24
ssg11
(lp25
L2L
aL1L
asg13
VCX
p26
sa(dp27
g4
VCX3_2
p28
sg6
(dp29
g8
F0.06572850284017925
sg9
V2018-08-28T02:09:17Z
p30
ssg11
(lp31
L3L
aL2L
asg13
VCX
p32
sa(dp33
g4
VCX3_4
p34
sg6
(dp35
g8
F0.03658313664371693
sg9
V2018-08-28T02:09:17Z
p36
ssg11
(lp37
L3L
aL4L
asg13
VCX
p38
sa(dp39
g4
VCX4_2
p40
sg6
(dp41
g8
F0.04776889594502376
sg9
V2018-08-28T02:09:17Z
p42
ssg11
(lp43
L4L
aL2L
asg13
VCX
p44
sasVqubits
p45
(lp46
(dp47
g4
VQ0
p48
sg6
(dp49
g8
F0.000858490762927322
sg9
V2018-08-28T02:09:17Z
p50
ssVreadoutError
p51
(dp52
g8
F0.056
sg9
V2018-08-28T02:09:17Z
p53
ssa(dp54
g4
VQ1
p55
sg6
(dp56
g8
F0.0017172252255832077
sg9
V2018-08-28T02:09:17Z
p57
ssg51
(dp58
g8
F0.043
sg9
V2018-08-28T02:09:17Z
p59
ssa(dp60
g4
VQ2
p61
sg6
(dp62
g8
F0.0010302181416348977
sg9
V2018-08-28T02:09:17Z
p63
ssg51
(dp64
g8
F0.018
sg9
V2018-08-28T02:09:17Z
p65
ssa(dp66
g4
VQ3
p67
sg6
(dp68
g8
F0.001631340796924452
sg9
V2018-08-28T02:09:17Z
p69
ssg51
(dp70
g8
F0.033
sg9
V2018-08-28T02:09:17Z
p71
ssa(dp72
g4
VQ4
p73
sg6
(dp74
g8
F0.0012019552727863259
sg9
V2018-08-28T02:09:17Z
p75
ssg51
(dp76
g8
F0.219
sg9
V2018-08-28T02:09:17Z
p77
ssasVbackend
p78
Vibmq_5_tenerife
p79
sVlast_update_date
p80
V2018-08-28T02:09:17.000Z
p81
s.