(dp0
Vqubits
p1
(lp2
(dp3
Vname
p4
VQ0
p5
sVgateError
p6
(dp7
Vvalue
p8
F0.0010302181416348977
sVdate
p9
V2018-08-15T09:55:35Z
p10
ssVreadoutError
p11
(dp12
g8
F0.066
sg9
V2018-08-15T09:55:35Z
p13
ssa(dp14
g4
VQ1
p15
sg6
(dp16
g8
F0.0021466840188233416
sg9
V2018-08-15T09:55:35Z
p17
ssg11
(dp18
g8
F0.053
sg9
V2018-08-15T09:55:35Z
p19
ssa(dp20
g4
VQ2
p21
sg6
(dp22
g8
F0.001803112096824766
sg9
V2018-08-15T09:55:35Z
p23
ssg11
(dp24
g8
F0.025
sg9
V2018-08-15T09:55:35Z
p25
ssa(dp26
g4
VQ3
p27
sg6
(dp28
g8
F0.001631340796924452
sg9
V2018-08-15T09:55:35Z
p29
ssg11
(dp30
g8
F0.015
sg9
V2018-08-15T09:55:35Z
p31
ssa(dp32
g4
VQ4
p33
sg6
(dp34
g8
F0.0010302181416348977
sg9
V2018-08-15T09:55:35Z
p35
ssg11
(dp36
g8
F0.04
sg9
V2018-08-15T09:55:35Z
p37
ssasVlast_update_date
p38
V2018-08-15T09:55:35.000Z
p39
sVbackend
p40
Vibmqx4
p41
sVmulti_qubit_gates
p42
(lp43
(dp44
Vtype
p45
VCX
p46
sg6
(dp47
g8
F0.02799624518850735
sg9
V2018-08-15T09:55:35Z
p48
ssVqubits
p49
(lp50
L1L
aL0L
asg4
VCX1_0
p51
sa(dp52
g45
VCX
p53
sg6
(dp54
g8
F0.035968077873487964
sg9
V2018-08-15T09:55:35Z
p55
ssg49
(lp56
L2L
aL0L
asg4
VCX2_0
p57
sa(dp58
g45
VCX
p59
sg6
(dp60
g8
F0.03815615964441474
sg9
V2018-08-15T09:55:35Z
p61
ssg49
(lp62
L2L
aL1L
asg4
VCX2_1
p63
sa(dp64
g45
VCX
p65
sg6
(dp66
g8
F0.07518358353339769
sg9
V2018-08-15T09:55:35Z
p67
ssg49
(lp68
L3L
aL2L
asg4
VCX3_2
p69
sa(dp70
g45
VCX
p71
sg6
(dp72
g8
F0.04185619582131905
sg9
V2018-08-15T09:55:35Z
p73
ssg49
(lp74
L3L
aL4L
asg4
VCX3_4
p75
sa(dp76
g45
VCX
p77
sg6
(dp78
g8
F0.0736382552037694
sg9
V2018-08-15T09:55:35Z
p79
ssg49
(lp80
L4L
aL2L
asg4
VCX4_2
p81
sas.