(dp0
Vmulti_qubit_gates
p1
(lp2
(dp3
Vtype
p4
VCX
p5
sVgateError
p6
(dp7
Vvalue
p8
F0.03201069768914974
sVdate
p9
V2018-08-11T09:59:16Z
p10
ssVname
p11
VCX1_0
p12
sVqubits
p13
(lp14
L1L
aL0L
asa(dp15
g4
VCX
p16
sg6
(dp17
g8
F0.029968052150636026
sg9
V2018-08-11T09:59:16Z
p18
ssg11
VCX2_0
p19
sg13
(lp20
L2L
aL0L
asa(dp21
g4
VCX
p22
sg6
(dp23
g8
F0.04274838887512861
sg9
V2018-08-11T09:59:16Z
p24
ssg11
VCX2_1
p25
sg13
(lp26
L2L
aL1L
asa(dp27
g4
VCX
p28
sg6
(dp29
g8
F0.07511330296816435
sg9
V2018-08-11T09:59:16Z
p30
ssg11
VCX3_2
p31
sg13
(lp32
L3L
aL2L
asa(dp33
g4
VCX
p34
sg6
(dp35
g8
F0.043160360120871516
sg9
V2018-08-11T09:59:16Z
p36
ssg11
VCX3_4
p37
sg13
(lp38
L3L
aL4L
asa(dp39
g4
VCX
p40
sg6
(dp41
g8
F0.05225436125634389
sg9
V2018-08-11T09:59:16Z
p42
ssg11
VCX4_2
p43
sg13
(lp44
L4L
aL2L
asasVbackend
p45
Vibmqx4
p46
sVlast_update_date
p47
V2018-08-11T09:59:16.000Z
p48
sVqubits
p49
(lp50
(dp51
g6
(dp52
g8
F0.0007726307293453583
sg9
V2018-08-11T09:59:16Z
p53
ssg11
VQ0
p54
sVreadoutError
p55
(dp56
g8
F0.073
sg9
V2018-08-11T09:59:16Z
p57
ssa(dp58
g6
(dp59
g8
F0.001803112096824766
sg9
V2018-08-11T09:59:16Z
p60
ssg11
VQ1
p61
sg55
(dp62
g8
F0.059
sg9
V2018-08-11T09:59:16Z
p63
ssa(dp64
g6
(dp65
g8
F0.00128782749692391
sg9
V2018-08-11T09:59:16Z
p66
ssg11
VQ2
p67
sg55
(dp68
g8
F0.021
sg9
V2018-08-11T09:59:16Z
p69
ssa(dp70
g6
(dp71
g8
F0.001631340796924452
sg9
V2018-08-11T09:59:16Z
p72
ssg11
VQ3
p73
sg55
(dp74
g8
F0.013
sg9
V2018-08-11T09:59:16Z
p75
ssa(dp76
g6
(dp77
g8
F0.0011160854878761173
sg9
V2018-08-11T09:59:16Z
p78
ssg11
VQ4
p79
sg55
(dp80
g8
F0.046
sg9
V2018-08-11T09:59:16Z
p81
ssas.