(dp0
Vlast_update_date
p1
V2018-08-23T09:55:11.000Z
p2
sVbackend
p3
Vibmq_5_tenerife
p4
sVmulti_qubit_gates
p5
(lp6
(dp7
Vname
p8
VCX1_0
p9
sVgateError
p10
(dp11
Vdate
p12
V2018-08-23T09:55:11Z
p13
sVvalue
p14
F0.03747202325920268
ssVtype
p15
VCX
p16
sVqubits
p17
(lp18
L1L
aL0L
asa(dp19
g8
VCX2_0
p20
sg10
(dp21
g12
V2018-08-23T09:55:11Z
p22
sg14
F0.027452772251052526
ssg15
VCX
p23
sg17
(lp24
L2L
aL0L
asa(dp25
g8
VCX2_1
p26
sg10
(dp27
g12
V2018-08-23T09:55:11Z
p28
sg14
F0.04274838887512861
ssg15
VCX
p29
sg17
(lp30
L2L
aL1L
asa(dp31
g8
VCX3_2
p32
sg10
(dp33
g12
V2018-08-23T09:55:11Z
p34
sg14
F0.06957263924306073
ssg15
VCX
p35
sg17
(lp36
L3L
aL2L
asa(dp37
g8
VCX3_4
p38
sg10
(dp39
g12
V2018-08-23T09:55:11Z
p40
sg14
F0.04508448273551327
ssg15
VCX
p41
sg17
(lp42
L3L
aL4L
asa(dp43
g8
VCX4_2
p44
sg10
(dp45
g12
V2018-08-23T09:55:11Z
p46
sg14
F0.04632280639658273
ssg15
VCX
p47
sg17
(lp48
L4L
aL2L
asasVqubits
p49
(lp50
(dp51
g8
VQ0
p52
sg10
(dp53
g12
V2018-08-23T09:55:11Z
p54
sg14
F0.0010302181416348977
ssVreadoutError
p55
(dp56
g12
V2018-08-23T09:55:11Z
p57
sg14
F0.074
ssa(dp58
g8
VQ1
p59
sg10
(dp60
g12
V2018-08-23T09:55:11Z
p61
sg14
F0.0023184846498922607
ssg55
(dp62
g12
V2018-08-23T09:55:11Z
p63
sg14
F0.075
ssa(dp64
g8
VQ2
p65
sg10
(dp66
g12
V2018-08-23T09:55:11Z
p67
sg14
F0.0012019552727863259
ssg55
(dp68
g12
V2018-08-23T09:55:11Z
p69
sg14
F0.019
ssa(dp70
g8
VQ3
p71
sg10
(dp72
g12
V2018-08-23T09:55:11Z
p73
sg14
F0.001631340796924452
ssg55
(dp74
g12
V2018-08-23T09:55:11Z
p75
sg14
F0.013
ssa(dp76
g8
VQ4
p77
sg10
(dp78
g12
V2018-08-23T09:55:11Z
p79
sg14
F0.00128782749692391
ssg55
(dp80
g12
V2018-08-23T09:55:11Z
p81
sg14
F0.037
ssas.