(dp0
Vbackend
p1
Vibmq_5_tenerife
p2
sVmulti_qubit_gates
p3
(lp4
(dp5
Vname
p6
VCX1_0
p7
sVqubits
p8
(lp9
L1L
aL0L
asVtype
p10
VCX
p11
sVgateError
p12
(dp13
Vvalue
p14
F0.031193291229275444
sVdate
p15
V2018-09-08T10:00:30Z
p16
ssa(dp17
g6
VCX2_0
p18
sg8
(lp19
L2L
aL0L
asg10
VCX
p20
sg12
(dp21
g14
F0.02752069518855474
sg15
V2018-09-08T10:00:30Z
p22
ssa(dp23
g6
VCX2_1
p24
sg8
(lp25
L2L
aL1L
asg10
VCX
p26
sg12
(dp27
g14
F0.035831434121722544
sg15
V2018-09-08T10:00:30Z
p28
ssa(dp29
g6
VCX3_2
p30
sg8
(lp31
L3L
aL2L
asg10
VCX
p32
sg12
(dp33
g14
F0.05370659397096633
sg15
V2018-09-08T10:00:30Z
p34
ssa(dp35
g6
VCX3_4
p36
sg8
(lp37
L3L
aL4L
asg10
VCX
p38
sg12
(dp39
g14
F0.03897755752601634
sg15
V2018-09-08T10:00:30Z
p40
ssa(dp41
g6
VCX4_2
p42
sg8
(lp43
L4L
aL2L
asg10
VCX
p44
sg12
(dp45
g14
F0.042611091789197836
sg15
V2018-09-08T10:00:30Z
p46
ssasVlast_update_date
p47
V2018-09-08T10:00:30.000Z
p48
sVqubits
p49
(lp50
(dp51
g6
VQ0
p52
sVreadoutError
p53
(dp54
g14
F0.063
sg15
V2018-09-08T10:00:30Z
p55
ssg12
(dp56
g14
F0.0009443532335046134
sg15
V2018-09-08T10:00:30Z
p57
ssa(dp58
g6
VQ1
p59
sg53
(dp60
g14
F0.069
sg15
V2018-09-08T10:00:30Z
p61
ssg12
(dp62
g14
F0.00128782749692391
sg15
V2018-09-08T10:00:30Z
p63
ssa(dp64
g6
VQ2
p65
sg53
(dp66
g14
F0.022
sg15
V2018-09-08T10:00:30Z
p67
ssg12
(dp68
g14
F0.000858490762927322
sg15
V2018-09-08T10:00:30Z
p69
ssa(dp70
g6
VQ3
p71
sg53
(dp72
g14
F0.124
sg15
V2018-09-08T10:00:30Z
p73
ssg12
(dp74
g14
F0.0012019552727863259
sg15
V2018-09-08T10:00:30Z
p75
ssa(dp76
g6
VQ4
p77
sg53
(dp78
g14
F0.219
sg15
V2018-09-08T10:00:30Z
p79
ssg12
(dp80
g14
F0.000858490762927322
sg15
V2018-09-08T10:00:30Z
p81
ssas.