(dp0
Vlast_update_date
p1
V2018-08-19T09:59:59.000Z
p2
sVqubits
p3
(lp4
(dp5
VgateError
p6
(dp7
Vvalue
p8
F0.0006867731322012238
sVdate
p9
V2018-08-19T09:59:59Z
p10
ssVname
p11
VQ0
p12
sVreadoutError
p13
(dp14
g8
F0.057
sg9
V2018-08-19T09:59:59Z
p15
ssa(dp16
g6
(dp17
g8
F0.001631340796924452
sg9
V2018-08-19T09:59:59Z
p18
ssg11
VQ1
p19
sg13
(dp20
g8
F0.052
sg9
V2018-08-19T09:59:59Z
p21
ssa(dp22
g6
(dp23
g8
F0.0009443532335046134
sg9
V2018-08-19T09:59:59Z
p24
ssg11
VQ2
p25
sg13
(dp26
g8
F0.023
sg9
V2018-08-19T09:59:59Z
p27
ssa(dp28
g6
(dp29
g8
F0.001631340796924452
sg9
V2018-08-19T09:59:59Z
p30
ssg11
VQ3
p31
sg13
(dp32
g8
F0.022
sg9
V2018-08-19T09:59:59Z
p33
ssa(dp34
g6
(dp35
g8
F0.0012019552727863259
sg9
V2018-08-19T09:59:59Z
p36
ssg11
VQ4
p37
sg13
(dp38
g8
F0.044
sg9
V2018-08-19T09:59:59Z
p39
ssasVmulti_qubit_gates
p40
(lp41
(dp42
g6
(dp43
g8
F0.026502186054457033
sg9
V2018-08-19T09:59:59Z
p44
ssg11
VCX1_0
p45
sVtype
p46
VCX
p47
sVqubits
p48
(lp49
L1L
aL0L
asa(dp50
g6
(dp51
g8
F0.023992922342067957
sg9
V2018-08-19T09:59:59Z
p52
ssg11
VCX2_0
p53
sg46
VCX
p54
sg48
(lp55
L2L
aL0L
asa(dp56
g6
(dp57
g8
F0.03214697733326205
sg9
V2018-08-19T09:59:59Z
p58
ssg11
VCX2_1
p59
sg46
VCX
p60
sg48
(lp61
L2L
aL1L
asa(dp62
g6
(dp63
g8
F0.05793360477573106
sg9
V2018-08-19T09:59:59Z
p64
ssg11
VCX3_2
p65
sg46
VCX
p66
sg48
(lp67
L3L
aL2L
asa(dp68
g6
(dp69
g8
F0.04377854220342034
sg9
V2018-08-19T09:59:59Z
p70
ssg11
VCX3_4
p71
sg46
VCX
p72
sg48
(lp73
L3L
aL4L
asa(dp74
g6
(dp75
g8
F0.04219928044693247
sg9
V2018-08-19T09:59:59Z
p76
ssg11
VCX4_2
p77
sg46
VCX
p78
sg48
(lp79
L4L
aL2L
asasVbackend
p80
Vibmqx4
p81
s.