(dp0
Vqubits
p1
(lp2
(dp3
Vname
p4
VQ0
p5
sVgateError
p6
(dp7
Vdate
p8
V2018-08-25T09:58:20Z
p9
sVvalue
p10
F0.0009443532335046134
ssVreadoutError
p11
(dp12
g8
V2018-08-25T09:58:20Z
p13
sg10
F0.071
ssa(dp14
g4
VQ1
p15
sg6
(dp16
g8
V2018-08-25T09:58:20Z
p17
sg10
F0.001803112096824766
ssg11
(dp18
g8
V2018-08-25T09:58:20Z
p19
sg10
F0.054
ssa(dp20
g4
VQ2
p21
sg6
(dp22
g8
V2018-08-25T09:58:20Z
p23
sg10
F0.0009443532335046134
ssg11
(dp24
g8
V2018-08-25T09:58:20Z
p25
sg10
F0.017
ssa(dp26
g4
VQ3
p27
sg6
(dp28
g8
V2018-08-25T09:58:20Z
p29
sg10
F0.0014595792651160289
ssg11
(dp30
g8
V2018-08-25T09:58:20Z
p31
sg10
F0.032
ssa(dp32
g4
VQ4
p33
sg6
(dp34
g8
V2018-08-25T09:58:20Z
p35
sg10
F0.0014595792651160289
ssg11
(dp36
g8
V2018-08-25T09:58:20Z
p37
sg10
F0.205
ssasVbackend
p38
Vibmq_5_tenerife
p39
sVmulti_qubit_gates
p40
(lp41
(dp42
Vqubits
p43
(lp44
L1L
aL0L
asg4
VCX1_0
p45
sg6
(dp46
g8
V2018-08-25T09:58:20Z
p47
sg10
F0.02704530164528432
ssVtype
p48
VCX
p49
sa(dp50
g43
(lp51
L2L
aL0L
asg4
VCX2_0
p52
sg6
(dp53
g8
V2018-08-25T09:58:20Z
p54
sg10
F0.026230704694398893
ssg48
VCX
p55
sa(dp56
g43
(lp57
L2L
aL1L
asg4
VCX2_1
p58
sg6
(dp59
g8
V2018-08-25T09:58:20Z
p60
sg10
F0.03112519500594288
ssg48
VCX
p61
sa(dp62
g43
(lp63
L3L
aL2L
asg4
VCX3_2
p64
sg6
(dp65
g8
V2018-08-25T09:58:20Z
p66
sg10
F0.05723976902692429
ssg48
VCX
p67
sa(dp68
g43
(lp69
L3L
aL4L
asg4
VCX3_4
p70
sg6
(dp71
g8
V2018-08-25T09:58:20Z
p72
sg10
F0.041787588869506564
ssg48
VCX
p73
sa(dp74
g43
(lp75
L4L
aL2L
asg4
VCX4_2
p76
sg6
(dp77
g8
V2018-08-25T09:58:20Z
p78
sg10
F0.045359571722225156
ssg48
VCX
p79
sasVlast_update_date
p80
V2018-08-25T09:58:20.000Z
p81
s.