(dp0
Vqubits
p1
(lp2
(dp3
Vname
p4
VQ0
p5
sVreadoutError
p6
(dp7
Vvalue
p8
F0.077
sVdate
p9
V2018-08-14T09:55:11Z
p10
ssVgateError
p11
(dp12
g8
F0.0007726307293453583
sg9
V2018-08-14T09:55:11Z
p13
ssa(dp14
g4
VQ1
p15
sg6
(dp16
g8
F0.058
sg9
V2018-08-14T09:55:11Z
p17
ssg11
(dp18
g8
F0.0023184846498922607
sg9
V2018-08-14T09:55:11Z
p19
ssa(dp20
g4
VQ2
p21
sg6
(dp22
g8
F0.025
sg9
V2018-08-14T09:55:11Z
p23
ssg11
(dp24
g8
F0.0012019552727863259
sg9
V2018-08-14T09:55:11Z
p25
ssa(dp26
g4
VQ3
p27
sg6
(dp28
g8
F0.022
sg9
V2018-08-14T09:55:11Z
p29
ssg11
(dp30
g8
F0.0014595792651160289
sg9
V2018-08-14T09:55:11Z
p31
ssa(dp32
g4
VQ4
p33
sg6
(dp34
g8
F0.05
sg9
V2018-08-14T09:55:11Z
p35
ssg11
(dp36
g8
F0.0014595792651160289
sg9
V2018-08-14T09:55:11Z
p37
ssasVmulti_qubit_gates
p38
(lp39
(dp40
g4
VCX1_0
p41
sVqubits
p42
(lp43
L1L
aL0L
asg11
(dp44
g8
F0.030172186236362503
sg9
V2018-08-14T09:55:11Z
p45
ssVtype
p46
VCX
p47
sa(dp48
g4
VCX2_0
p49
sg46
VCX
p50
sg11
(dp51
g8
F0.03548988191679672
sg9
V2018-08-14T09:55:11Z
p52
ssg42
(lp53
L2L
aL0L
asa(dp54
g42
(lp55
L2L
aL1L
asg46
VCX
p56
sg4
VCX2_1
p57
sg11
(dp58
g8
F0.04185619582131905
sg9
V2018-08-14T09:55:11Z
p59
ssa(dp60
g42
(lp61
L3L
aL2L
asg46
VCX
p62
sg4
VCX3_2
p63
sg11
(dp64
g8
F0.06558891968955943
sg9
V2018-08-14T09:55:11Z
p65
ssa(dp66
g4
VCX3_4
p67
sg46
VCX
p68
sg11
(dp69
g8
F0.04570350848648097
sg9
V2018-08-14T09:55:11Z
p70
ssg42
(lp71
L3L
aL4L
asa(dp72
g42
(lp73
L4L
aL2L
asg46
VCX
p74
sg4
VCX4_2
p75
sg11
(dp76
g8
F0.06029525339607711
sg9
V2018-08-14T09:55:11Z
p77
ssasVbackend
p78
Vibmqx4
p79
sVlast_update_date
p80
V2018-08-14T09:55:11.000Z
p81
s.