(dp0
Vlast_update_date
p1
V2018-08-26T09:57:09.000Z
p2
sVqubits
p3
(lp4
(dp5
VreadoutError
p6
(dp7
Vdate
p8
V2018-08-26T09:57:09Z
p9
sVvalue
p10
F0.066
ssVgateError
p11
(dp12
g8
V2018-08-26T09:57:09Z
p13
sg10
F0.0012019552727863259
ssVname
p14
VQ0
p15
sa(dp16
g6
(dp17
g8
V2018-08-26T09:57:09Z
p18
sg10
F0.052
ssg11
(dp19
g8
V2018-08-26T09:57:09Z
p20
sg10
F0.001631340796924452
ssg14
VQ1
p21
sa(dp22
g6
(dp23
g8
V2018-08-26T09:57:09Z
p24
sg10
F0.018
ssg11
(dp25
g8
V2018-08-26T09:57:09Z
p26
sg10
F0.0009443532335046134
ssg14
VQ2
p27
sa(dp28
g6
(dp29
g8
V2018-08-26T09:57:09Z
p30
sg10
F0.024
ssg11
(dp31
g8
V2018-08-26T09:57:09Z
p32
sg10
F0.00128782749692391
ssg14
VQ3
p33
sa(dp34
g6
(dp35
g8
V2018-08-26T09:57:09Z
p36
sg10
F0.208
ssg11
(dp37
g8
V2018-08-26T09:57:09Z
p38
sg10
F0.001631340796924452
ssg14
VQ4
p39
sasVbackend
p40
Vibmq_5_tenerife
p41
sVmulti_qubit_gates
p42
(lp43
(dp44
g11
(dp45
g8
V2018-08-26T09:57:09Z
p46
sg10
F0.03289674675877163
ssVqubits
p47
(lp48
L1L
aL0L
asg14
VCX1_0
p49
sVtype
p50
VCX
p51
sa(dp52
g11
(dp53
g8
V2018-08-26T09:57:09Z
p54
sg10
F0.02860789684440007
ssg47
(lp55
L2L
aL0L
asg14
VCX2_0
p56
sg50
VCX
p57
sa(dp58
g11
(dp59
g8
V2018-08-26T09:57:09Z
p60
sg10
F0.034465714682663684
ssg47
(lp61
L2L
aL1L
asg14
VCX2_1
p62
sg50
VCX
p63
sa(dp64
g11
(dp65
g8
V2018-08-26T09:57:09Z
p66
sg10
F0.05080363825395476
ssg47
(lp67
L3L
aL2L
asg14
VCX3_2
p68
sg50
VCX
p69
sa(dp70
g11
(dp71
g8
V2018-08-26T09:57:09Z
p72
sg10
F0.04075888298430497
ssg47
(lp73
L3L
aL4L
asg14
VCX3_4
p74
sg50
VCX
p75
sa(dp76
g11
(dp77
g8
V2018-08-26T09:57:09Z
p78
sg10
F0.055506697498555635
ssg47
(lp79
L4L
aL2L
asg14
VCX4_2
p80
sg50
VCX
p81
sas.