(dp0
Vbackend
p1
Vibmq_5_tenerife
p2
sVlast_update_date
p3
V2018-09-01T10:02:06.000Z
p4
sVmulti_qubit_gates
p5
(lp6
(dp7
Vtype
p8
VCX
p9
sVname
p10
VCX1_0
p11
sVgateError
p12
(dp13
Vvalue
p14
F0.032487733054202855
sVdate
p15
V2018-09-01T10:02:06Z
p16
ssVqubits
p17
(lp18
L1L
aL0L
asa(dp19
g8
VCX
p20
sg10
VCX2_0
p21
sg12
(dp22
g14
F0.032624057999748685
sg15
V2018-09-01T10:02:06Z
p23
ssg17
(lp24
L2L
aL0L
asa(dp25
g8
VCX
p26
sg10
VCX2_1
p27
sg12
(dp28
g14
F0.034465714682663684
sg15
V2018-09-01T10:02:06Z
p29
ssg17
(lp30
L2L
aL1L
asa(dp31
g8
VCX
p32
sg10
VCX3_2
p33
sg12
(dp34
g14
F0.05932232091055542
sg15
V2018-09-01T10:02:06Z
p35
ssg17
(lp36
L3L
aL2L
asa(dp37
g8
VCX
p38
sg10
VCX3_4
p39
sg12
(dp40
g14
F0.07954815694524617
sg15
V2018-09-01T10:02:06Z
p41
ssg17
(lp42
L3L
aL4L
asa(dp43
g8
VCX
p44
sg10
VCX4_2
p45
sg12
(dp46
g14
F0.07223494165478303
sg15
V2018-09-01T10:02:06Z
p47
ssg17
(lp48
L4L
aL2L
asasVqubits
p49
(lp50
(dp51
VreadoutError
p52
(dp53
g14
F0.087
sg15
V2018-09-01T10:02:06Z
p54
ssg12
(dp55
g14
F0.000858490762927322
sg15
V2018-09-01T10:02:06Z
p56
ssg10
VQ0
p57
sa(dp58
g52
(dp59
g14
F0.075
sg15
V2018-09-01T10:02:06Z
p60
ssg12
(dp61
g14
F0.0012019552727863259
sg15
V2018-09-01T10:02:06Z
p62
ssg10
VQ1
p63
sa(dp64
g52
(dp65
g14
F0.019
sg15
V2018-09-01T10:02:06Z
p66
ssg12
(dp67
g14
F0.000858490762927322
sg15
V2018-09-01T10:02:06Z
p68
ssg10
VQ2
p69
sa(dp70
g52
(dp71
g14
F0.081
sg15
V2018-09-01T10:02:06Z
p72
ssg12
(dp73
g14
F0.0017172252255832077
sg15
V2018-09-01T10:02:06Z
p74
ssg10
VQ3
p75
sa(dp76
g52
(dp77
g14
F0.309
sg15
V2018-09-01T10:02:06Z
p78
ssg12
(dp79
g14
F0.0033494941004675316
sg15
V2018-09-01T10:02:06Z
p80
ssg10
VQ4
p81
sas.