(dp0
Vmulti_qubit_gates
p1
(lp2
(dp3
Vname
p4
VCX1_0
p5
sVtype
p6
VCX
p7
sVqubits
p8
(lp9
L1L
aL0L
asVgateError
p10
(dp11
Vdate
p12
V2018-09-07T10:05:48Z
p13
sVvalue
p14
F0.024670673596357773
ssa(dp15
g4
VCX2_0
p16
sg6
VCX
p17
sg8
(lp18
L2L
aL0L
asg10
(dp19
g12
V2018-09-07T10:05:48Z
p20
sg14
F0.021758583467822695
ssa(dp21
g4
VCX2_1
p22
sg6
VCX
p23
sg8
(lp24
L2L
aL1L
asg10
(dp25
g12
V2018-09-07T10:05:48Z
p26
sg14
F0.036036404652541876
ssa(dp27
g4
VCX3_2
p28
sg6
VCX
p29
sg8
(lp30
L3L
aL2L
asg10
(dp31
g12
V2018-09-07T10:05:48Z
p32
sg14
F0.06259131482776611
ssa(dp33
g4
VCX3_4
p34
sg6
VCX
p35
sg8
(lp36
L3L
aL4L
asg10
(dp37
g12
V2018-09-07T10:05:48Z
p38
sg14
F0.0432977105493699
ssa(dp39
g4
VCX4_2
p40
sg6
VCX
p41
sg8
(lp42
L4L
aL2L
asg10
(dp43
g12
V2018-09-07T10:05:48Z
p44
sg14
F0.07448094245401765
ssasVlast_update_date
p45
V2018-09-07T10:05:48.000Z
p46
sVqubits
p47
(lp48
(dp49
VreadoutError
p50
(dp51
g12
V2018-09-07T10:05:48Z
p52
sg14
F0.071
ssg4
VQ0
p53
sg10
(dp54
g12
V2018-09-07T10:05:48Z
p55
sg14
F0.0006867731322012238
ssa(dp56
g50
(dp57
g12
V2018-09-07T10:05:48Z
p58
sg14
F0.047
ssg4
VQ1
p59
sg10
(dp60
g12
V2018-09-07T10:05:48Z
p61
sg14
F0.0010302181416348977
ssa(dp62
g50
(dp63
g12
V2018-09-07T10:05:48Z
p64
sg14
F0.023
ssg4
VQ2
p65
sg10
(dp66
g12
V2018-09-07T10:05:48Z
p67
sg14
F0.0010302181416348977
ssa(dp68
g50
(dp69
g12
V2018-09-07T10:05:48Z
p70
sg14
F0.074
ssg4
VQ3
p71
sg10
(dp72
g12
V2018-09-07T10:05:48Z
p73
sg14
F0.001631340796924452
ssa(dp74
g50
(dp75
g12
V2018-09-07T10:05:48Z
p76
sg14
F0.219
ssg4
VQ4
p77
sg10
(dp78
g12
V2018-09-07T10:05:48Z
p79
sg14
F0.0025762039467128184
ssasVbackend
p80
Vibmq_5_tenerife
p81
s.