(dp0
Vqubits
p1
(lp2
(dp3
Vname
p4
VQ0
p5
sVgateError
p6
(dp7
Vvalue
p8
F0.0014595792651160289
sVdate
p9
V2018-08-18T09:59:47Z
p10
ssVreadoutError
p11
(dp12
g8
F0.108
sg9
V2018-08-18T09:59:47Z
p13
ssa(dp14
g4
VQ1
p15
sg6
(dp16
g8
F0.002060787371647721
sg9
V2018-08-18T09:59:47Z
p17
ssg11
(dp18
g8
F0.068
sg9
V2018-08-18T09:59:47Z
p19
ssa(dp20
g4
VQ2
p21
sg6
(dp22
g8
F0.0011160854878761173
sg9
V2018-08-18T09:59:47Z
p23
ssg11
(dp24
g8
F0.027
sg9
V2018-08-18T09:59:47Z
p25
ssa(dp26
g4
VQ3
p27
sg6
(dp28
g8
F0.0014595792651160289
sg9
V2018-08-18T09:59:47Z
p29
ssg11
(dp30
g8
F0.02
sg9
V2018-08-18T09:59:47Z
p31
ssa(dp32
g4
VQ4
p33
sg6
(dp34
g8
F0.0012019552727863259
sg9
V2018-08-18T09:59:47Z
p35
ssg11
(dp36
g8
F0.046
sg9
V2018-08-18T09:59:47Z
p37
ssasVmulti_qubit_gates
p38
(lp39
(dp40
Vqubits
p41
(lp42
L1L
aL0L
asg4
VCX1_0
p43
sVtype
p44
VCX
p45
sg6
(dp46
g8
F0.03201069768914974
sg9
V2018-08-18T09:59:47Z
p47
ssa(dp48
g41
(lp49
L2L
aL0L
asg4
VCX2_0
p50
sg44
VCX
p51
sg6
(dp52
g8
F0.03487529356631899
sg9
V2018-08-18T09:59:47Z
p53
ssa(dp54
g41
(lp55
L2L
aL1L
asg4
VCX2_1
p56
sg44
VCX
p57
sg6
(dp58
g8
F0.0439159527415236
sg9
V2018-08-18T09:59:47Z
p59
ssa(dp60
g41
(lp61
L3L
aL2L
asg4
VCX3_2
p62
sg44
VCX
p63
sg6
(dp64
g8
F0.06384532928265266
sg9
V2018-08-18T09:59:47Z
p65
ssa(dp66
g41
(lp67
L3L
aL4L
asg4
VCX3_4
p68
sg44
VCX
p69
sg6
(dp70
g8
F0.03494356811648844
sg9
V2018-08-18T09:59:47Z
p71
ssa(dp72
g41
(lp73
L4L
aL2L
asg4
VCX4_2
p74
sg44
VCX
p75
sg6
(dp76
g8
F0.05647695078796644
sg9
V2018-08-18T09:59:47Z
p77
ssasVlast_update_date
p78
V2018-08-18T09:59:47.000Z
p79
sVbackend
p80
Vibmqx4
p81
s.