(dp0
Vlast_update_date
p1
V2018-08-30T10:02:22.000Z
p2
sVqubits
p3
(lp4
(dp5
VreadoutError
p6
(dp7
Vvalue
p8
F0.066
sVdate
p9
V2018-08-30T10:02:22Z
p10
ssVgateError
p11
(dp12
g8
F0.0006867731322012238
sg9
V2018-08-30T10:02:22Z
p13
ssVname
p14
VQ0
p15
sa(dp16
g6
(dp17
g8
F0.043
sg9
V2018-08-30T10:02:22Z
p18
ssg11
(dp19
g8
F0.00128782749692391
sg9
V2018-08-30T10:02:22Z
p20
ssg14
VQ1
p21
sa(dp22
g6
(dp23
g8
F0.025
sg9
V2018-08-30T10:02:22Z
p24
ssg11
(dp25
g8
F0.0014595792651160289
sg9
V2018-08-30T10:02:22Z
p26
ssg14
VQ2
p27
sa(dp28
g6
(dp29
g8
F0.03
sg9
V2018-08-30T10:02:22Z
p30
ssg11
(dp31
g8
F0.001803112096824766
sg9
V2018-08-30T10:02:22Z
p32
ssg14
VQ3
p33
sa(dp34
g6
(dp35
g8
F0.323
sg9
V2018-08-30T10:02:22Z
p36
ssg11
(dp37
g8
F0.0033494941004675316
sg9
V2018-08-30T10:02:22Z
p38
ssg14
VQ4
p39
sasVbackend
p40
Vibmq_5_tenerife
p41
sVmulti_qubit_gates
p42
(lp43
(dp44
Vtype
p45
VCX
p46
sVqubits
p47
(lp48
L1L
aL0L
asg14
VCX1_0
p49
sg11
(dp50
g8
F0.027860357782969247
sg9
V2018-08-30T10:02:22Z
p51
ssa(dp52
g45
VCX
p53
sg47
(lp54
L2L
aL0L
asg14
VCX2_0
p55
sg11
(dp56
g8
F0.031193291229275444
sg9
V2018-08-30T10:02:22Z
p57
ssa(dp58
g45
VCX
p59
sg47
(lp60
L2L
aL1L
asg14
VCX2_1
p61
sg11
(dp62
g8
F0.04137601691771922
sg9
V2018-08-30T10:02:22Z
p63
ssa(dp64
g45
VCX
p65
sg47
(lp66
L3L
aL2L
asg14
VCX3_2
p67
sg11
(dp68
g8
F0.060573360153451106
sg9
V2018-08-30T10:02:22Z
p69
ssa(dp70
g45
VCX
p71
sg47
(lp72
L3L
aL4L
asg14
VCX3_4
p73
sg11
(dp74
g8
F0.06985263610444079
sg9
V2018-08-30T10:02:22Z
p75
ssa(dp76
g45
VCX
p77
sg47
(lp78
L4L
aL2L
asg14
VCX4_2
p79
sg11
(dp80
g8
F0.09102011930850834
sg9
V2018-08-30T10:02:22Z
p81
ssas.