(dp0
Vlast_update_date
p1
V2018-08-27T10:02:47.000Z
p2
sVqubits
p3
(lp4
(dp5
VreadoutError
p6
(dp7
Vvalue
p8
F0.06
sVdate
p9
V2018-08-27T10:02:47Z
p10
ssVname
p11
VQ0
p12
sVgateError
p13
(dp14
g8
F0.0006867731322012238
sg9
V2018-08-27T10:02:47Z
p15
ssa(dp16
g6
(dp17
g8
F0.054
sg9
V2018-08-27T10:02:47Z
p18
ssg11
VQ1
p19
sg13
(dp20
g8
F0.0024043886349084387
sg9
V2018-08-27T10:02:47Z
p21
ssa(dp22
g6
(dp23
g8
F0.026
sg9
V2018-08-27T10:02:47Z
p24
ssg11
VQ2
p25
sg13
(dp26
g8
F0.0011160854878761173
sg9
V2018-08-27T10:02:47Z
p27
ssa(dp28
g6
(dp29
g8
F0.048
sg9
V2018-08-27T10:02:47Z
p30
ssg11
VQ3
p31
sg13
(dp32
g8
F0.001545458810288558
sg9
V2018-08-27T10:02:47Z
p33
ssa(dp34
g6
(dp35
g8
F0.26
sg9
V2018-08-27T10:02:47Z
p36
ssg11
VQ4
p37
sg13
(dp38
g8
F0.0017172252255832077
sg9
V2018-08-27T10:02:47Z
p39
ssasVmulti_qubit_gates
p40
(lp41
(dp42
Vqubits
p43
(lp44
L1L
aL0L
asg13
(dp45
g8
F0.03323768063574395
sg9
V2018-08-27T10:02:47Z
p46
ssg11
VCX1_0
p47
sVtype
p48
VCX
p49
sa(dp50
g43
(lp51
L2L
aL0L
asg13
(dp52
g8
F0.02677371835866532
sg9
V2018-08-27T10:02:47Z
p53
ssg11
VCX2_0
p54
sg48
VCX
p55
sa(dp56
g43
(lp57
L2L
aL1L
asg13
(dp58
g8
F0.04069032912231277
sg9
V2018-08-27T10:02:47Z
p59
ssg11
VCX2_1
p60
sg48
VCX
p61
sa(dp62
g43
(lp63
L3L
aL2L
asg13
(dp64
g8
F0.0704128028101372
sg9
V2018-08-27T10:02:47Z
p65
ssg11
VCX3_2
p66
sg48
VCX
p67
sa(dp68
g43
(lp69
L3L
aL4L
asg13
(dp70
g8
F0.04832017892360507
sg9
V2018-08-27T10:02:47Z
p71
ssg11
VCX3_4
p72
sg48
VCX
p73
sa(dp74
g43
(lp75
L4L
aL2L
asg13
(dp76
g8
F0.06887289897601329
sg9
V2018-08-27T10:02:47Z
p77
ssg11
VCX4_2
p78
sg48
VCX
p79
sasVbackend
p80
Vibmq_5_tenerife
p81
s.