(dp0
Vqubits
p1
(lp2
(dp3
Vname
p4
VQ0
p5
sVreadoutError
p6
(dp7
Vvalue
p8
F0.063
sVdate
p9
V2018-09-06T04:08:12Z
p10
ssVgateError
p11
(dp12
g8
F0.0009443532335046134
sg9
V2018-09-06T04:08:12Z
p13
ssa(dp14
g4
VQ1
p15
sg6
(dp16
g8
F0.047
sg9
V2018-09-06T04:08:12Z
p17
ssg11
(dp18
g8
F0.00128782749692391
sg9
V2018-09-06T04:08:12Z
p19
ssa(dp20
g4
VQ2
p21
sg6
(dp22
g8
F0.022
sg9
V2018-09-06T04:08:12Z
p23
ssg11
(dp24
g8
F0.0010302181416348977
sg9
V2018-09-06T04:08:12Z
p25
ssa(dp26
g4
VQ3
p27
sg6
(dp28
g8
F0.083
sg9
V2018-09-06T04:08:12Z
p29
ssg11
(dp30
g8
F0.0017172252255832077
sg9
V2018-09-06T04:08:12Z
p31
ssa(dp32
g4
VQ4
p33
sg6
(dp34
g8
F0.254
sg9
V2018-09-06T04:08:12Z
p35
ssg11
(dp36
g8
F0.0017172252255832077
sg9
V2018-09-06T04:08:12Z
p37
ssasVlast_update_date
p38
V2018-09-06T04:08:12.000Z
p39
sVmulti_qubit_gates
p40
(lp41
(dp42
Vqubits
p43
(lp44
L1L
aL0L
asVtype
p45
VCX
p46
sg4
VCX1_0
p47
sg11
(dp48
g8
F0.030784762253458553
sg9
V2018-09-06T04:08:12Z
p49
ssa(dp50
g43
(lp51
L2L
aL0L
asg45
VCX
p52
sg4
VCX2_0
p53
sg11
(dp54
g8
F0.024670673596357773
sg9
V2018-09-06T04:08:12Z
p55
ssa(dp56
g43
(lp57
L2L
aL1L
asg45
VCX
p58
sg4
VCX2_1
p59
sg11
(dp60
g8
F0.044671949865049215
sg9
V2018-09-06T04:08:12Z
p61
ssa(dp62
g43
(lp63
L3L
aL2L
asg45
VCX
p64
sg4
VCX3_2
p65
sg11
(dp66
g8
F0.06670598388686133
sg9
V2018-09-06T04:08:12Z
p67
ssa(dp68
g43
(lp69
L3L
aL4L
asg45
VCX
p70
sg4
VCX3_4
p71
sg11
(dp72
g8
F0.045290794442121945
sg9
V2018-09-06T04:08:12Z
p73
ssa(dp74
g43
(lp75
L4L
aL2L
asg45
VCX
p76
sg4
VCX4_2
p77
sg11
(dp78
g8
F0.06628697788172899
sg9
V2018-09-06T04:08:12Z
p79
ssasVbackend
p80
Vibmq_5_tenerife
p81
s.