(dp0
Vqubits
p1
(lp2
(dp3
Vname
p4
VQ0
p5
sVgateError
p6
(dp7
Vdate
p8
V2018-08-20T09:56:27Z
p9
sVvalue
p10
F0.0007726307293453583
ssVreadoutError
p11
(dp12
g8
V2018-08-20T09:56:27Z
p13
sg10
F0.048
ssa(dp14
g4
VQ1
p15
sg6
(dp16
g8
V2018-08-20T09:56:27Z
p17
sg10
F0.001545458810288558
ssg11
(dp18
g8
V2018-08-20T09:56:27Z
p19
sg10
F0.045
ssa(dp20
g4
VQ2
p21
sg6
(dp22
g8
V2018-08-20T09:56:27Z
p23
sg10
F0.0010302181416348977
ssg11
(dp24
g8
V2018-08-20T09:56:27Z
p25
sg10
F0.022
ssa(dp26
g4
VQ3
p27
sg6
(dp28
g8
V2018-08-20T09:56:27Z
p29
sg10
F0.0013737021608475342
ssg11
(dp30
g8
V2018-08-20T09:56:27Z
p31
sg10
F0.019
ssa(dp32
g4
VQ4
p33
sg6
(dp34
g8
V2018-08-20T09:56:27Z
p35
sg10
F0.001545458810288558
ssg11
(dp36
g8
V2018-08-20T09:56:27Z
p37
sg10
F0.06
ssasVlast_update_date
p38
V2018-08-20T09:56:27.000Z
p39
sVbackend
p40
Vibmq_5_tenerife
p41
sVmulti_qubit_gates
p42
(lp43
(dp44
Vqubits
p45
(lp46
L1L
aL0L
asg4
VCX1_0
p47
sg6
(dp48
g8
V2018-08-20T09:56:27Z
p49
sg10
F0.02568789465394103
ssVtype
p50
VCX
p51
sa(dp52
g45
(lp53
L2L
aL0L
asg4
VCX2_0
p54
sg6
(dp55
g8
V2018-08-20T09:56:27Z
p56
sg10
F0.02250298179089663
ssg50
VCX
p57
sa(dp58
g45
(lp59
L2L
aL1L
asg4
VCX2_1
p60
sg6
(dp61
g8
V2018-08-20T09:56:27Z
p62
sg10
F0.029900013885674814
ssg50
VCX
p63
sa(dp64
g45
(lp65
L3L
aL2L
asg4
VCX3_2
p66
sg6
(dp67
g8
V2018-08-20T09:56:27Z
p68
sg10
F0.05135611701911866
ssg50
VCX
p69
sa(dp70
g45
(lp71
L3L
aL4L
asg4
VCX3_4
p72
sg6
(dp73
g8
V2018-08-20T09:56:27Z
p74
sg10
F0.039662418353623635
ssg50
VCX
p75
sa(dp76
g45
(lp77
L4L
aL2L
asg4
VCX4_2
p78
sg6
(dp79
g8
V2018-08-20T09:56:27Z
p80
sg10
F0.06196473640500452
ssg50
VCX
p81
sas.