(dp0
Vqubits
p1
(lp2
(dp3
VgateError
p4
(dp5
Vvalue
p6
F0.0007726307293453583
sVdate
p7
V2018-08-13T09:57:01Z
p8
ssVreadoutError
p9
(dp10
g6
F0.073
sg7
V2018-08-13T09:57:01Z
p11
ssVname
p12
VQ0
p13
sa(dp14
g4
(dp15
g6
F0.001889001411209068
sg7
V2018-08-13T09:57:01Z
p16
ssg9
(dp17
g6
F0.058
sg7
V2018-08-13T09:57:01Z
p18
ssg12
VQ1
p19
sa(dp20
g4
(dp21
g6
F0.0013737021608475342
sg7
V2018-08-13T09:57:01Z
p22
ssg9
(dp23
g6
F0.022
sg7
V2018-08-13T09:57:01Z
p24
ssg12
VQ2
p25
sa(dp26
g4
(dp27
g6
F0.0017172252255832077
sg7
V2018-08-13T09:57:01Z
p28
ssg9
(dp29
g6
F0.039
sg7
V2018-08-13T09:57:01Z
p30
ssg12
VQ3
p31
sa(dp32
g4
(dp33
g6
F0.0012019552727863259
sg7
V2018-08-13T09:57:01Z
p34
ssg9
(dp35
g6
F0.048
sg7
V2018-08-13T09:57:01Z
p36
ssg12
VQ4
p37
sasVlast_update_date
p38
V2018-08-13T09:57:01.000Z
p39
sVmulti_qubit_gates
p40
(lp41
(dp42
Vqubits
p43
(lp44
L1L
aL0L
asVtype
p45
VCX
p46
sg4
(dp47
g6
F0.030580541271337164
sg7
V2018-08-13T09:57:01Z
p48
ssg12
VCX1_0
p49
sa(dp50
g43
(lp51
L2L
aL0L
asg45
VCX
p52
sg4
(dp53
g6
F0.030580541271337164
sg7
V2018-08-13T09:57:01Z
p54
ssg12
VCX2_0
p55
sa(dp56
g43
(lp57
L2L
aL1L
asg45
VCX
p58
sg4
(dp59
g6
F0.04942339516006977
sg7
V2018-08-13T09:57:01Z
p60
ssg12
VCX2_1
p61
sa(dp62
g43
(lp63
L3L
aL2L
asg45
VCX
p64
sg4
(dp65
g6
F0.06300919246402237
sg7
V2018-08-13T09:57:01Z
p66
ssg12
VCX3_2
p67
sa(dp68
g43
(lp69
L3L
aL4L
asg45
VCX
p70
sg4
(dp71
g6
F0.041718985240627754
sg7
V2018-08-13T09:57:01Z
p72
ssg12
VCX3_4
p73
sa(dp74
g43
(lp75
L4L
aL2L
asg45
VCX
p76
sg4
(dp77
g6
F0.04928544564590831
sg7
V2018-08-13T09:57:01Z
p78
ssg12
VCX4_2
p79
sasVbackend
p80
Vibmqx4
p81
s.