(dp0
Vmulti_qubit_gates
p1
(lp2
(dp3
Vname
p4
VCX1_0
p5
sVqubits
p6
(lp7
L1L
aL0L
asVtype
p8
VCX
p9
sVgateError
p10
(dp11
Vvalue
p12
F0.030784762253458553
sVdate
p13
V2018-09-06T04:08:12Z
p14
ssa(dp15
g4
VCX2_0
p16
sg6
(lp17
L2L
aL0L
asg8
VCX
p18
sg10
(dp19
g12
F0.024670673596357773
sg13
V2018-09-06T04:08:12Z
p20
ssa(dp21
g4
VCX2_1
p22
sg6
(lp23
L2L
aL1L
asg8
VCX
p24
sg10
(dp25
g12
F0.044671949865049215
sg13
V2018-09-06T04:08:12Z
p26
ssa(dp27
g4
VCX3_2
p28
sg6
(lp29
L3L
aL2L
asg8
VCX
p30
sg10
(dp31
g12
F0.06670598388686133
sg13
V2018-09-06T04:08:12Z
p32
ssa(dp33
g4
VCX3_4
p34
sg6
(lp35
L3L
aL4L
asg8
VCX
p36
sg10
(dp37
g12
F0.045290794442121945
sg13
V2018-09-06T04:08:12Z
p38
ssa(dp39
g4
VCX4_2
p40
sg6
(lp41
L4L
aL2L
asg8
VCX
p42
sg10
(dp43
g12
F0.06628697788172899
sg13
V2018-09-06T04:08:12Z
p44
ssasVqubits
p45
(lp46
(dp47
g4
VQ0
p48
sVreadoutError
p49
(dp50
g12
F0.063
sg13
V2018-09-06T04:08:12Z
p51
ssg10
(dp52
g12
F0.0009443532335046134
sg13
V2018-09-06T04:08:12Z
p53
ssa(dp54
g4
VQ1
p55
sg49
(dp56
g12
F0.047
sg13
V2018-09-06T04:08:12Z
p57
ssg10
(dp58
g12
F0.00128782749692391
sg13
V2018-09-06T04:08:12Z
p59
ssa(dp60
g4
VQ2
p61
sg49
(dp62
g12
F0.022
sg13
V2018-09-06T04:08:12Z
p63
ssg10
(dp64
g12
F0.0010302181416348977
sg13
V2018-09-06T04:08:12Z
p65
ssa(dp66
g4
VQ3
p67
sg49
(dp68
g12
F0.083
sg13
V2018-09-06T04:08:12Z
p69
ssg10
(dp70
g12
F0.0017172252255832077
sg13
V2018-09-06T04:08:12Z
p71
ssa(dp72
g4
VQ4
p73
sg49
(dp74
g12
F0.254
sg13
V2018-09-06T04:08:12Z
p75
ssg10
(dp76
g12
F0.0017172252255832077
sg13
V2018-09-06T04:08:12Z
p77
ssasVbackend
p78
Vibmq_5_tenerife
p79
sVlast_update_date
p80
V2018-09-06T04:08:12.000Z
p81
s.