(dp0
Vqubits
p1
(lp2
(dp3
VgateError
p4
(dp5
Vvalue
p6
F0.0006009179709377532
sVdate
p7
V2018-08-22T09:54:21Z
p8
ssVreadoutError
p9
(dp10
g6
F0.05
sg7
V2018-08-22T09:54:21Z
p11
ssVname
p12
VQ0
p13
sa(dp14
g4
(dp15
g6
F0.00197489316929661
sg7
V2018-08-22T09:54:21Z
p16
ssg9
(dp17
g6
F0.057
sg7
V2018-08-22T09:54:21Z
p18
ssg12
VQ1
p19
sa(dp20
g4
(dp21
g6
F0.0010302181416348977
sg7
V2018-08-22T09:54:21Z
p22
ssg9
(dp23
g6
F0.016
sg7
V2018-08-22T09:54:21Z
p24
ssg12
VQ2
p25
sa(dp26
g4
(dp27
g6
F0.0017172252255832077
sg7
V2018-08-22T09:54:21Z
p28
ssg9
(dp29
g6
F0.019
sg7
V2018-08-22T09:54:21Z
p30
ssg12
VQ3
p31
sa(dp32
g4
(dp33
g6
F0.0012019552727863259
sg7
V2018-08-22T09:54:21Z
p34
ssg9
(dp35
g6
F0.042
sg7
V2018-08-22T09:54:21Z
p36
ssg12
VQ4
p37
sasVlast_update_date
p38
V2018-08-22T09:54:21.000Z
p39
sVbackend
p40
Vibmq_5_tenerife
p41
sVmulti_qubit_gates
p42
(lp43
(dp44
Vqubits
p45
(lp46
L1L
aL0L
asVtype
p47
VCX
p48
sg4
(dp49
g6
F0.025416565897270732
sg7
V2018-08-22T09:54:21Z
p50
ssg12
VCX1_0
p51
sa(dp52
g45
(lp53
L2L
aL0L
asg47
VCX
p54
sg4
(dp55
g6
F0.02358642340513631
sg7
V2018-08-22T09:54:21Z
p56
ssg12
VCX2_0
p57
sa(dp58
g45
(lp59
L2L
aL1L
asg47
VCX
p60
sg4
(dp61
g6
F0.03126139067831196
sg7
V2018-08-22T09:54:21Z
p62
ssg12
VCX2_1
p63
sa(dp64
g45
(lp65
L3L
aL2L
asg47
VCX
p66
sg4
(dp67
g6
F0.07146373819498616
sg7
V2018-08-22T09:54:21Z
p68
ssg12
VCX3_2
p69
sa(dp70
g45
(lp71
L3L
aL4L
asg47
VCX
p72
sg4
(dp73
g6
F0.040553231335670986
sg7
V2018-08-22T09:54:21Z
p74
ssg12
VCX3_4
p75
sa(dp76
g45
(lp77
L4L
aL2L
asg47
VCX
p78
sg4
(dp79
g6
F0.059252851959380626
sg7
V2018-08-22T09:54:21Z
p80
ssg12
VCX4_2
p81
sas.