(lp0
(dp1
Vparameters
p2
(lp3
F0.0
aF0.0
aF0.0
aF0.0
aF0.0
aF0.0
asVerr-counts
p4
(dp5
V00000
p6
L246L
sV00100
p7
L294L
sV10000
p8
L163L
sV11100
p9
L298L
sV10100
p10
L525L
sV01000
p11
L176L
sV11000
p12
L122L
sV01100
p13
L224L
ssVideal
p14
(lp15
F0.0
aF0.0
aF0.0
aF1.0
aF1.0
aF1.0
asVmain-counts
p16
(dp17
g6
L1645L
sg7
L72L
sg8
L38L
sg9
L82L
sg10
L56L
sg11
L46L
sg12
L97L
sg13
L12L
ssVerr-qasm
p18
V\u000ainclude "qelib1.inc";\u000aqreg err_qr[5];\u000acreg err_cr[5];\u000au3(0.0,0.0,0.0) err_qr[4];\u000au3(0.0,0.0,0.0) err_qr[3];\u000au3(0.0,0.0,0.0) err_qr[2];\u000acx err_qr[3],err_qr[2];\u000au3(0.0,0.0,0.0) err_qr[3];\u000acx err_qr[3],err_qr[4];\u000au3(0.0,0.0,0.0) err_qr[4];\u000au3(-1.570796326794897,0.0,0.0) err_qr[3];\u000ameasure err_qr[3] -> err_cr[3];\u000au3(0.0,0.0,0.0) err_qr[2];\u000acx err_qr[4],err_qr[2];\u000au3(1.570796326794897,0.0,0.0) err_qr[4];\u000ameasure err_qr[4] -> err_cr[4];\u000au3(1.570796326794897,0.0,0.0) err_qr[2];\u000ameasure err_qr[2] -> err_cr[2];\u000a
p19
sVmain-qasm
p20
V\u000ainclude "qelib1.inc";\u000aqreg main_qr[5];\u000acreg main_cr[5];\u000au3(0.0,0.0,0.0) main_qr[4];\u000au3(0.0,0.0,0.0) main_qr[3];\u000au3(0.0,0.0,0.0) main_qr[2];\u000acx main_qr[3],main_qr[2];\u000au3(0.0,0.0,0.0) main_qr[3];\u000acx main_qr[3],main_qr[4];\u000au3(0.0,0.0,0.0) main_qr[4];\u000ameasure main_qr[3] -> main_cr[3];\u000au3(0.0,0.0,0.0) main_qr[2];\u000acx main_qr[4],main_qr[2];\u000ameasure main_qr[4] -> main_cr[4];\u000ameasure main_qr[2] -> main_cr[2];\u000a
p21
sVexp-ON
p22
(lp23
F0.07891778908652729
aF0.1030225390435292
aF0.13101409440738665
aF0.8689859055926134
aF0.8969774609564708
aF0.9210822109134728
asa(dp24
g2
(lp25
F1.123992038284348
aF1.155407964820246
aF0.565486677646163
aF1.089085453244462
aF0.586430628670095
aF1.497492498211135
asg4
(dp26
g6
L371L
sg7
L81L
sg8
L101L
sg9
L312L
sg10
L440L
sg11
L561L
sg12
L96L
sg13
L86L
ssg14
(lp27
F0.15375175789961948
aF0.1784036798304413
aF0.20872561521883107
aF0.791274384781169
aF0.8215963201695586
aF0.8462482421003804
asg16
(dp28
g6
L106L
sg7
L122L
sg8
L295L
sg9
L101L
sg10
L183L
sg11
L87L
sg12
L971L
sg13
L183L
ssg18
V\u000ainclude "qelib1.inc";\u000aqreg err_qr[5];\u000acreg err_cr[5];\u000au3(1.123992038284348,0.0,0.0) err_qr[4];\u000au3(1.155407964820246,0.0,0.0) err_qr[3];\u000au3(0.565486677646163,0.0,0.0) err_qr[2];\u000acx err_qr[3],err_qr[2];\u000au3(1.089085453244462,0.0,0.0) err_qr[3];\u000acx err_qr[3],err_qr[4];\u000au3(0.586430628670095,0.0,0.0) err_qr[4];\u000au3(-1.570796326794897,0.0,0.0) err_qr[3];\u000ameasure err_qr[3] -> err_cr[3];\u000au3(1.497492498211135,0.0,0.0) err_qr[2];\u000acx err_qr[4],err_qr[2];\u000au3(1.570796326794897,0.0,0.0) err_qr[4];\u000ameasure err_qr[4] -> err_cr[4];\u000au3(1.570796326794897,0.0,0.0) err_qr[2];\u000ameasure err_qr[2] -> err_cr[2];\u000a
p29
sg20
V\u000ainclude "qelib1.inc";\u000aqreg main_qr[5];\u000acreg main_cr[5];\u000au3(1.123992038284348,0.0,0.0) main_qr[4];\u000au3(1.155407964820246,0.0,0.0) main_qr[3];\u000au3(0.565486677646163,0.0,0.0) main_qr[2];\u000acx main_qr[3],main_qr[2];\u000au3(1.089085453244462,0.0,0.0) main_qr[3];\u000acx main_qr[3],main_qr[4];\u000au3(0.586430628670095,0.0,0.0) main_qr[4];\u000ameasure main_qr[3] -> main_cr[3];\u000au3(1.497492498211135,0.0,0.0) main_qr[2];\u000acx main_qr[4],main_qr[2];\u000ameasure main_qr[4] -> main_cr[4];\u000ameasure main_qr[2] -> main_cr[2];\u000a
p30
sg22
(lp31
F0.24056637978290052
aF0.28149755043687064
aF0.3439905110335176
aF0.6560094889664825
aF0.7185024495631294
aF0.7594336202170995
asa(dp32
g2
(lp33
F1.452113937659282
aF0.383972435438752
aF0.603883921190038
aF0.46774823953448
aF0.258308729295161
aF0.544542726622231
asg4
(dp34
g6
L134L
sg7
L72L
sg8
L35L
sg9
L668L
sg10
L984L
sg11
L70L
sg12
L18L
sg13
L67L
ssg14
(lp35
F0.025727028474957003
aF0.05907921465941868
aF0.05916460216152353
aF0.9408353978384765
aF0.9409207853405817
aF0.9742729715250431
asg16
(dp36
g6
L314L
sg7
L202L
sg8
L435L
sg9
L55L
sg10
L508L
sg11
L69L
sg12
L285L
sg13
L180L
ssg18
V\u000ainclude "qelib1.inc";\u000aqreg err_qr[5];\u000acreg err_cr[5];\u000au3(1.452113937659282,0.0,0.0) err_qr[4];\u000au3(0.383972435438752,0.0,0.0) err_qr[3];\u000au3(0.603883921190038,0.0,0.0) err_qr[2];\u000acx err_qr[3],err_qr[2];\u000au3(0.46774823953448,0.0,0.0) err_qr[3];\u000acx err_qr[3],err_qr[4];\u000au3(0.258308729295161,0.0,0.0) err_qr[4];\u000au3(-1.570796326794897,0.0,0.0) err_qr[3];\u000ameasure err_qr[3] -> err_cr[3];\u000au3(0.544542726622231,0.0,0.0) err_qr[2];\u000acx err_qr[4],err_qr[2];\u000au3(1.570796326794897,0.0,0.0) err_qr[4];\u000ameasure err_qr[4] -> err_cr[4];\u000au3(1.570796326794897,0.0,0.0) err_qr[2];\u000ameasure err_qr[2] -> err_cr[2];\u000a
p37
sg20
V\u000ainclude "qelib1.inc";\u000aqreg main_qr[5];\u000acreg main_cr[5];\u000au3(1.452113937659282,0.0,0.0) main_qr[4];\u000au3(0.383972435438752,0.0,0.0) main_qr[3];\u000au3(0.603883921190038,0.0,0.0) main_qr[2];\u000acx main_qr[3],main_qr[2];\u000au3(0.46774823953448,0.0,0.0) main_qr[3];\u000acx main_qr[3],main_qr[4];\u000au3(0.258308729295161,0.0,0.0) main_qr[4];\u000ameasure main_qr[3] -> main_cr[3];\u000au3(0.544542726622231,0.0,0.0) main_qr[2];\u000acx main_qr[4],main_qr[2];\u000ameasure main_qr[4] -> main_cr[4];\u000ameasure main_qr[2] -> main_cr[2];\u000a
p38
sg22
(lp39
F0.12350697505365132
aF0.1442436291962832
aF0.26601900794129585
aF0.7339809920587042
aF0.8557563708037168
aF0.8764930249463487
asa(dp40
g2
(lp41
F1.200786525372099
aF1.514945790731078
aF0.024434609527921
aF1.214749159388053
aF1.403244718603441
aF0.987856356628791
asg4
(dp42
g6
L315L
sg7
L227L
sg8
L217L
sg9
L168L
sg10
L225L
sg11
L401L
sg12
L263L
sg13
L232L
ssg14
(lp43
F0.03891367582631544
aF0.4611979266919923
aF0.47159490318622377
aF0.5284050968137762
aF0.5388020733080077
aF0.9610863241736844
asg16
(dp44
g6
L48L
sg7
L22L
sg8
L234L
sg9
L99L
sg10
L618L
sg11
L57L
sg12
L951L
sg13
L19L
ssg18
V\u000ainclude "qelib1.inc";\u000aqreg err_qr[5];\u000acreg err_cr[5];\u000au3(1.200786525372099,0.0,0.0) err_qr[4];\u000au3(1.514945790731078,0.0,0.0) err_qr[3];\u000au3(0.024434609527921,0.0,0.0) err_qr[2];\u000acx err_qr[3],err_qr[2];\u000au3(1.214749159388053,0.0,0.0) err_qr[3];\u000acx err_qr[3],err_qr[4];\u000au3(1.403244718603441,0.0,0.0) err_qr[4];\u000au3(-1.570796326794897,0.0,0.0) err_qr[3];\u000ameasure err_qr[3] -> err_cr[3];\u000au3(0.987856356628791,0.0,0.0) err_qr[2];\u000acx err_qr[4],err_qr[2];\u000au3(1.570796326794897,0.0,0.0) err_qr[4];\u000ameasure err_qr[4] -> err_cr[4];\u000au3(1.570796326794897,0.0,0.0) err_qr[2];\u000ameasure err_qr[2] -> err_cr[2];\u000a
p45
sg20
V\u000ainclude "qelib1.inc";\u000aqreg main_qr[5];\u000acreg main_cr[5];\u000au3(1.200786525372099,0.0,0.0) main_qr[4];\u000au3(1.514945790731078,0.0,0.0) main_qr[3];\u000au3(0.024434609527921,0.0,0.0) main_qr[2];\u000acx main_qr[3],main_qr[2];\u000au3(1.214749159388053,0.0,0.0) main_qr[3];\u000acx main_qr[3],main_qr[4];\u000au3(1.403244718603441,0.0,0.0) main_qr[4];\u000ameasure main_qr[3] -> main_cr[3];\u000au3(0.987856356628791,0.0,0.0) main_qr[2];\u000acx main_qr[4],main_qr[2];\u000ameasure main_qr[4] -> main_cr[4];\u000ameasure main_qr[2] -> main_cr[2];\u000a
p46
sg22
(lp47
F0.06499511502257393
aF0.3453296401146917
aF0.44650255498124086
aF0.5534974450187591
aF0.6546703598853083
aF0.935004884977426
asa(dp48
g2
(lp49
F0.921533845053006
aF0.705113017805709
aF1.075122819228507
aF0.952949771588904
aF0.722566310325652
aF0.024434609527921
asg4
(dp50
g6
L81L
sg7
L260L
sg8
L40L
sg9
L433L
sg10
L948L
sg11
L48L
sg12
L25L
sg13
L213L
ssg14
(lp51
F0.0550946403389434
aF0.12106351426228051
aF0.1405900888007524
aF0.8594099111992477
aF0.8789364857377193
aF0.9449053596610565
asg16
(dp52
g6
L201L
sg7
L99L
sg8
L249L
sg9
L260L
sg10
L345L
sg11
L69L
sg12
L774L
sg13
L51L
ssg18
V\u000ainclude "qelib1.inc";\u000aqreg err_qr[5];\u000acreg err_cr[5];\u000au3(0.921533845053006,0.0,0.0) err_qr[4];\u000au3(0.705113017805709,0.0,0.0) err_qr[3];\u000au3(1.075122819228507,0.0,0.0) err_qr[2];\u000acx err_qr[3],err_qr[2];\u000au3(0.952949771588904,0.0,0.0) err_qr[3];\u000acx err_qr[3],err_qr[4];\u000au3(0.722566310325652,0.0,0.0) err_qr[4];\u000au3(-1.570796326794897,0.0,0.0) err_qr[3];\u000ameasure err_qr[3] -> err_cr[3];\u000au3(0.024434609527921,0.0,0.0) err_qr[2];\u000acx err_qr[4],err_qr[2];\u000au3(1.570796326794897,0.0,0.0) err_qr[4];\u000ameasure err_qr[4] -> err_cr[4];\u000au3(1.570796326794897,0.0,0.0) err_qr[2];\u000ameasure err_qr[2] -> err_cr[2];\u000a
p53
sg20
V\u000ainclude "qelib1.inc";\u000aqreg main_qr[5];\u000acreg main_cr[5];\u000au3(0.921533845053006,0.0,0.0) main_qr[4];\u000au3(0.705113017805709,0.0,0.0) main_qr[3];\u000au3(1.075122819228507,0.0,0.0) main_qr[2];\u000acx main_qr[3],main_qr[2];\u000au3(0.952949771588904,0.0,0.0) main_qr[3];\u000acx main_qr[3],main_qr[4];\u000au3(0.722566310325652,0.0,0.0) main_qr[4];\u000ameasure main_qr[3] -> main_cr[3];\u000au3(0.024434609527921,0.0,0.0) main_qr[2];\u000acx main_qr[4],main_qr[2];\u000ameasure main_qr[4] -> main_cr[4];\u000ameasure main_qr[2] -> main_cr[2];\u000a
p54
sg22
(lp55
F0.07397328024473093
aF0.1402258394572531
aF0.33811064794823825
aF0.6618893520517617
aF0.859774160542747
aF0.9260267197552691
asa(dp56
g2
(lp57
F0.760963553869528
aF0.272271363311115
aF0.066322511575785
aF1.567305668290908
aF0.10471975511966
aF0.328121899374934
asg4
(dp58
g6
L209L
sg7
L98L
sg8
L59L
sg9
L232L
sg10
L1142L
sg11
L99L
sg12
L26L
sg13
L183L
ssg14
(lp59
F0.1677933154134313
aF0.3137746748452295
aF0.37486936028294265
aF0.6251306397170573
aF0.6862253251547705
aF0.8322066845865688
asg16
(dp60
g6
L563L
sg7
L86L
sg8
L75L
sg9
L483L
sg10
L266L
sg11
L130L
sg12
L365L
sg13
L80L
ssg18
V\u000ainclude "qelib1.inc";\u000aqreg err_qr[5];\u000acreg err_cr[5];\u000au3(0.760963553869528,0.0,0.0) err_qr[4];\u000au3(0.272271363311115,0.0,0.0) err_qr[3];\u000au3(0.066322511575785,0.0,0.0) err_qr[2];\u000acx err_qr[3],err_qr[2];\u000au3(1.567305668290908,0.0,0.0) err_qr[3];\u000acx err_qr[3],err_qr[4];\u000au3(0.10471975511966,0.0,0.0) err_qr[4];\u000au3(-1.570796326794897,0.0,0.0) err_qr[3];\u000ameasure err_qr[3] -> err_cr[3];\u000au3(0.328121899374934,0.0,0.0) err_qr[2];\u000acx err_qr[4],err_qr[2];\u000au3(1.570796326794897,0.0,0.0) err_qr[4];\u000ameasure err_qr[4] -> err_cr[4];\u000au3(1.570796326794897,0.0,0.0) err_qr[2];\u000ameasure err_qr[2] -> err_cr[2];\u000a
p61
sg20
V\u000ainclude "qelib1.inc";\u000aqreg main_qr[5];\u000acreg main_cr[5];\u000au3(0.760963553869528,0.0,0.0) main_qr[4];\u000au3(0.272271363311115,0.0,0.0) main_qr[3];\u000au3(0.066322511575785,0.0,0.0) main_qr[2];\u000acx main_qr[3],main_qr[2];\u000au3(1.567305668290908,0.0,0.0) main_qr[3];\u000acx main_qr[3],main_qr[4];\u000au3(0.10471975511966,0.0,0.0) main_qr[4];\u000ameasure main_qr[3] -> main_cr[3];\u000au3(0.328121899374934,0.0,0.0) main_qr[2];\u000acx main_qr[4],main_qr[2];\u000ameasure main_qr[4] -> main_cr[4];\u000ameasure main_qr[2] -> main_cr[2];\u000a
p62
sg22
(lp63
F0.1873314358430594
aF0.26308947988015174
aF0.27283111690521256
aF0.7271688830947874
aF0.7369105201198483
aF0.8126685641569407
asa(dp64
g2
(lp65
F1.45909525466726
aF1.288052987971815
aF0.457276264022514
aF1.24965574442794
aF1.158898623324235
aF0.376991118430775
asg4
(dp66
g6
L125L
sg7
L351L
sg8
L53L
sg9
L312L
sg10
L633L
sg11
L288L
sg12
L134L
sg13
L152L
ssg14
(lp67
F0.03326895520731188
aF0.2472064323615457
aF0.2479614121306758
aF0.7520385878693242
aF0.7527935676384543
aF0.9667310447926881
asg16
(dp68
g6
L27L
sg7
L33L
sg8
L210L
sg9
L199L
sg10
L425L
sg11
L71L
sg12
L1010L
sg13
L73L
ssg18
V\u000ainclude "qelib1.inc";\u000aqreg err_qr[5];\u000acreg err_cr[5];\u000au3(1.45909525466726,0.0,0.0) err_qr[4];\u000au3(1.288052987971815,0.0,0.0) err_qr[3];\u000au3(0.457276264022514,0.0,0.0) err_qr[2];\u000acx err_qr[3],err_qr[2];\u000au3(1.24965574442794,0.0,0.0) err_qr[3];\u000acx err_qr[3],err_qr[4];\u000au3(1.158898623324235,0.0,0.0) err_qr[4];\u000au3(-1.570796326794897,0.0,0.0) err_qr[3];\u000ameasure err_qr[3] -> err_cr[3];\u000au3(0.376991118430775,0.0,0.0) err_qr[2];\u000acx err_qr[4],err_qr[2];\u000au3(1.570796326794897,0.0,0.0) err_qr[4];\u000ameasure err_qr[4] -> err_cr[4];\u000au3(1.570796326794897,0.0,0.0) err_qr[2];\u000ameasure err_qr[2] -> err_cr[2];\u000a
p69
sg20
V\u000ainclude "qelib1.inc";\u000aqreg main_qr[5];\u000acreg main_cr[5];\u000au3(1.45909525466726,0.0,0.0) main_qr[4];\u000au3(1.288052987971815,0.0,0.0) main_qr[3];\u000au3(0.457276264022514,0.0,0.0) main_qr[2];\u000acx main_qr[3],main_qr[2];\u000au3(1.24965574442794,0.0,0.0) main_qr[3];\u000acx main_qr[3],main_qr[4];\u000au3(1.158898623324235,0.0,0.0) main_qr[4];\u000ameasure main_qr[3] -> main_cr[3];\u000au3(0.376991118430775,0.0,0.0) main_qr[2];\u000acx main_qr[4],main_qr[2];\u000ameasure main_qr[4] -> main_cr[4];\u000ameasure main_qr[2] -> main_cr[2];\u000a
p70
sg22
(lp71
F0.09615155454733859
aF0.24806769405297552
aF0.3257957840896427
aF0.6742042159103573
aF0.7519323059470244
aF0.9038484454526614
asa(dp72
g2
(lp73
F0.397935069454707
aF1.110029404268394
aF1.043706892692609
aF0.352556508902855
aF0.083775804095728
aF0.139626340159546
asg4
(dp74
g6
L103L
sg7
L140L
sg8
L50L
sg9
L244L
sg10
L1140L
sg11
L71L
sg12
L22L
sg13
L278L
ssg14
(lp75
F0.009384888414671999
aF0.31372127181308074
aF0.316522277798319
aF0.683477722201681
aF0.6862787281869194
aF0.990615111585328
asg16
(dp76
g6
L488L
sg7
L374L
sg8
L127L
sg9
L135L
sg10
L120L
sg11
L65L
sg12
L652L
sg13
L87L
ssg18
V\u000ainclude "qelib1.inc";\u000aqreg err_qr[5];\u000acreg err_cr[5];\u000au3(0.397935069454707,0.0,0.0) err_qr[4];\u000au3(1.110029404268394,0.0,0.0) err_qr[3];\u000au3(1.043706892692609,0.0,0.0) err_qr[2];\u000acx err_qr[3],err_qr[2];\u000au3(0.352556508902855,0.0,0.0) err_qr[3];\u000acx err_qr[3],err_qr[4];\u000au3(0.083775804095728,0.0,0.0) err_qr[4];\u000au3(-1.570796326794897,0.0,0.0) err_qr[3];\u000ameasure err_qr[3] -> err_cr[3];\u000au3(0.139626340159546,0.0,0.0) err_qr[2];\u000acx err_qr[4],err_qr[2];\u000au3(1.570796326794897,0.0,0.0) err_qr[4];\u000ameasure err_qr[4] -> err_cr[4];\u000au3(1.570796326794897,0.0,0.0) err_qr[2];\u000ameasure err_qr[2] -> err_cr[2];\u000a
p77
sg20
V\u000ainclude "qelib1.inc";\u000aqreg main_qr[5];\u000acreg main_cr[5];\u000au3(0.397935069454707,0.0,0.0) main_qr[4];\u000au3(1.110029404268394,0.0,0.0) main_qr[3];\u000au3(1.043706892692609,0.0,0.0) main_qr[2];\u000acx main_qr[3],main_qr[2];\u000au3(0.352556508902855,0.0,0.0) main_qr[3];\u000acx main_qr[3],main_qr[4];\u000au3(0.083775804095728,0.0,0.0) main_qr[4];\u000ameasure main_qr[3] -> main_cr[3];\u000au3(0.139626340159546,0.0,0.0) main_qr[2];\u000acx main_qr[4],main_qr[2];\u000ameasure main_qr[4] -> main_cr[4];\u000ameasure main_qr[2] -> main_cr[2];\u000a
p78
sg22
(lp79
F0.09143141173017133
aF0.2890059935349818
aF0.29602580416950464
aF0.7039741958304954
aF0.7109940064650182
aF0.9085685882698287
asa(dp80
g2
(lp81
F0.321140582366957
aF0.513126800086333
aF0.027925268031909
aF1.298524963483781
aF0.851720674973233
aF0.561996019142174
asg4
(dp82
g6
L152L
sg7
L266L
sg8
L54L
sg9
L222L
sg10
L781L
sg11
L168L
sg12
L34L
sg13
L371L
ssg14
(lp83
F0.24814826711120302
aF0.32704759176238773
aF0.4368492146340297
aF0.5631507853659704
aF0.6729524082376123
aF0.751851732888797
asg16
(dp84
g6
L567L
sg7
L79L
sg8
L129L
sg9
L255L
sg10
L391L
sg11
L68L
sg12
L528L
sg13
L31L
ssg18
V\u000ainclude "qelib1.inc";\u000aqreg err_qr[5];\u000acreg err_cr[5];\u000au3(0.321140582366957,0.0,0.0) err_qr[4];\u000au3(0.513126800086333,0.0,0.0) err_qr[3];\u000au3(0.027925268031909,0.0,0.0) err_qr[2];\u000acx err_qr[3],err_qr[2];\u000au3(1.298524963483781,0.0,0.0) err_qr[3];\u000acx err_qr[3],err_qr[4];\u000au3(0.851720674973233,0.0,0.0) err_qr[4];\u000au3(-1.570796326794897,0.0,0.0) err_qr[3];\u000ameasure err_qr[3] -> err_cr[3];\u000au3(0.561996019142174,0.0,0.0) err_qr[2];\u000acx err_qr[4],err_qr[2];\u000au3(1.570796326794897,0.0,0.0) err_qr[4];\u000ameasure err_qr[4] -> err_cr[4];\u000au3(1.570796326794897,0.0,0.0) err_qr[2];\u000ameasure err_qr[2] -> err_cr[2];\u000a
p85
sg20
V\u000ainclude "qelib1.inc";\u000aqreg main_qr[5];\u000acreg main_cr[5];\u000au3(0.321140582366957,0.0,0.0) main_qr[4];\u000au3(0.513126800086333,0.0,0.0) main_qr[3];\u000au3(0.027925268031909,0.0,0.0) main_qr[2];\u000acx main_qr[3],main_qr[2];\u000au3(1.298524963483781,0.0,0.0) main_qr[3];\u000acx main_qr[3],main_qr[4];\u000au3(0.851720674973233,0.0,0.0) main_qr[4];\u000ameasure main_qr[3] -> main_cr[3];\u000au3(0.561996019142174,0.0,0.0) main_qr[2];\u000acx main_qr[4],main_qr[2];\u000ameasure main_qr[4] -> main_cr[4];\u000ameasure main_qr[2] -> main_cr[2];\u000a
p86
sg22
(lp87
F0.1719854631621441
aF0.35989646108169987
aF0.36843107914226497
aF0.6315689208577351
aF0.6401035389183002
aF0.828014536837856
asa(dp88
g2
(lp89
F0.942477796076938
aF1.099557428756428
aF0.18151424220741
aF0.150098315671512
aF0.020943951023932
aF0.376991118430775
asg4
(dp90
g6
L196L
sg7
L60L
sg8
L54L
sg9
L293L
sg10
L960L
sg11
L390L
sg12
L30L
sg13
L65L
ssg14
(lp91
F0.18437462086334017
aF0.2685977941496492
aF0.3208182607332453
aF0.6791817392667547
aF0.7314022058503509
aF0.8156253791366598
asg16
(dp92
g6
L731L
sg7
L196L
sg8
L117L
sg9
L70L
sg10
L330L
sg11
L51L
sg12
L386L
sg13
L167L
ssg18
V\u000ainclude "qelib1.inc";\u000aqreg err_qr[5];\u000acreg err_cr[5];\u000au3(0.942477796076938,0.0,0.0) err_qr[4];\u000au3(1.099557428756428,0.0,0.0) err_qr[3];\u000au3(0.18151424220741,0.0,0.0) err_qr[2];\u000acx err_qr[3],err_qr[2];\u000au3(0.150098315671512,0.0,0.0) err_qr[3];\u000acx err_qr[3],err_qr[4];\u000au3(0.020943951023932,0.0,0.0) err_qr[4];\u000au3(-1.570796326794897,0.0,0.0) err_qr[3];\u000ameasure err_qr[3] -> err_cr[3];\u000au3(0.376991118430775,0.0,0.0) err_qr[2];\u000acx err_qr[4],err_qr[2];\u000au3(1.570796326794897,0.0,0.0) err_qr[4];\u000ameasure err_qr[4] -> err_cr[4];\u000au3(1.570796326794897,0.0,0.0) err_qr[2];\u000ameasure err_qr[2] -> err_cr[2];\u000a
p93
sg20
V\u000ainclude "qelib1.inc";\u000aqreg main_qr[5];\u000acreg main_cr[5];\u000au3(0.942477796076938,0.0,0.0) main_qr[4];\u000au3(1.099557428756428,0.0,0.0) main_qr[3];\u000au3(0.18151424220741,0.0,0.0) main_qr[2];\u000acx main_qr[3],main_qr[2];\u000au3(0.150098315671512,0.0,0.0) main_qr[3];\u000acx main_qr[3],main_qr[4];\u000au3(0.020943951023932,0.0,0.0) main_qr[4];\u000ameasure main_qr[3] -> main_cr[3];\u000au3(0.376991118430775,0.0,0.0) main_qr[2];\u000acx main_qr[4],main_qr[2];\u000ameasure main_qr[4] -> main_cr[4];\u000ameasure main_qr[2] -> main_cr[2];\u000a
p94
sg22
(lp95
F0.2852467120492239
aF0.2911114778814988
aF0.33614544195345997
aF0.66385455804654
aF0.7088885221185012
aF0.7147532879507761
asa(dp96
g2
(lp97
F0.247836753783195
aF0.904080552533063
aF1.165879940332212
aF0.897099235525085
aF1.521927107739055
aF1.462585913171248
asg4
(dp98
g6
L304L
sg7
L296L
sg8
L417L
sg9
L157L
sg10
L302L
sg11
L75L
sg12
L326L
sg13
L171L
ssg14
(lp99
F0.2938960774659649
aF0.3342834586839319
aF0.3547280941270218
aF0.6452719058729781
aF0.6657165413160681
aF0.7061039225340351
asg16
(dp100
g6
L65L
sg7
L228L
sg8
L506L
sg9
L72L
sg10
L39L
sg11
L72L
sg12
L771L
sg13
L295L
ssg18
V\u000ainclude "qelib1.inc";\u000aqreg err_qr[5];\u000acreg err_cr[5];\u000au3(0.247836753783195,0.0,0.0) err_qr[4];\u000au3(0.904080552533063,0.0,0.0) err_qr[3];\u000au3(1.165879940332212,0.0,0.0) err_qr[2];\u000acx err_qr[3],err_qr[2];\u000au3(0.897099235525085,0.0,0.0) err_qr[3];\u000acx err_qr[3],err_qr[4];\u000au3(1.521927107739055,0.0,0.0) err_qr[4];\u000au3(-1.570796326794897,0.0,0.0) err_qr[3];\u000ameasure err_qr[3] -> err_cr[3];\u000au3(1.462585913171248,0.0,0.0) err_qr[2];\u000acx err_qr[4],err_qr[2];\u000au3(1.570796326794897,0.0,0.0) err_qr[4];\u000ameasure err_qr[4] -> err_cr[4];\u000au3(1.570796326794897,0.0,0.0) err_qr[2];\u000ameasure err_qr[2] -> err_cr[2];\u000a
p101
sg20
V\u000ainclude "qelib1.inc";\u000aqreg main_qr[5];\u000acreg main_cr[5];\u000au3(0.247836753783195,0.0,0.0) main_qr[4];\u000au3(0.904080552533063,0.0,0.0) main_qr[3];\u000au3(1.165879940332212,0.0,0.0) main_qr[2];\u000acx main_qr[3],main_qr[2];\u000au3(0.897099235525085,0.0,0.0) main_qr[3];\u000acx main_qr[3],main_qr[4];\u000au3(1.521927107739055,0.0,0.0) main_qr[4];\u000ameasure main_qr[3] -> main_cr[3];\u000au3(1.462585913171248,0.0,0.0) main_qr[2];\u000acx main_qr[4],main_qr[2];\u000ameasure main_qr[4] -> main_cr[4];\u000ameasure main_qr[2] -> main_cr[2];\u000a
p102
sg22
(lp103
F0.302152679277948
aF0.3036502153934488
aF0.32971580810623924
aF0.6702841918937608
aF0.6963497846065512
aF0.697847320722052
asa(dp104
g2
(lp105
F1.06814150222053
aF1.542871058762987
aF0.125663706143592
aF1.036725575684632
aF0.216420827247297
aF0.244346095279206
asg4
(dp106
g6
L219L
sg7
L66L
sg8
L39L
sg9
L306L
sg10
L725L
sg11
L593L
sg12
L20L
sg13
L80L
ssg14
(lp107
F0.32345704627092736
aF0.38247986253365407
aF0.4394061146970167
aF0.5605938853029833
aF0.6175201374663459
aF0.6765429537290726
asg16
(dp108
g6
L325L
sg7
L94L
sg8
L134L
sg9
L100L
sg10
L279L
sg11
L101L
sg12
L750L
sg13
L265L
ssg18
V\u000ainclude "qelib1.inc";\u000aqreg err_qr[5];\u000acreg err_cr[5];\u000au3(1.06814150222053,0.0,0.0) err_qr[4];\u000au3(1.542871058762987,0.0,0.0) err_qr[3];\u000au3(0.125663706143592,0.0,0.0) err_qr[2];\u000acx err_qr[3],err_qr[2];\u000au3(1.036725575684632,0.0,0.0) err_qr[3];\u000acx err_qr[3],err_qr[4];\u000au3(0.216420827247297,0.0,0.0) err_qr[4];\u000au3(-1.570796326794897,0.0,0.0) err_qr[3];\u000ameasure err_qr[3] -> err_cr[3];\u000au3(0.244346095279206,0.0,0.0) err_qr[2];\u000acx err_qr[4],err_qr[2];\u000au3(1.570796326794897,0.0,0.0) err_qr[4];\u000ameasure err_qr[4] -> err_cr[4];\u000au3(1.570796326794897,0.0,0.0) err_qr[2];\u000ameasure err_qr[2] -> err_cr[2];\u000a
p109
sg20
V\u000ainclude "qelib1.inc";\u000aqreg main_qr[5];\u000acreg main_cr[5];\u000au3(1.06814150222053,0.0,0.0) main_qr[4];\u000au3(1.542871058762987,0.0,0.0) main_qr[3];\u000au3(0.125663706143592,0.0,0.0) main_qr[2];\u000acx main_qr[3],main_qr[2];\u000au3(1.036725575684632,0.0,0.0) main_qr[3];\u000acx main_qr[3],main_qr[4];\u000au3(0.216420827247297,0.0,0.0) main_qr[4];\u000ameasure main_qr[3] -> main_cr[3];\u000au3(0.244346095279206,0.0,0.0) main_qr[2];\u000acx main_qr[4],main_qr[2];\u000ameasure main_qr[4] -> main_cr[4];\u000ameasure main_qr[2] -> main_cr[2];\u000a
p110
sg22
(lp111
F0.3416244128207258
aF0.3789328327438576
aF0.40545861164580627
aF0.5945413883541937
aF0.6210671672561424
aF0.6583755871792742
asa(dp112
g2
(lp113
F0.167551608191456
aF1.350884841043611
aF0.139626340159546
aF0.994837673636768
aF0.317649923862968
aF0.013962634015955
asg4
(dp114
g6
L216L
sg7
L193L
sg8
L124L
sg9
L184L
sg10
L506L
sg11
L382L
sg12
L73L
sg13
L370L
ssg14
(lp115
F0.23793821634977808
aF0.38643979447302323
aF0.478436423342819
aF0.5215635766571808
aF0.6135602055269765
aF0.7620617836502219
asg16
(dp116
g6
L646L
sg7
L82L
sg8
L130L
sg9
L202L
sg10
L110L
sg11
L64L
sg12
L785L
sg13
L29L
ssg18
V\u000ainclude "qelib1.inc";\u000aqreg err_qr[5];\u000acreg err_cr[5];\u000au3(0.167551608191456,0.0,0.0) err_qr[4];\u000au3(1.350884841043611,0.0,0.0) err_qr[3];\u000au3(0.139626340159546,0.0,0.0) err_qr[2];\u000acx err_qr[3],err_qr[2];\u000au3(0.994837673636768,0.0,0.0) err_qr[3];\u000acx err_qr[3],err_qr[4];\u000au3(0.317649923862968,0.0,0.0) err_qr[4];\u000au3(-1.570796326794897,0.0,0.0) err_qr[3];\u000ameasure err_qr[3] -> err_cr[3];\u000au3(0.013962634015955,0.0,0.0) err_qr[2];\u000acx err_qr[4],err_qr[2];\u000au3(1.570796326794897,0.0,0.0) err_qr[4];\u000ameasure err_qr[4] -> err_cr[4];\u000au3(1.570796326794897,0.0,0.0) err_qr[2];\u000ameasure err_qr[2] -> err_cr[2];\u000a
p117
sg20
V\u000ainclude "qelib1.inc";\u000aqreg main_qr[5];\u000acreg main_cr[5];\u000au3(0.167551608191456,0.0,0.0) main_qr[4];\u000au3(1.350884841043611,0.0,0.0) main_qr[3];\u000au3(0.139626340159546,0.0,0.0) main_qr[2];\u000acx main_qr[3],main_qr[2];\u000au3(0.994837673636768,0.0,0.0) main_qr[3];\u000acx main_qr[3],main_qr[4];\u000au3(0.317649923862968,0.0,0.0) main_qr[4];\u000ameasure main_qr[3] -> main_cr[3];\u000au3(0.013962634015955,0.0,0.0) main_qr[2];\u000acx main_qr[4],main_qr[2];\u000ameasure main_qr[4] -> main_cr[4];\u000ameasure main_qr[2] -> main_cr[2];\u000a
p118
sg22
(lp119
F0.18596188464339475
aF0.38041793806195884
aF0.4716923182800083
aF0.5283076817199917
aF0.6195820619380412
aF0.8140381153566052
asa(dp120
g2
(lp121
F0.544542726622231
aF1.340412865531645
aF0.356047167406843
aF0.244346095279206
aF1.036725575684632
aF0.373500459926786
asg4
(dp122
g6
L121L
sg7
L246L
sg8
L145L
sg9
L259L
sg10
L702L
sg11
L248L
sg12
L163L
sg13
L164L
ssg14
(lp123
F0.22938320725793826
aF0.27256804153769415
aF0.37841713457480947
aF0.6215828654251903
aF0.7274319584623056
aF0.7706167927420617
asg16
(dp124
g6
L306L
sg7
L108L
sg8
L247L
sg9
L60L
sg10
L454L
sg11
L55L
sg12
L776L
sg13
L42L
ssg18
V\u000ainclude "qelib1.inc";\u000aqreg err_qr[5];\u000acreg err_cr[5];\u000au3(0.544542726622231,0.0,0.0) err_qr[4];\u000au3(1.340412865531645,0.0,0.0) err_qr[3];\u000au3(0.356047167406843,0.0,0.0) err_qr[2];\u000acx err_qr[3],err_qr[2];\u000au3(0.244346095279206,0.0,0.0) err_qr[3];\u000acx err_qr[3],err_qr[4];\u000au3(1.036725575684632,0.0,0.0) err_qr[4];\u000au3(-1.570796326794897,0.0,0.0) err_qr[3];\u000ameasure err_qr[3] -> err_cr[3];\u000au3(0.373500459926786,0.0,0.0) err_qr[2];\u000acx err_qr[4],err_qr[2];\u000au3(1.570796326794897,0.0,0.0) err_qr[4];\u000ameasure err_qr[4] -> err_cr[4];\u000au3(1.570796326794897,0.0,0.0) err_qr[2];\u000ameasure err_qr[2] -> err_cr[2];\u000a
p125
sg20
V\u000ainclude "qelib1.inc";\u000aqreg main_qr[5];\u000acreg main_cr[5];\u000au3(0.544542726622231,0.0,0.0) main_qr[4];\u000au3(1.340412865531645,0.0,0.0) main_qr[3];\u000au3(0.356047167406843,0.0,0.0) main_qr[2];\u000acx main_qr[3],main_qr[2];\u000au3(0.244346095279206,0.0,0.0) main_qr[3];\u000acx main_qr[3],main_qr[4];\u000au3(1.036725575684632,0.0,0.0) main_qr[4];\u000ameasure main_qr[3] -> main_cr[3];\u000au3(0.373500459926786,0.0,0.0) main_qr[2];\u000acx main_qr[4],main_qr[2];\u000ameasure main_qr[4] -> main_cr[4];\u000ameasure main_qr[2] -> main_cr[2];\u000a
p126
sg22
(lp127
F0.22241135784375043
aF0.2558549805083001
aF0.3971347728379194
aF0.6028652271620806
aF0.7441450194917
aF0.7775886421562496
asa(dp128
g2
(lp129
F1.064650843716541
aF1.462585913171248
aF0.010471975511966
aF1.207767842380076
aF1.078613477732496
aF1.560324351282931
asg4
(dp130
g6
L212L
sg7
L196L
sg8
L117L
sg9
L138L
sg10
L502L
sg11
L558L
sg12
L270L
sg13
L55L
ssg14
(lp131
F0.10597282248428597
aF0.37705163619632837
aF0.45204704467918594
aF0.5479529553208141
aF0.6229483638036717
aF0.894027177515714
asg16
(dp132
g6
L111L
sg7
L60L
sg8
L275L
sg9
L171L
sg10
L532L
sg11
L55L
sg12
L811L
sg13
L33L
ssg18
V\u000ainclude "qelib1.inc";\u000aqreg err_qr[5];\u000acreg err_cr[5];\u000au3(1.064650843716541,0.0,0.0) err_qr[4];\u000au3(1.462585913171248,0.0,0.0) err_qr[3];\u000au3(0.010471975511966,0.0,0.0) err_qr[2];\u000acx err_qr[3],err_qr[2];\u000au3(1.207767842380076,0.0,0.0) err_qr[3];\u000acx err_qr[3],err_qr[4];\u000au3(1.078613477732496,0.0,0.0) err_qr[4];\u000au3(-1.570796326794897,0.0,0.0) err_qr[3];\u000ameasure err_qr[3] -> err_cr[3];\u000au3(1.560324351282931,0.0,0.0) err_qr[2];\u000acx err_qr[4],err_qr[2];\u000au3(1.570796326794897,0.0,0.0) err_qr[4];\u000ameasure err_qr[4] -> err_cr[4];\u000au3(1.570796326794897,0.0,0.0) err_qr[2];\u000ameasure err_qr[2] -> err_cr[2];\u000a
p133
sg20
V\u000ainclude "qelib1.inc";\u000aqreg main_qr[5];\u000acreg main_cr[5];\u000au3(1.064650843716541,0.0,0.0) main_qr[4];\u000au3(1.462585913171248,0.0,0.0) main_qr[3];\u000au3(0.010471975511966,0.0,0.0) main_qr[2];\u000acx main_qr[3],main_qr[2];\u000au3(1.207767842380076,0.0,0.0) main_qr[3];\u000acx main_qr[3],main_qr[4];\u000au3(1.078613477732496,0.0,0.0) main_qr[4];\u000ameasure main_qr[3] -> main_cr[3];\u000au3(1.560324351282931,0.0,0.0) main_qr[2];\u000acx main_qr[4],main_qr[2];\u000ameasure main_qr[4] -> main_cr[4];\u000ameasure main_qr[2] -> main_cr[2];\u000a
p134
sg22
(lp135
F0.12646197151839567
aF0.3711150215822528
aF0.4774913465398123
aF0.5225086534601877
aF0.6288849784177473
aF0.8735380284816043
asa(dp136
g2
(lp137
F0.335103216382911
aF0.020943951023932
aF0.792379480405425
aF1.162389281828223
aF0.411897703470662
aF0.150098315671512
asg4
(dp138
g6
L58L
sg7
L179L
sg8
L29L
sg9
L403L
sg10
L1020L
sg11
L28L
sg12
L21L
sg13
L310L
ssg14
(lp139
F0.09053724281290804
aF0.25545388149069576
aF0.294904158028308
aF0.7050958419716921
aF0.7445461185093043
aF0.9094627571870919
asg16
(dp140
g6
L591L
sg7
L323L
sg8
L162L
sg9
L296L
sg10
L195L
sg11
L44L
sg12
L415L
sg13
L22L
ssg18
V\u000ainclude "qelib1.inc";\u000aqreg err_qr[5];\u000acreg err_cr[5];\u000au3(0.335103216382911,0.0,0.0) err_qr[4];\u000au3(0.020943951023932,0.0,0.0) err_qr[3];\u000au3(0.792379480405425,0.0,0.0) err_qr[2];\u000acx err_qr[3],err_qr[2];\u000au3(1.162389281828223,0.0,0.0) err_qr[3];\u000acx err_qr[3],err_qr[4];\u000au3(0.411897703470662,0.0,0.0) err_qr[4];\u000au3(-1.570796326794897,0.0,0.0) err_qr[3];\u000ameasure err_qr[3] -> err_cr[3];\u000au3(0.150098315671512,0.0,0.0) err_qr[2];\u000acx err_qr[4],err_qr[2];\u000au3(1.570796326794897,0.0,0.0) err_qr[4];\u000ameasure err_qr[4] -> err_cr[4];\u000au3(1.570796326794897,0.0,0.0) err_qr[2];\u000ameasure err_qr[2] -> err_cr[2];\u000a
p141
sg20
V\u000ainclude "qelib1.inc";\u000aqreg main_qr[5];\u000acreg main_cr[5];\u000au3(0.335103216382911,0.0,0.0) main_qr[4];\u000au3(0.020943951023932,0.0,0.0) main_qr[3];\u000au3(0.792379480405425,0.0,0.0) main_qr[2];\u000acx main_qr[3],main_qr[2];\u000au3(1.162389281828223,0.0,0.0) main_qr[3];\u000acx main_qr[3],main_qr[4];\u000au3(0.411897703470662,0.0,0.0) main_qr[4];\u000ameasure main_qr[3] -> main_cr[3];\u000au3(0.150098315671512,0.0,0.0) main_qr[2];\u000acx main_qr[4],main_qr[2];\u000ameasure main_qr[4] -> main_cr[4];\u000ameasure main_qr[2] -> main_cr[2];\u000a
p142
sg22
(lp143
F0.056795525407484004
aF0.27971154743247495
aF0.32418281074862193
aF0.675817189251378
aF0.720288452567525
aF0.9432044745925159
asa(dp144
g2
(lp145
F1.151917306316258
aF1.17286125734019
aF0.589921287174083
aF0.247836753783195
aF0.925024503556995
aF1.434660645139339
asg4
(dp146
g6
L487L
sg7
L193L
sg8
L165L
sg9
L258L
sg10
L624L
sg11
L200L
sg12
L90L
sg13
L31L
ssg14
(lp147
F0.08987442200912132
aF0.20203298663488073
aF0.21867308544549963
aF0.7813269145545003
aF0.7979670133651193
aF0.9101255779908787
asg16
(dp148
g6
L75L
sg7
L137L
sg8
L790L
sg9
L141L
sg10
L225L
sg11
L35L
sg12
L602L
sg13
L43L
ssg18
V\u000ainclude "qelib1.inc";\u000aqreg err_qr[5];\u000acreg err_cr[5];\u000au3(1.151917306316258,0.0,0.0) err_qr[4];\u000au3(1.17286125734019,0.0,0.0) err_qr[3];\u000au3(0.589921287174083,0.0,0.0) err_qr[2];\u000acx err_qr[3],err_qr[2];\u000au3(0.247836753783195,0.0,0.0) err_qr[3];\u000acx err_qr[3],err_qr[4];\u000au3(0.925024503556995,0.0,0.0) err_qr[4];\u000au3(-1.570796326794897,0.0,0.0) err_qr[3];\u000ameasure err_qr[3] -> err_cr[3];\u000au3(1.434660645139339,0.0,0.0) err_qr[2];\u000acx err_qr[4],err_qr[2];\u000au3(1.570796326794897,0.0,0.0) err_qr[4];\u000ameasure err_qr[4] -> err_cr[4];\u000au3(1.570796326794897,0.0,0.0) err_qr[2];\u000ameasure err_qr[2] -> err_cr[2];\u000a
p149
sg20
V\u000ainclude "qelib1.inc";\u000aqreg main_qr[5];\u000acreg main_cr[5];\u000au3(1.151917306316258,0.0,0.0) main_qr[4];\u000au3(1.17286125734019,0.0,0.0) main_qr[3];\u000au3(0.589921287174083,0.0,0.0) main_qr[2];\u000acx main_qr[3],main_qr[2];\u000au3(0.247836753783195,0.0,0.0) main_qr[3];\u000acx main_qr[3],main_qr[4];\u000au3(0.925024503556995,0.0,0.0) main_qr[4];\u000ameasure main_qr[3] -> main_cr[3];\u000au3(1.434660645139339,0.0,0.0) main_qr[2];\u000acx main_qr[4],main_qr[2];\u000ameasure main_qr[4] -> main_cr[4];\u000ameasure main_qr[2] -> main_cr[2];\u000a
p150
sg22
(lp151
F0.13737925205665735
aF0.26117405845933905
aF0.2631921514110643
aF0.7368078485889358
aF0.738825941540661
aF0.8626207479433426
asa(dp152
g2
(lp153
F0.226892802759263
aF0.027925268031909
aF0.394444410950718
aF1.211258500884065
aF0.760963553869528
aF0.541052068118242
asg4
(dp154
g6
L38L
sg7
L242L
sg8
L46L
sg9
L314L
sg10
L973L
sg11
L44L
sg12
L23L
sg13
L368L
ssg14
(lp155
F0.09634220316157854
aF0.2991306715174206
aF0.34093628079164545
aF0.6590637192083545
aF0.7008693284825793
aF0.9036577968384214
asg16
(dp156
g6
L545L
sg7
L294L
sg8
L198L
sg9
L239L
sg10
L285L
sg11
L58L
sg12
L398L
sg13
L31L
ssg18
V\u000ainclude "qelib1.inc";\u000aqreg err_qr[5];\u000acreg err_cr[5];\u000au3(0.226892802759263,0.0,0.0) err_qr[4];\u000au3(0.027925268031909,0.0,0.0) err_qr[3];\u000au3(0.394444410950718,0.0,0.0) err_qr[2];\u000acx err_qr[3],err_qr[2];\u000au3(1.211258500884065,0.0,0.0) err_qr[3];\u000acx err_qr[3],err_qr[4];\u000au3(0.760963553869528,0.0,0.0) err_qr[4];\u000au3(-1.570796326794897,0.0,0.0) err_qr[3];\u000ameasure err_qr[3] -> err_cr[3];\u000au3(0.541052068118242,0.0,0.0) err_qr[2];\u000acx err_qr[4],err_qr[2];\u000au3(1.570796326794897,0.0,0.0) err_qr[4];\u000ameasure err_qr[4] -> err_cr[4];\u000au3(1.570796326794897,0.0,0.0) err_qr[2];\u000ameasure err_qr[2] -> err_cr[2];\u000a
p157
sg20
V\u000ainclude "qelib1.inc";\u000aqreg main_qr[5];\u000acreg main_cr[5];\u000au3(0.226892802759263,0.0,0.0) main_qr[4];\u000au3(0.027925268031909,0.0,0.0) main_qr[3];\u000au3(0.394444410950718,0.0,0.0) main_qr[2];\u000acx main_qr[3],main_qr[2];\u000au3(1.211258500884065,0.0,0.0) main_qr[3];\u000acx main_qr[3],main_qr[4];\u000au3(0.760963553869528,0.0,0.0) main_qr[4];\u000ameasure main_qr[3] -> main_cr[3];\u000au3(0.541052068118242,0.0,0.0) main_qr[2];\u000acx main_qr[4],main_qr[2];\u000ameasure main_qr[4] -> main_cr[4];\u000ameasure main_qr[2] -> main_cr[2];\u000a
p158
sg22
(lp159
F0.06525032230365008
aF0.3020027057177528
aF0.33124954788833716
aF0.6687504521116628
aF0.6979972942822472
aF0.9347496776963498
asa(dp160
g2
(lp161
F0.44331363000656
aF1.497492498211135
aF0.380481776934764
aF0.530580092606276
aF0.492182849062401
aF0.694641042293743
asg4
(dp162
g6
L173L
sg7
L110L
sg8
L175L
sg9
L179L
sg10
L696L
sg11
L349L
sg12
L130L
sg13
L236L
ssg14
(lp163
F0.08014384137504854
aF0.32300292212434933
aF0.40148240223484394
aF0.598517597765156
aF0.6769970778756506
aF0.9198561586249515
asg16
(dp164
g6
L396L
sg7
L117L
sg8
L191L
sg9
L67L
sg10
L153L
sg11
L64L
sg12
L1026L
sg13
L34L
ssg18
V\u000ainclude "qelib1.inc";\u000aqreg err_qr[5];\u000acreg err_cr[5];\u000au3(0.44331363000656,0.0,0.0) err_qr[4];\u000au3(1.497492498211135,0.0,0.0) err_qr[3];\u000au3(0.380481776934764,0.0,0.0) err_qr[2];\u000acx err_qr[3],err_qr[2];\u000au3(0.530580092606276,0.0,0.0) err_qr[3];\u000acx err_qr[3],err_qr[4];\u000au3(0.492182849062401,0.0,0.0) err_qr[4];\u000au3(-1.570796326794897,0.0,0.0) err_qr[3];\u000ameasure err_qr[3] -> err_cr[3];\u000au3(0.694641042293743,0.0,0.0) err_qr[2];\u000acx err_qr[4],err_qr[2];\u000au3(1.570796326794897,0.0,0.0) err_qr[4];\u000ameasure err_qr[4] -> err_cr[4];\u000au3(1.570796326794897,0.0,0.0) err_qr[2];\u000ameasure err_qr[2] -> err_cr[2];\u000a
p165
sg20
V\u000ainclude "qelib1.inc";\u000aqreg main_qr[5];\u000acreg main_cr[5];\u000au3(0.44331363000656,0.0,0.0) main_qr[4];\u000au3(1.497492498211135,0.0,0.0) main_qr[3];\u000au3(0.380481776934764,0.0,0.0) main_qr[2];\u000acx main_qr[3],main_qr[2];\u000au3(0.530580092606276,0.0,0.0) main_qr[3];\u000acx main_qr[3],main_qr[4];\u000au3(0.492182849062401,0.0,0.0) main_qr[4];\u000ameasure main_qr[3] -> main_cr[3];\u000au3(0.694641042293743,0.0,0.0) main_qr[2];\u000acx main_qr[4],main_qr[2];\u000ameasure main_qr[4] -> main_cr[4];\u000ameasure main_qr[2] -> main_cr[2];\u000a
p166
sg22
(lp167
F0.16695853931909513
aF0.2844333672392918
aF0.39666302820684224
aF0.6033369717931578
aF0.7155666327607082
aF0.8330414606809049
asa(dp168
g2
(lp169
F0.15707963267949
aF1.525417766243044
aF0.136135681655558
aF1.347394182539623
aF0.705113017805709
aF0.460766922526503
asg4
(dp170
g6
L183L
sg7
L303L
sg8
L128L
sg9
L143L
sg10
L324L
sg11
L480L
sg12
L86L
sg13
L401L
ssg14
(lp171
F0.24199976416793123
aF0.2520587314508564
aF0.43864633310265244
aF0.5613536668973476
aF0.7479412685491436
aF0.7580002358320688
asg16
(dp172
g6
L396L
sg7
L121L
sg8
L178L
sg9
L124L
sg10
L174L
sg11
L78L
sg12
L919L
sg13
L58L
ssg18
V\u000ainclude "qelib1.inc";\u000aqreg err_qr[5];\u000acreg err_cr[5];\u000au3(0.15707963267949,0.0,0.0) err_qr[4];\u000au3(1.525417766243044,0.0,0.0) err_qr[3];\u000au3(0.136135681655558,0.0,0.0) err_qr[2];\u000acx err_qr[3],err_qr[2];\u000au3(1.347394182539623,0.0,0.0) err_qr[3];\u000acx err_qr[3],err_qr[4];\u000au3(0.705113017805709,0.0,0.0) err_qr[4];\u000au3(-1.570796326794897,0.0,0.0) err_qr[3];\u000ameasure err_qr[3] -> err_cr[3];\u000au3(0.460766922526503,0.0,0.0) err_qr[2];\u000acx err_qr[4],err_qr[2];\u000au3(1.570796326794897,0.0,0.0) err_qr[4];\u000ameasure err_qr[4] -> err_cr[4];\u000au3(1.570796326794897,0.0,0.0) err_qr[2];\u000ameasure err_qr[2] -> err_cr[2];\u000a
p173
sg20
V\u000ainclude "qelib1.inc";\u000aqreg main_qr[5];\u000acreg main_cr[5];\u000au3(0.15707963267949,0.0,0.0) main_qr[4];\u000au3(1.525417766243044,0.0,0.0) main_qr[3];\u000au3(0.136135681655558,0.0,0.0) main_qr[2];\u000acx main_qr[3],main_qr[2];\u000au3(1.347394182539623,0.0,0.0) main_qr[3];\u000acx main_qr[3],main_qr[4];\u000au3(0.705113017805709,0.0,0.0) main_qr[4];\u000ameasure main_qr[3] -> main_cr[3];\u000au3(0.460766922526503,0.0,0.0) main_qr[2];\u000acx main_qr[4],main_qr[2];\u000ameasure main_qr[4] -> main_cr[4];\u000ameasure main_qr[2] -> main_cr[2];\u000a
p174
sg22
(lp175
F0.2234336034327289
aF0.2532898886165427
aF0.4134474138228661
aF0.5865525861771339
aF0.7467101113834572
aF0.7765663965672711
asa(dp176
g2
(lp177
F0.3385938748869
aF0.39095375244673
aF0.474729556542458
aF0.44331363000656
aF1.085594794740473
aF0.44331363000656
asg4
(dp178
g6
L69L
sg7
L206L
sg8
L62L
sg9
L492L
sg10
L949L
sg11
L96L
sg12
L36L
sg13
L138L
ssg14
(lp179
F0.10880012958122065
aF0.11270906440530726
aF0.21393372511847725
aF0.7860662748815228
aF0.8872909355946927
aF0.8911998704187793
asg16
(dp180
g6
L533L
sg7
L228L
sg8
L326L
sg9
L70L
sg10
L544L
sg11
L27L
sg12
L293L
sg13
L27L
ssg18
V\u000ainclude "qelib1.inc";\u000aqreg err_qr[5];\u000acreg err_cr[5];\u000au3(0.3385938748869,0.0,0.0) err_qr[4];\u000au3(0.39095375244673,0.0,0.0) err_qr[3];\u000au3(0.474729556542458,0.0,0.0) err_qr[2];\u000acx err_qr[3],err_qr[2];\u000au3(0.44331363000656,0.0,0.0) err_qr[3];\u000acx err_qr[3],err_qr[4];\u000au3(1.085594794740473,0.0,0.0) err_qr[4];\u000au3(-1.570796326794897,0.0,0.0) err_qr[3];\u000ameasure err_qr[3] -> err_cr[3];\u000au3(0.44331363000656,0.0,0.0) err_qr[2];\u000acx err_qr[4],err_qr[2];\u000au3(1.570796326794897,0.0,0.0) err_qr[4];\u000ameasure err_qr[4] -> err_cr[4];\u000au3(1.570796326794897,0.0,0.0) err_qr[2];\u000ameasure err_qr[2] -> err_cr[2];\u000a
p181
sg20
V\u000ainclude "qelib1.inc";\u000aqreg main_qr[5];\u000acreg main_cr[5];\u000au3(0.3385938748869,0.0,0.0) main_qr[4];\u000au3(0.39095375244673,0.0,0.0) main_qr[3];\u000au3(0.474729556542458,0.0,0.0) main_qr[2];\u000acx main_qr[3],main_qr[2];\u000au3(0.44331363000656,0.0,0.0) main_qr[3];\u000acx main_qr[3],main_qr[4];\u000au3(1.085594794740473,0.0,0.0) main_qr[4];\u000ameasure main_qr[3] -> main_cr[3];\u000au3(0.44331363000656,0.0,0.0) main_qr[2];\u000acx main_qr[4],main_qr[2];\u000ameasure main_qr[4] -> main_cr[4];\u000ameasure main_qr[2] -> main_cr[2];\u000a
p182
sg22
(lp183
F0.12078869701604222
aF0.17718257172940732
aF0.22861663721600894
aF0.771383362783991
aF0.8228174282705927
aF0.8792113029839578
asa(dp184
g2
(lp185
F0.555014702134197
aF1.110029404268394
aF0.383972435438752
aF0.275762021815104
aF1.385791426083498
aF0.024434609527921
asg4
(dp186
g6
L132L
sg7
L385L
sg8
L93L
sg9
L247L
sg10
L646L
sg11
L232L
sg12
L122L
sg13
L191L
ssg14
(lp187
F0.26720924178702543
aF0.2950983147286075
aF0.3046483793157824
aF0.6953516206842176
aF0.7049016852713925
aF0.7327907582129746
asg16
(dp188
g6
L261L
sg7
L78L
sg8
L185L
sg9
L107L
sg10
L728L
sg11
L46L
sg12
L585L
sg13
L58L
ssg18
V\u000ainclude "qelib1.inc";\u000aqreg err_qr[5];\u000acreg err_cr[5];\u000au3(0.555014702134197,0.0,0.0) err_qr[4];\u000au3(1.110029404268394,0.0,0.0) err_qr[3];\u000au3(0.383972435438752,0.0,0.0) err_qr[2];\u000acx err_qr[3],err_qr[2];\u000au3(0.275762021815104,0.0,0.0) err_qr[3];\u000acx err_qr[3],err_qr[4];\u000au3(1.385791426083498,0.0,0.0) err_qr[4];\u000au3(-1.570796326794897,0.0,0.0) err_qr[3];\u000ameasure err_qr[3] -> err_cr[3];\u000au3(0.024434609527921,0.0,0.0) err_qr[2];\u000acx err_qr[4],err_qr[2];\u000au3(1.570796326794897,0.0,0.0) err_qr[4];\u000ameasure err_qr[4] -> err_cr[4];\u000au3(1.570796326794897,0.0,0.0) err_qr[2];\u000ameasure err_qr[2] -> err_cr[2];\u000a
p189
sg20
V\u000ainclude "qelib1.inc";\u000aqreg main_qr[5];\u000acreg main_cr[5];\u000au3(0.555014702134197,0.0,0.0) main_qr[4];\u000au3(1.110029404268394,0.0,0.0) main_qr[3];\u000au3(0.383972435438752,0.0,0.0) main_qr[2];\u000acx main_qr[3],main_qr[2];\u000au3(0.275762021815104,0.0,0.0) main_qr[3];\u000acx main_qr[3],main_qr[4];\u000au3(1.385791426083498,0.0,0.0) main_qr[4];\u000ameasure main_qr[3] -> main_cr[3];\u000au3(0.024434609527921,0.0,0.0) main_qr[2];\u000acx main_qr[4],main_qr[2];\u000ameasure main_qr[4] -> main_cr[4];\u000ameasure main_qr[2] -> main_cr[2];\u000a
p190
sg22
(lp191
F0.21335894314623527
aF0.28117916709032664
aF0.3411711832897502
aF0.6588288167102498
aF0.7188208329096735
aF0.7866410568537647
asa(dp192
g2
(lp193
F0.0
aF1.445132620651305
aF1.452113937659282
aF0.010471975511966
aF0.024434609527921
aF1.096066770252439
asg4
(dp194
g6
L430L
sg7
L129L
sg8
L95L
sg9
L108L
sg10
L596L
sg11
L86L
sg12
L215L
sg13
L389L
ssg14
(lp195
F0.2652647979465301
aF0.4424798297216506
aF0.44249499999782627
aF0.5575050000021737
aF0.5575201702783493
aF0.7347352020534699
asg16
(dp196
g6
L100L
sg7
L899L
sg8
L134L
sg9
L26L
sg10
L26L
sg11
L46L
sg12
L773L
sg13
L44L
ssg18
V\u000ainclude "qelib1.inc";\u000aqreg err_qr[5];\u000acreg err_cr[5];\u000au3(0.0,0.0,0.0) err_qr[4];\u000au3(1.445132620651305,0.0,0.0) err_qr[3];\u000au3(1.452113937659282,0.0,0.0) err_qr[2];\u000acx err_qr[3],err_qr[2];\u000au3(0.010471975511966,0.0,0.0) err_qr[3];\u000acx err_qr[3],err_qr[4];\u000au3(0.024434609527921,0.0,0.0) err_qr[4];\u000au3(-1.570796326794897,0.0,0.0) err_qr[3];\u000ameasure err_qr[3] -> err_cr[3];\u000au3(1.096066770252439,0.0,0.0) err_qr[2];\u000acx err_qr[4],err_qr[2];\u000au3(1.570796326794897,0.0,0.0) err_qr[4];\u000ameasure err_qr[4] -> err_cr[4];\u000au3(1.570796326794897,0.0,0.0) err_qr[2];\u000ameasure err_qr[2] -> err_cr[2];\u000a
p197
sg20
V\u000ainclude "qelib1.inc";\u000aqreg main_qr[5];\u000acreg main_cr[5];\u000au3(0.0,0.0,0.0) main_qr[4];\u000au3(1.445132620651305,0.0,0.0) main_qr[3];\u000au3(1.452113937659282,0.0,0.0) main_qr[2];\u000acx main_qr[3],main_qr[2];\u000au3(0.010471975511966,0.0,0.0) main_qr[3];\u000acx main_qr[3],main_qr[4];\u000au3(0.024434609527921,0.0,0.0) main_qr[4];\u000ameasure main_qr[3] -> main_cr[3];\u000au3(1.096066770252439,0.0,0.0) main_qr[2];\u000acx main_qr[4],main_qr[2];\u000ameasure main_qr[4] -> main_cr[4];\u000ameasure main_qr[2] -> main_cr[2];\u000a
p198
sg22
(lp199
F0.37145955519636087
aF0.4022888338002147
aF0.4678883143604348
aF0.5321116856395652
aF0.5977111661997854
aF0.628540444803639
asa(dp200
g2
(lp201
F0.006981317007977
aF1.410226035611418
aF0.038397243543875
aF1.305506280491759
aF0.897099235525085
aF0.219911485751285
asg4
(dp202
g6
L295L
sg7
L381L
sg8
L119L
sg9
L119L
sg10
L226L
sg11
L401L
sg12
L93L
sg13
L414L
ssg14
(lp203
F0.15983651294299672
aF0.35146624215003386
aF0.4972639313838766
aF0.5027360686161234
aF0.6485337578499661
aF0.8401634870570034
asg16
(dp204
g6
L443L
sg7
L139L
sg8
L166L
sg9
L157L
sg10
L229L
sg11
L96L
sg12
L721L
sg13
L97L
ssg18
V\u000ainclude "qelib1.inc";\u000aqreg err_qr[5];\u000acreg err_cr[5];\u000au3(0.006981317007977,0.0,0.0) err_qr[4];\u000au3(1.410226035611418,0.0,0.0) err_qr[3];\u000au3(0.038397243543875,0.0,0.0) err_qr[2];\u000acx err_qr[3],err_qr[2];\u000au3(1.305506280491759,0.0,0.0) err_qr[3];\u000acx err_qr[3],err_qr[4];\u000au3(0.897099235525085,0.0,0.0) err_qr[4];\u000au3(-1.570796326794897,0.0,0.0) err_qr[3];\u000ameasure err_qr[3] -> err_cr[3];\u000au3(0.219911485751285,0.0,0.0) err_qr[2];\u000acx err_qr[4],err_qr[2];\u000au3(1.570796326794897,0.0,0.0) err_qr[4];\u000ameasure err_qr[4] -> err_cr[4];\u000au3(1.570796326794897,0.0,0.0) err_qr[2];\u000ameasure err_qr[2] -> err_cr[2];\u000a
p205
sg20
V\u000ainclude "qelib1.inc";\u000aqreg main_qr[5];\u000acreg main_cr[5];\u000au3(0.006981317007977,0.0,0.0) main_qr[4];\u000au3(1.410226035611418,0.0,0.0) main_qr[3];\u000au3(0.038397243543875,0.0,0.0) main_qr[2];\u000acx main_qr[3],main_qr[2];\u000au3(1.305506280491759,0.0,0.0) main_qr[3];\u000acx main_qr[3],main_qr[4];\u000au3(0.897099235525085,0.0,0.0) main_qr[4];\u000ameasure main_qr[3] -> main_cr[3];\u000au3(0.219911485751285,0.0,0.0) main_qr[2];\u000acx main_qr[4],main_qr[2];\u000ameasure main_qr[4] -> main_cr[4];\u000ameasure main_qr[2] -> main_cr[2];\u000a
p206
sg22
(lp207
F0.2415843274478952
aF0.29570228474718685
aF0.47700407843883474
aF0.5229959215611653
aF0.7042977152528132
aF0.7584156725521047
asa(dp208
g2
(lp209
F0.041887902047864
aF1.553343034274953
aF0.027925268031909
aF0.621337213709981
aF0.370009801422798
aF1.071632160724518
asg4
(dp210
g6
L207L
sg7
L115L
sg8
L303L
sg9
L141L
sg10
L480L
sg11
L384L
sg12
L187L
sg13
L231L
ssg14
(lp211
F0.08057557464040455
aF0.4203631676256045
aF0.4987610775026344
aF0.5012389224973656
aF0.5796368323743956
aF0.9194244253595955
asg16
(dp212
g6
L598L
sg7
L128L
sg8
L205L
sg9
L129L
sg10
L99L
sg11
L65L
sg12
L788L
sg13
L36L
ssg18
V\u000ainclude "qelib1.inc";\u000aqreg err_qr[5];\u000acreg err_cr[5];\u000au3(0.041887902047864,0.0,0.0) err_qr[4];\u000au3(1.553343034274953,0.0,0.0) err_qr[3];\u000au3(0.027925268031909,0.0,0.0) err_qr[2];\u000acx err_qr[3],err_qr[2];\u000au3(0.621337213709981,0.0,0.0) err_qr[3];\u000acx err_qr[3],err_qr[4];\u000au3(0.370009801422798,0.0,0.0) err_qr[4];\u000au3(-1.570796326794897,0.0,0.0) err_qr[3];\u000ameasure err_qr[3] -> err_cr[3];\u000au3(1.071632160724518,0.0,0.0) err_qr[2];\u000acx err_qr[4],err_qr[2];\u000au3(1.570796326794897,0.0,0.0) err_qr[4];\u000ameasure err_qr[4] -> err_cr[4];\u000au3(1.570796326794897,0.0,0.0) err_qr[2];\u000ameasure err_qr[2] -> err_cr[2];\u000a
p213
sg20
V\u000ainclude "qelib1.inc";\u000aqreg main_qr[5];\u000acreg main_cr[5];\u000au3(0.041887902047864,0.0,0.0) main_qr[4];\u000au3(1.553343034274953,0.0,0.0) main_qr[3];\u000au3(0.027925268031909,0.0,0.0) main_qr[2];\u000acx main_qr[3],main_qr[2];\u000au3(0.621337213709981,0.0,0.0) main_qr[3];\u000acx main_qr[3],main_qr[4];\u000au3(0.370009801422798,0.0,0.0) main_qr[4];\u000ameasure main_qr[3] -> main_cr[3];\u000au3(1.071632160724518,0.0,0.0) main_qr[2];\u000acx main_qr[4],main_qr[2];\u000ameasure main_qr[4] -> main_cr[4];\u000ameasure main_qr[2] -> main_cr[2];\u000a
p214
sg22
(lp215
F0.19015370826397893
aF0.3948459374937313
aF0.4603408602421458
aF0.5396591397578542
aF0.6051540625062687
aF0.8098462917360211
asa(dp216
g2
(lp217
F0.006981317007977
aF0.52010811709431
aF0.247836753783195
aF1.434660645139339
aF0.188495559215388
aF0.380481776934764
asg4
(dp218
g6
L118L
sg7
L263L
sg8
L76L
sg9
L212L
sg10
L713L
sg11
L89L
sg12
L46L
sg13
L531L
ssg14
(lp219
F0.19388361933115564
aF0.46604434715113574
aF0.49659038821254037
aF0.5034096117874597
aF0.5339556528488643
aF0.8061163806688443
asg16
(dp220
g6
L713L
sg7
L73L
sg8
L133L
sg9
L338L
sg10
L123L
sg11
L46L
sg12
L595L
sg13
L27L
ssg18
V\u000ainclude "qelib1.inc";\u000aqreg err_qr[5];\u000acreg err_cr[5];\u000au3(0.006981317007977,0.0,0.0) err_qr[4];\u000au3(0.52010811709431,0.0,0.0) err_qr[3];\u000au3(0.247836753783195,0.0,0.0) err_qr[2];\u000acx err_qr[3],err_qr[2];\u000au3(1.434660645139339,0.0,0.0) err_qr[3];\u000acx err_qr[3],err_qr[4];\u000au3(0.188495559215388,0.0,0.0) err_qr[4];\u000au3(-1.570796326794897,0.0,0.0) err_qr[3];\u000ameasure err_qr[3] -> err_cr[3];\u000au3(0.380481776934764,0.0,0.0) err_qr[2];\u000acx err_qr[4],err_qr[2];\u000au3(1.570796326794897,0.0,0.0) err_qr[4];\u000ameasure err_qr[4] -> err_cr[4];\u000au3(1.570796326794897,0.0,0.0) err_qr[2];\u000ameasure err_qr[2] -> err_cr[2];\u000a
p221
sg20
V\u000ainclude "qelib1.inc";\u000aqreg main_qr[5];\u000acreg main_cr[5];\u000au3(0.006981317007977,0.0,0.0) main_qr[4];\u000au3(0.52010811709431,0.0,0.0) main_qr[3];\u000au3(0.247836753783195,0.0,0.0) main_qr[2];\u000acx main_qr[3],main_qr[2];\u000au3(1.434660645139339,0.0,0.0) main_qr[3];\u000acx main_qr[3],main_qr[4];\u000au3(0.188495559215388,0.0,0.0) main_qr[4];\u000ameasure main_qr[3] -> main_cr[3];\u000au3(0.380481776934764,0.0,0.0) main_qr[2];\u000acx main_qr[4],main_qr[2];\u000ameasure main_qr[4] -> main_cr[4];\u000ameasure main_qr[2] -> main_cr[2];\u000a
p222
sg22
(lp223
F0.09223574635096432
aF0.41865462985280133
aF0.42817118926393244
aF0.5718288107360675
aF0.5813453701471987
aF0.9077642536490356
asa(dp224
Vparameters
p225
(lp226
F1.308996938995747
aF1.434660645139339
aF0.132645023151569
aF0.300196631343025
aF1.127482696788337
aF1.448623279155294
asVerr-counts
p227
(dp228
V00000
p229
L364L
sV00100
p230
L233L
sV10000
p231
L155L
sV11100
p232
L228L
sV10100
p233
L488L
sV01000
p234
L326L
sV11000
p235
L149L
sV01100
p236
L105L
ssVexp-ON
p237
(lp238
F0.12401836448227677
aF0.39452672897421404
aF0.40896991631743984
aF0.5910300836825602
aF0.605473271025786
aF0.8759816355177231
asVmain-counts
p239
(dp240
g229
L79L
sg230
L80L
sg231
L499L
sg232
L346L
sg233
L368L
sg234
L49L
sg235
L581L
sg236
L46L
ssVerr-qasm
p241
V\u000ainclude "qelib1.inc";\u000aqreg err_qr[5];\u000acreg err_cr[5];\u000au3(1.308996938995747,0.0,0.0) err_qr[4];\u000au3(1.434660645139339,0.0,0.0) err_qr[3];\u000au3(0.132645023151569,0.0,0.0) err_qr[2];\u000acx err_qr[3],err_qr[2];\u000au3(0.300196631343025,0.0,0.0) err_qr[3];\u000acx err_qr[3],err_qr[4];\u000au3(1.127482696788337,0.0,0.0) err_qr[4];\u000au3(-1.570796326794897,0.0,0.0) err_qr[3];\u000ameasure err_qr[3] -> err_cr[3];\u000au3(1.448623279155294,0.0,0.0) err_qr[2];\u000acx err_qr[4],err_qr[2];\u000au3(1.570796326794897,0.0,0.0) err_qr[4];\u000ameasure err_qr[4] -> err_cr[4];\u000au3(1.570796326794897,0.0,0.0) err_qr[2];\u000ameasure err_qr[2] -> err_cr[2];\u000a
p242
sVmain-qasm
p243
V\u000ainclude "qelib1.inc";\u000aqreg main_qr[5];\u000acreg main_cr[5];\u000au3(1.308996938995747,0.0,0.0) main_qr[4];\u000au3(1.434660645139339,0.0,0.0) main_qr[3];\u000au3(0.132645023151569,0.0,0.0) main_qr[2];\u000acx main_qr[3],main_qr[2];\u000au3(0.300196631343025,0.0,0.0) main_qr[3];\u000acx main_qr[3],main_qr[4];\u000au3(1.127482696788337,0.0,0.0) main_qr[4];\u000ameasure main_qr[3] -> main_cr[3];\u000au3(1.448623279155294,0.0,0.0) main_qr[2];\u000acx main_qr[4],main_qr[2];\u000ameasure main_qr[4] -> main_cr[4];\u000ameasure main_qr[2] -> main_cr[2];\u000a
p244
sVideal
p245
(lp246
F0.047548448464403315
aF0.39635769601083753
aF0.40813329721274105
aF0.591866702787259
aF0.6036423039891625
aF0.9524515515355966
asa(dp247
g225
(lp248
F0.108210413623648
aF0.240855436775217
aF1.560324351282931
aF1.403244718603441
aF0.139626340159546
aF1.340412865531645
asg227
(dp249
g229
L595L
sg230
L110L
sg231
L169L
sg232
L104L
sg233
L307L
sg234
L243L
sg235
L308L
sg236
L212L
ssg237
(lp250
F0.3242017966074737
aF0.39564708829225337
aF0.39596973448761114
aF0.6040302655123889
aF0.6043529117077466
aF0.6757982033925263
asg239
(dp251
g229
L98L
sg230
L617L
sg231
L142L
sg232
L92L
sg233
L22L
sg234
L64L
sg235
L932L
sg236
L81L
ssg241
V\u000ainclude "qelib1.inc";\u000aqreg err_qr[5];\u000acreg err_cr[5];\u000au3(0.108210413623648,0.0,0.0) err_qr[4];\u000au3(0.240855436775217,0.0,0.0) err_qr[3];\u000au3(1.560324351282931,0.0,0.0) err_qr[2];\u000acx err_qr[3],err_qr[2];\u000au3(1.403244718603441,0.0,0.0) err_qr[3];\u000acx err_qr[3],err_qr[4];\u000au3(0.139626340159546,0.0,0.0) err_qr[4];\u000au3(-1.570796326794897,0.0,0.0) err_qr[3];\u000ameasure err_qr[3] -> err_cr[3];\u000au3(1.340412865531645,0.0,0.0) err_qr[2];\u000acx err_qr[4],err_qr[2];\u000au3(1.570796326794897,0.0,0.0) err_qr[4];\u000ameasure err_qr[4] -> err_cr[4];\u000au3(1.570796326794897,0.0,0.0) err_qr[2];\u000ameasure err_qr[2] -> err_cr[2];\u000a
p252
sg243
V\u000ainclude "qelib1.inc";\u000aqreg main_qr[5];\u000acreg main_cr[5];\u000au3(0.108210413623648,0.0,0.0) main_qr[4];\u000au3(0.240855436775217,0.0,0.0) main_qr[3];\u000au3(1.560324351282931,0.0,0.0) main_qr[2];\u000acx main_qr[3],main_qr[2];\u000au3(1.403244718603441,0.0,0.0) main_qr[3];\u000acx main_qr[3],main_qr[4];\u000au3(0.139626340159546,0.0,0.0) main_qr[4];\u000ameasure main_qr[3] -> main_cr[3];\u000au3(1.340412865531645,0.0,0.0) main_qr[2];\u000acx main_qr[4],main_qr[2];\u000ameasure main_qr[4] -> main_cr[4];\u000ameasure main_qr[2] -> main_cr[2];\u000a
p253
sg245
(lp254
F0.3734933546789656
aF0.4348784740761984
aF0.4548971784974176
aF0.5451028215025824
aF0.5651215259238016
aF0.6265066453210344
asa(dp255
g225
(lp256
F1.040216234188621
aF1.214749159388053
aF0.115191730631626
aF0.904080552533063
aF0.740019602845596
aF0.331612557878923
asg227
(dp257
g229
L291L
sg230
L155L
sg231
L76L
sg232
L339L
sg233
L616L
sg234
L361L
sg235
L63L
sg236
L147L
ssg237
(lp258
F0.24477132242546618
aF0.33061636746154066
aF0.4390195557719766
aF0.5609804442280234
aF0.6693836325384593
aF0.7552286775745337
asg239
(dp259
g229
L293L
sg230
L49L
sg231
L126L
sg232
L132L
sg233
L505L
sg234
L83L
sg235
L779L
sg236
L81L
ssg241
V\u000ainclude "qelib1.inc";\u000aqreg err_qr[5];\u000acreg err_cr[5];\u000au3(1.040216234188621,0.0,0.0) err_qr[4];\u000au3(1.214749159388053,0.0,0.0) err_qr[3];\u000au3(0.115191730631626,0.0,0.0) err_qr[2];\u000acx err_qr[3],err_qr[2];\u000au3(0.904080552533063,0.0,0.0) err_qr[3];\u000acx err_qr[3],err_qr[4];\u000au3(0.740019602845596,0.0,0.0) err_qr[4];\u000au3(-1.570796326794897,0.0,0.0) err_qr[3];\u000ameasure err_qr[3] -> err_cr[3];\u000au3(0.331612557878923,0.0,0.0) err_qr[2];\u000acx err_qr[4],err_qr[2];\u000au3(1.570796326794897,0.0,0.0) err_qr[4];\u000ameasure err_qr[4] -> err_cr[4];\u000au3(1.570796326794897,0.0,0.0) err_qr[2];\u000ameasure err_qr[2] -> err_cr[2];\u000a
p260
sg243
V\u000ainclude "qelib1.inc";\u000aqreg main_qr[5];\u000acreg main_cr[5];\u000au3(1.040216234188621,0.0,0.0) main_qr[4];\u000au3(1.214749159388053,0.0,0.0) main_qr[3];\u000au3(0.115191730631626,0.0,0.0) main_qr[2];\u000acx main_qr[3],main_qr[2];\u000au3(0.904080552533063,0.0,0.0) main_qr[3];\u000acx main_qr[3],main_qr[4];\u000au3(0.740019602845596,0.0,0.0) main_qr[4];\u000ameasure main_qr[3] -> main_cr[3];\u000au3(0.331612557878923,0.0,0.0) main_qr[2];\u000acx main_qr[4],main_qr[2];\u000ameasure main_qr[4] -> main_cr[4];\u000ameasure main_qr[2] -> main_cr[2];\u000a
p261
sg245
(lp262
F0.23346533583885065
aF0.339212174783289
aF0.37034161499864776
aF0.6296583850013523
aF0.660787825216711
aF0.7665346641611493
asa(dp263
g225
(lp264
F0.324631240870945
aF1.033234917180643
aF0.502654824574367
aF0.555014702134197
aF1.392772743091475
aF1.057669526708564
asg227
(dp265
g229
L70L
sg230
L219L
sg231
L290L
sg232
L338L
sg233
L531L
sg234
L102L
sg235
L295L
sg236
L203L
ssg237
(lp266
F0.21850427130082611
aF0.30390233503503433
aF0.45786893875759677
aF0.5421310612424033
aF0.6960976649649656
aF0.7814957286991739
asg239
(dp267
g229
L199L
sg230
L187L
sg231
L340L
sg232
L64L
sg233
L291L
sg234
L72L
sg235
L713L
sg236
L182L
ssg241
V\u000ainclude "qelib1.inc";\u000aqreg err_qr[5];\u000acreg err_cr[5];\u000au3(0.324631240870945,0.0,0.0) err_qr[4];\u000au3(1.033234917180643,0.0,0.0) err_qr[3];\u000au3(0.502654824574367,0.0,0.0) err_qr[2];\u000acx err_qr[3],err_qr[2];\u000au3(0.555014702134197,0.0,0.0) err_qr[3];\u000acx err_qr[3],err_qr[4];\u000au3(1.392772743091475,0.0,0.0) err_qr[4];\u000au3(-1.570796326794897,0.0,0.0) err_qr[3];\u000ameasure err_qr[3] -> err_cr[3];\u000au3(1.057669526708564,0.0,0.0) err_qr[2];\u000acx err_qr[4],err_qr[2];\u000au3(1.570796326794897,0.0,0.0) err_qr[4];\u000ameasure err_qr[4] -> err_cr[4];\u000au3(1.570796326794897,0.0,0.0) err_qr[2];\u000ameasure err_qr[2] -> err_cr[2];\u000a
p268
sg243
V\u000ainclude "qelib1.inc";\u000aqreg main_qr[5];\u000acreg main_cr[5];\u000au3(0.324631240870945,0.0,0.0) main_qr[4];\u000au3(1.033234917180643,0.0,0.0) main_qr[3];\u000au3(0.502654824574367,0.0,0.0) main_qr[2];\u000acx main_qr[3],main_qr[2];\u000au3(0.555014702134197,0.0,0.0) main_qr[3];\u000acx main_qr[3],main_qr[4];\u000au3(1.392772743091475,0.0,0.0) main_qr[4];\u000ameasure main_qr[3] -> main_cr[3];\u000au3(1.057669526708564,0.0,0.0) main_qr[2];\u000acx main_qr[4],main_qr[2];\u000ameasure main_qr[4] -> main_cr[4];\u000ameasure main_qr[2] -> main_cr[2];\u000a
p269
sg245
(lp270
F0.17631506832046517
aF0.2011379355251886
aF0.3529956781563317
aF0.6470043218436683
aF0.7988620644748113
aF0.8236849316795348
asa(dp271
g225
(lp272
F0.324631240870945
aF1.141445330804292
aF0.05235987755983
aF0.258308729295161
aF0.621337213709981
aF0.254818070791172
asg227
(dp273
g229
L315L
sg230
L171L
sg231
L120L
sg232
L388L
sg233
L453L
sg234
L255L
sg235
L158L
sg236
L188L
ssg237
(lp274
F0.22638816941168163
aF0.41190074674509286
aF0.4343992732297637
aF0.5656007267702363
aF0.5880992532549071
aF0.7736118305883184
asg239
(dp275
g229
L696L
sg230
L61L
sg231
L123L
sg232
L71L
sg233
L321L
sg234
L133L
sg235
L604L
sg236
L39L
ssg241
V\u000ainclude "qelib1.inc";\u000aqreg err_qr[5];\u000acreg err_cr[5];\u000au3(0.324631240870945,0.0,0.0) err_qr[4];\u000au3(1.141445330804292,0.0,0.0) err_qr[3];\u000au3(0.05235987755983,0.0,0.0) err_qr[2];\u000acx err_qr[3],err_qr[2];\u000au3(0.258308729295161,0.0,0.0) err_qr[3];\u000acx err_qr[3],err_qr[4];\u000au3(0.621337213709981,0.0,0.0) err_qr[4];\u000au3(-1.570796326794897,0.0,0.0) err_qr[3];\u000ameasure err_qr[3] -> err_cr[3];\u000au3(0.254818070791172,0.0,0.0) err_qr[2];\u000acx err_qr[4],err_qr[2];\u000au3(1.570796326794897,0.0,0.0) err_qr[4];\u000ameasure err_qr[4] -> err_cr[4];\u000au3(1.570796326794897,0.0,0.0) err_qr[2];\u000ameasure err_qr[2] -> err_cr[2];\u000a
p276
sg243
V\u000ainclude "qelib1.inc";\u000aqreg main_qr[5];\u000acreg main_cr[5];\u000au3(0.324631240870945,0.0,0.0) main_qr[4];\u000au3(1.141445330804292,0.0,0.0) main_qr[3];\u000au3(0.05235987755983,0.0,0.0) main_qr[2];\u000acx main_qr[3],main_qr[2];\u000au3(0.258308729295161,0.0,0.0) main_qr[3];\u000acx main_qr[3],main_qr[4];\u000au3(0.621337213709981,0.0,0.0) main_qr[4];\u000ameasure main_qr[3] -> main_cr[3];\u000au3(0.254818070791172,0.0,0.0) main_qr[2];\u000acx main_qr[4],main_qr[2];\u000ameasure main_qr[4] -> main_cr[4];\u000ameasure main_qr[2] -> main_cr[2];\u000a
p277
sg245
(lp278
F0.1469409495745963
aF0.3033353970413294
aF0.43466618079877634
aF0.5653338192012236
aF0.6966646029586706
aF0.8530590504254038
asa(dp279
g225
(lp280
F0.610865238198015
aF0.265290046303138
aF1.427679328131362
aF0.593411945678072
aF0.555014702134197
aF0.198967534727354
asg227
(dp281
g229
L148L
sg230
L172L
sg231
L47L
sg232
L588L
sg233
L824L
sg234
L75L
sg235
L36L
sg236
L158L
ssg237
(lp282
F0.13832628435713762
aF0.2664759507076404
aF0.30976259206569423
aF0.6902374079343058
aF0.7335240492923596
aF0.8616737156428624
asg239
(dp283
g229
L303L
sg230
L512L
sg231
L409L
sg232
L97L
sg233
L152L
sg234
L45L
sg235
L449L
sg236
L81L
ssg241
V\u000ainclude "qelib1.inc";\u000aqreg err_qr[5];\u000acreg err_cr[5];\u000au3(0.610865238198015,0.0,0.0) err_qr[4];\u000au3(0.265290046303138,0.0,0.0) err_qr[3];\u000au3(1.427679328131362,0.0,0.0) err_qr[2];\u000acx err_qr[3],err_qr[2];\u000au3(0.593411945678072,0.0,0.0) err_qr[3];\u000acx err_qr[3],err_qr[4];\u000au3(0.555014702134197,0.0,0.0) err_qr[4];\u000au3(-1.570796326794897,0.0,0.0) err_qr[3];\u000ameasure err_qr[3] -> err_cr[3];\u000au3(0.198967534727354,0.0,0.0) err_qr[2];\u000acx err_qr[4],err_qr[2];\u000au3(1.570796326794897,0.0,0.0) err_qr[4];\u000ameasure err_qr[4] -> err_cr[4];\u000au3(1.570796326794897,0.0,0.0) err_qr[2];\u000ameasure err_qr[2] -> err_cr[2];\u000a
p284
sg243
V\u000ainclude "qelib1.inc";\u000aqreg main_qr[5];\u000acreg main_cr[5];\u000au3(0.610865238198015,0.0,0.0) main_qr[4];\u000au3(0.265290046303138,0.0,0.0) main_qr[3];\u000au3(1.427679328131362,0.0,0.0) main_qr[2];\u000acx main_qr[3],main_qr[2];\u000au3(0.593411945678072,0.0,0.0) main_qr[3];\u000acx main_qr[3],main_qr[4];\u000au3(0.555014702134197,0.0,0.0) main_qr[4];\u000ameasure main_qr[3] -> main_cr[3];\u000au3(0.198967534727354,0.0,0.0) main_qr[2];\u000acx main_qr[4],main_qr[2];\u000ameasure main_qr[4] -> main_cr[4];\u000ameasure main_qr[2] -> main_cr[2];\u000a
p285
sg245
(lp286
F0.0012456320503517748
aF0.10746354283962367
aF0.10772152048415096
aF0.892278479515849
aF0.8925364571603762
aF0.9987543679496482
asa(dp287
g225
(lp288
F0.146607657167524
aF0.774926187885482
aF0.638790506229925
aF0.830776723949301
aF1.075122819228507
aF1.480039205691191
asg227
(dp289
g229
L173L
sg230
L147L
sg231
L275L
sg232
L305L
sg233
L522L
sg234
L94L
sg235
L320L
sg236
L212L
ssg237
(lp290
F0.26866957542276676
aF0.3300753188090911
aF0.4544613921927186
aF0.5455386078072814
aF0.669924681190909
aF0.7313304245772333
asg239
(dp291
g229
L156L
sg230
L388L
sg231
L391L
sg232
L82L
sg233
L96L
sg234
L73L
sg235
L712L
sg236
L150L
ssg241
V\u000ainclude "qelib1.inc";\u000aqreg err_qr[5];\u000acreg err_cr[5];\u000au3(0.146607657167524,0.0,0.0) err_qr[4];\u000au3(0.774926187885482,0.0,0.0) err_qr[3];\u000au3(0.638790506229925,0.0,0.0) err_qr[2];\u000acx err_qr[3],err_qr[2];\u000au3(0.830776723949301,0.0,0.0) err_qr[3];\u000acx err_qr[3],err_qr[4];\u000au3(1.075122819228507,0.0,0.0) err_qr[4];\u000au3(-1.570796326794897,0.0,0.0) err_qr[3];\u000ameasure err_qr[3] -> err_cr[3];\u000au3(1.480039205691191,0.0,0.0) err_qr[2];\u000acx err_qr[4],err_qr[2];\u000au3(1.570796326794897,0.0,0.0) err_qr[4];\u000ameasure err_qr[4] -> err_cr[4];\u000au3(1.570796326794897,0.0,0.0) err_qr[2];\u000ameasure err_qr[2] -> err_cr[2];\u000a
p292
sg243
V\u000ainclude "qelib1.inc";\u000aqreg main_qr[5];\u000acreg main_cr[5];\u000au3(0.146607657167524,0.0,0.0) main_qr[4];\u000au3(0.774926187885482,0.0,0.0) main_qr[3];\u000au3(0.638790506229925,0.0,0.0) main_qr[2];\u000acx main_qr[3],main_qr[2];\u000au3(0.830776723949301,0.0,0.0) main_qr[3];\u000acx main_qr[3],main_qr[4];\u000au3(1.075122819228507,0.0,0.0) main_qr[4];\u000ameasure main_qr[3] -> main_cr[3];\u000au3(1.480039205691191,0.0,0.0) main_qr[2];\u000acx main_qr[4],main_qr[2];\u000ameasure main_qr[4] -> main_cr[4];\u000ameasure main_qr[2] -> main_cr[2];\u000a
p293
sg245
(lp294
F0.1717298271742171
aF0.2516506345423811
aF0.3949501499361818
aF0.605049850063818
aF0.7483493654576185
aF0.8282701728257829
asa(dp295
g225
(lp296
F0.293215314335047
aF1.521927107739055
aF0.003490658503989
aF1.560324351282931
aF0.991347015132779
aF0.820304748437335
asg227
(dp297
g229
L310L
sg230
L264L
sg231
L108L
sg232
L132L
sg233
L210L
sg234
L465L
sg235
L191L
sg236
L368L
ssg237
(lp298
F0.21663486247825098
aF0.26484251307815965
aF0.3987195924807487
aF0.6012804075192514
aF0.7351574869218404
aF0.783365137521749
asg239
(dp299
g229
L325L
sg230
L66L
sg231
L179L
sg232
L92L
sg233
L294L
sg234
L104L
sg235
L895L
sg236
L93L
ssg241
V\u000ainclude "qelib1.inc";\u000aqreg err_qr[5];\u000acreg err_cr[5];\u000au3(0.293215314335047,0.0,0.0) err_qr[4];\u000au3(1.521927107739055,0.0,0.0) err_qr[3];\u000au3(0.003490658503989,0.0,0.0) err_qr[2];\u000acx err_qr[3],err_qr[2];\u000au3(1.560324351282931,0.0,0.0) err_qr[3];\u000acx err_qr[3],err_qr[4];\u000au3(0.991347015132779,0.0,0.0) err_qr[4];\u000au3(-1.570796326794897,0.0,0.0) err_qr[3];\u000ameasure err_qr[3] -> err_cr[3];\u000au3(0.820304748437335,0.0,0.0) err_qr[2];\u000acx err_qr[4],err_qr[2];\u000au3(1.570796326794897,0.0,0.0) err_qr[4];\u000ameasure err_qr[4] -> err_cr[4];\u000au3(1.570796326794897,0.0,0.0) err_qr[2];\u000ameasure err_qr[2] -> err_cr[2];\u000a
p300
sg243
V\u000ainclude "qelib1.inc";\u000aqreg main_qr[5];\u000acreg main_cr[5];\u000au3(0.293215314335047,0.0,0.0) main_qr[4];\u000au3(1.521927107739055,0.0,0.0) main_qr[3];\u000au3(0.003490658503989,0.0,0.0) main_qr[2];\u000acx main_qr[3],main_qr[2];\u000au3(1.560324351282931,0.0,0.0) main_qr[3];\u000acx main_qr[3],main_qr[4];\u000au3(0.991347015132779,0.0,0.0) main_qr[4];\u000ameasure main_qr[3] -> main_cr[3];\u000au3(0.820304748437335,0.0,0.0) main_qr[2];\u000acx main_qr[4],main_qr[2];\u000ameasure main_qr[4] -> main_cr[4];\u000ameasure main_qr[2] -> main_cr[2];\u000a
p301
sg245
(lp302
F0.2068124878848887
aF0.3094473288324075
aF0.4927805872302667
aF0.5072194127697334
aF0.6905526711675924
aF0.7931875121151114
asa(dp303
g225
(lp304
F0.352556508902855
aF1.148426647812269
aF0.715584993317675
aF0.740019602845596
aF0.527089434102287
aF0.0
asg227
(dp305
g229
L101L
sg230
L266L
sg231
L79L
sg232
L203L
sg233
L794L
sg234
L149L
sg235
L38L
sg236
L418L
ssg237
(lp306
F0.08659991582863036
aF0.32732231998096045
aF0.3696142769209876
aF0.6303857230790124
aF0.6726776800190396
aF0.9134000841713696
asg239
(dp307
g229
L487L
sg230
L83L
sg231
L131L
sg232
L216L
sg233
L166L
sg234
L87L
sg235
L853L
sg236
L25L
ssg241
V\u000ainclude "qelib1.inc";\u000aqreg err_qr[5];\u000acreg err_cr[5];\u000au3(0.352556508902855,0.0,0.0) err_qr[4];\u000au3(1.148426647812269,0.0,0.0) err_qr[3];\u000au3(0.715584993317675,0.0,0.0) err_qr[2];\u000acx err_qr[3],err_qr[2];\u000au3(0.740019602845596,0.0,0.0) err_qr[3];\u000acx err_qr[3],err_qr[4];\u000au3(0.527089434102287,0.0,0.0) err_qr[4];\u000au3(-1.570796326794897,0.0,0.0) err_qr[3];\u000ameasure err_qr[3] -> err_cr[3];\u000au3(0.0,0.0,0.0) err_qr[2];\u000acx err_qr[4],err_qr[2];\u000au3(1.570796326794897,0.0,0.0) err_qr[4];\u000ameasure err_qr[4] -> err_cr[4];\u000au3(1.570796326794897,0.0,0.0) err_qr[2];\u000ameasure err_qr[2] -> err_cr[2];\u000a
p308
sg243
V\u000ainclude "qelib1.inc";\u000aqreg main_qr[5];\u000acreg main_cr[5];\u000au3(0.352556508902855,0.0,0.0) main_qr[4];\u000au3(1.148426647812269,0.0,0.0) main_qr[3];\u000au3(0.715584993317675,0.0,0.0) main_qr[2];\u000acx main_qr[3],main_qr[2];\u000au3(0.740019602845596,0.0,0.0) main_qr[3];\u000acx main_qr[3],main_qr[4];\u000au3(0.527089434102287,0.0,0.0) main_qr[4];\u000ameasure main_qr[3] -> main_cr[3];\u000au3(0.0,0.0,0.0) main_qr[2];\u000acx main_qr[4],main_qr[2];\u000ameasure main_qr[4] -> main_cr[4];\u000ameasure main_qr[2] -> main_cr[2];\u000a
p309
sg245
(lp310
F0.11624625890422902
aF0.36613559610934643
aF0.3722743578994413
aF0.6277256421005585
aF0.6338644038906533
aF0.883753741095771
asa(dp311
g225
(lp312
F0.010471975511966
aF0.471238898038469
aF1.567305668290908
aF1.075122819228507
aF0.289724655831059
aF1.504473815219112
asg227
(dp313
g229
L590L
sg230
L106L
sg231
L223L
sg232
L104L
sg233
L198L
sg234
L278L
sg235
L351L
sg236
L198L
ssg237
(lp314
F0.2842852129802195
aF0.4047751407511162
aF0.4354341510116159
aF0.5645658489883841
aF0.5952248592488838
aF0.7157147870197805
asg239
(dp315
g229
L99L
sg230
L653L
sg231
L160L
sg232
L116L
sg233
L18L
sg234
L51L
sg235
L857L
sg236
L94L
ssg241
V\u000ainclude "qelib1.inc";\u000aqreg err_qr[5];\u000acreg err_cr[5];\u000au3(0.010471975511966,0.0,0.0) err_qr[4];\u000au3(0.471238898038469,0.0,0.0) err_qr[3];\u000au3(1.567305668290908,0.0,0.0) err_qr[2];\u000acx err_qr[3],err_qr[2];\u000au3(1.075122819228507,0.0,0.0) err_qr[3];\u000acx err_qr[3],err_qr[4];\u000au3(0.289724655831059,0.0,0.0) err_qr[4];\u000au3(-1.570796326794897,0.0,0.0) err_qr[3];\u000ameasure err_qr[3] -> err_cr[3];\u000au3(1.504473815219112,0.0,0.0) err_qr[2];\u000acx err_qr[4],err_qr[2];\u000au3(1.570796326794897,0.0,0.0) err_qr[4];\u000ameasure err_qr[4] -> err_cr[4];\u000au3(1.570796326794897,0.0,0.0) err_qr[2];\u000ameasure err_qr[2] -> err_cr[2];\u000a
p316
sg243
V\u000ainclude "qelib1.inc";\u000aqreg main_qr[5];\u000acreg main_cr[5];\u000au3(0.010471975511966,0.0,0.0) main_qr[4];\u000au3(0.471238898038469,0.0,0.0) main_qr[3];\u000au3(1.567305668290908,0.0,0.0) main_qr[2];\u000acx main_qr[3],main_qr[2];\u000au3(1.075122819228507,0.0,0.0) main_qr[3];\u000acx main_qr[3],main_qr[4];\u000au3(0.289724655831059,0.0,0.0) main_qr[4];\u000ameasure main_qr[3] -> main_cr[3];\u000au3(1.504473815219112,0.0,0.0) main_qr[2];\u000acx main_qr[4],main_qr[2];\u000ameasure main_qr[4] -> main_cr[4];\u000ameasure main_qr[2] -> main_cr[2];\u000a
p317
sg245
(lp318
F0.46386185340022973
aF0.486709479816945
aF0.48975593846173426
aF0.5102440615382657
aF0.513290520183055
aF0.5361381465997703
asa(dp319
g225
(lp320
F0.474729556542458
aF0.760963553869528
aF1.549852375770965
aF0.949459113084915
aF0.18151424220741
aF1.521927107739055
asg227
(dp321
g229
L744L
sg230
L76L
sg231
L129L
sg232
L126L
sg233
L268L
sg234
L395L
sg235
L201L
sg236
L109L
ssg237
(lp322
F0.23876542424373332
aF0.2972785850948223
aF0.3552561081773372
aF0.6447438918226628
aF0.7027214149051778
aF0.7612345757562666
asg239
(dp323
g229
L74L
sg230
L474L
sg231
L210L
sg232
L93L
sg233
L41L
sg234
L70L
sg235
L967L
sg236
L119L
ssg241
V\u000ainclude "qelib1.inc";\u000aqreg err_qr[5];\u000acreg err_cr[5];\u000au3(0.474729556542458,0.0,0.0) err_qr[4];\u000au3(0.760963553869528,0.0,0.0) err_qr[3];\u000au3(1.549852375770965,0.0,0.0) err_qr[2];\u000acx err_qr[3],err_qr[2];\u000au3(0.949459113084915,0.0,0.0) err_qr[3];\u000acx err_qr[3],err_qr[4];\u000au3(0.18151424220741,0.0,0.0) err_qr[4];\u000au3(-1.570796326794897,0.0,0.0) err_qr[3];\u000ameasure err_qr[3] -> err_cr[3];\u000au3(1.521927107739055,0.0,0.0) err_qr[2];\u000acx err_qr[4],err_qr[2];\u000au3(1.570796326794897,0.0,0.0) err_qr[4];\u000ameasure err_qr[4] -> err_cr[4];\u000au3(1.570796326794897,0.0,0.0) err_qr[2];\u000ameasure err_qr[2] -> err_cr[2];\u000a
p324
sg243
V\u000ainclude "qelib1.inc";\u000aqreg main_qr[5];\u000acreg main_cr[5];\u000au3(0.474729556542458,0.0,0.0) main_qr[4];\u000au3(0.760963553869528,0.0,0.0) main_qr[3];\u000au3(1.549852375770965,0.0,0.0) main_qr[2];\u000acx main_qr[3],main_qr[2];\u000au3(0.949459113084915,0.0,0.0) main_qr[3];\u000acx main_qr[3],main_qr[4];\u000au3(0.18151424220741,0.0,0.0) main_qr[4];\u000ameasure main_qr[3] -> main_cr[3];\u000au3(1.521927107739055,0.0,0.0) main_qr[2];\u000acx main_qr[4],main_qr[2];\u000ameasure main_qr[4] -> main_cr[4];\u000ameasure main_qr[2] -> main_cr[2];\u000a
p325
sg245
(lp326
F0.2632570464807876
aF0.3928416615936958
aF0.396852521557723
aF0.603147478442277
aF0.6071583384063042
aF0.7367429535192125
asa(dp327
g225
(lp328
F0.160570291183478
aF0.066322511575785
aF0.048869219055841
aF1.385791426083498
aF0.816814089933346
aF0.188495559215388
asg227
(dp329
g229
L198L
sg230
L337L
sg231
L32L
sg232
L393L
sg233
L488L
sg234
L123L
sg235
L50L
sg236
L427L
ssg237
(lp330
F0.19468948286811688
aF0.4204805837865264
aF0.47490215375801487
aF0.5250978462419852
aF0.5795194162134736
aF0.8053105171318831
asg239
(dp331
g229
L627L
sg230
L61L
sg231
L63L
sg232
L524L
sg233
L314L
sg234
L133L
sg235
L274L
sg236
L52L
ssg241
V\u000ainclude "qelib1.inc";\u000aqreg err_qr[5];\u000acreg err_cr[5];\u000au3(0.160570291183478,0.0,0.0) err_qr[4];\u000au3(0.066322511575785,0.0,0.0) err_qr[3];\u000au3(0.048869219055841,0.0,0.0) err_qr[2];\u000acx err_qr[3],err_qr[2];\u000au3(1.385791426083498,0.0,0.0) err_qr[3];\u000acx err_qr[3],err_qr[4];\u000au3(0.816814089933346,0.0,0.0) err_qr[4];\u000au3(-1.570796326794897,0.0,0.0) err_qr[3];\u000ameasure err_qr[3] -> err_cr[3];\u000au3(0.188495559215388,0.0,0.0) err_qr[2];\u000acx err_qr[4],err_qr[2];\u000au3(1.570796326794897,0.0,0.0) err_qr[4];\u000ameasure err_qr[4] -> err_cr[4];\u000au3(1.570796326794897,0.0,0.0) err_qr[2];\u000ameasure err_qr[2] -> err_cr[2];\u000a
p332
sg243
V\u000ainclude "qelib1.inc";\u000aqreg main_qr[5];\u000acreg main_cr[5];\u000au3(0.160570291183478,0.0,0.0) main_qr[4];\u000au3(0.066322511575785,0.0,0.0) main_qr[3];\u000au3(0.048869219055841,0.0,0.0) main_qr[2];\u000acx main_qr[3],main_qr[2];\u000au3(1.385791426083498,0.0,0.0) main_qr[3];\u000acx main_qr[3],main_qr[4];\u000au3(0.816814089933346,0.0,0.0) main_qr[4];\u000ameasure main_qr[3] -> main_cr[3];\u000au3(0.188495559215388,0.0,0.0) main_qr[2];\u000acx main_qr[4],main_qr[2];\u000ameasure main_qr[4] -> main_cr[4];\u000ameasure main_qr[2] -> main_cr[2];\u000a
p333
sg245
(lp334
F0.3804695315411171
aF0.382360302805558
aF0.4939979079480567
aF0.5060020920519432
aF0.617639697194442
aF0.6195304684588828
asa(dp335
g225
(lp336
F0.034906585039887
aF0.432841654494594
aF1.497492498211135
aF1.158898623324235
aF0.984365698124802
aF1.235693110411985
asg227
(dp337
g229
L319L
sg230
L196L
sg231
L329L
sg232
L171L
sg233
L219L
sg234
L245L
sg235
L308L
sg236
L261L
ssg237
(lp338
F0.34072373400502587
aF0.38272098300049945
aF0.3832915880320863
aF0.6167084119679137
aF0.6172790169995006
aF0.6592762659949741
asg239
(dp339
g229
L56L
sg230
L399L
sg231
L294L
sg232
L69L
sg233
L38L
sg234
L86L
sg235
L862L
sg236
L244L
ssg241
V\u000ainclude "qelib1.inc";\u000aqreg err_qr[5];\u000acreg err_cr[5];\u000au3(0.034906585039887,0.0,0.0) err_qr[4];\u000au3(0.432841654494594,0.0,0.0) err_qr[3];\u000au3(1.497492498211135,0.0,0.0) err_qr[2];\u000acx err_qr[3],err_qr[2];\u000au3(1.158898623324235,0.0,0.0) err_qr[3];\u000acx err_qr[3],err_qr[4];\u000au3(0.984365698124802,0.0,0.0) err_qr[4];\u000au3(-1.570796326794897,0.0,0.0) err_qr[3];\u000ameasure err_qr[3] -> err_cr[3];\u000au3(1.235693110411985,0.0,0.0) err_qr[2];\u000acx err_qr[4],err_qr[2];\u000au3(1.570796326794897,0.0,0.0) err_qr[4];\u000ameasure err_qr[4] -> err_cr[4];\u000au3(1.570796326794897,0.0,0.0) err_qr[2];\u000ameasure err_qr[2] -> err_cr[2];\u000a
p340
sg243
V\u000ainclude "qelib1.inc";\u000aqreg main_qr[5];\u000acreg main_cr[5];\u000au3(0.034906585039887,0.0,0.0) main_qr[4];\u000au3(0.432841654494594,0.0,0.0) main_qr[3];\u000au3(1.497492498211135,0.0,0.0) main_qr[2];\u000acx main_qr[3],main_qr[2];\u000au3(1.158898623324235,0.0,0.0) main_qr[3];\u000acx main_qr[3],main_qr[4];\u000au3(0.984365698124802,0.0,0.0) main_qr[4];\u000ameasure main_qr[3] -> main_cr[3];\u000au3(1.235693110411985,0.0,0.0) main_qr[2];\u000acx main_qr[4],main_qr[2];\u000ameasure main_qr[4] -> main_cr[4];\u000ameasure main_qr[2] -> main_cr[2];\u000a
p341
sg245
(lp342
F0.3034078025454723
aF0.4764873990379626
aF0.47992051123658774
aF0.5200794887634123
aF0.5235126009620374
aF0.6965921974545277
asa(dp343
g225
(lp344
F0.78190750489346
aF1.057669526708564
aF0.15707963267949
aF0.719075651821664
aF0.897099235525085
aF0.91106186954104
asg227
(dp345
g229
L246L
sg230
L158L
sg231
L133L
sg232
L462L
sg233
L491L
sg234
L263L
sg235
L134L
sg236
L161L
ssg237
(lp346
F0.23139560119186053
aF0.2837222704722633
aF0.4933586569781565
aF0.5066413430218433
aF0.7162777295277367
aF0.7686043988081392
asg239
(dp347
g229
L286L
sg230
L109L
sg231
L242L
sg232
L113L
sg233
L400L
sg234
L80L
sg235
L783L
sg236
L35L
ssg241
V\u000ainclude "qelib1.inc";\u000aqreg err_qr[5];\u000acreg err_cr[5];\u000au3(0.78190750489346,0.0,0.0) err_qr[4];\u000au3(1.057669526708564,0.0,0.0) err_qr[3];\u000au3(0.15707963267949,0.0,0.0) err_qr[2];\u000acx err_qr[3],err_qr[2];\u000au3(0.719075651821664,0.0,0.0) err_qr[3];\u000acx err_qr[3],err_qr[4];\u000au3(0.897099235525085,0.0,0.0) err_qr[4];\u000au3(-1.570796326794897,0.0,0.0) err_qr[3];\u000ameasure err_qr[3] -> err_cr[3];\u000au3(0.91106186954104,0.0,0.0) err_qr[2];\u000acx err_qr[4],err_qr[2];\u000au3(1.570796326794897,0.0,0.0) err_qr[4];\u000ameasure err_qr[4] -> err_cr[4];\u000au3(1.570796326794897,0.0,0.0) err_qr[2];\u000ameasure err_qr[2] -> err_cr[2];\u000a
p348
sg243
V\u000ainclude "qelib1.inc";\u000aqreg main_qr[5];\u000acreg main_cr[5];\u000au3(0.78190750489346,0.0,0.0) main_qr[4];\u000au3(1.057669526708564,0.0,0.0) main_qr[3];\u000au3(0.15707963267949,0.0,0.0) main_qr[2];\u000acx main_qr[3],main_qr[2];\u000au3(0.719075651821664,0.0,0.0) main_qr[3];\u000acx main_qr[3],main_qr[4];\u000au3(0.897099235525085,0.0,0.0) main_qr[4];\u000ameasure main_qr[3] -> main_cr[3];\u000au3(0.91106186954104,0.0,0.0) main_qr[2];\u000acx main_qr[4],main_qr[2];\u000ameasure main_qr[4] -> main_cr[4];\u000ameasure main_qr[2] -> main_cr[2];\u000a
p349
sg245
(lp350
F0.2205238735926387
aF0.22091272818492974
aF0.2949192663658201
aF0.7050807336341796
aF0.7790872718150701
aF0.7794761264073611
asa(dp351
g225
(lp352
F1.497492498211135
aF1.497492498211135
aF0.090757121103705
aF1.148426647812269
aF0.041887902047864
aF0.471238898038469
asg227
(dp353
g229
L562L
sg230
L28L
sg231
L36L
sg232
L610L
sg233
L360L
sg234
L349L
sg235
L56L
sg236
L47L
ssg237
(lp354
F0.40011694116365437
aF0.48068355425307374
aF0.4897344745890485
aF0.5102655254109515
aF0.5193164457469263
aF0.5998830588363456
asg239
(dp355
g229
L260L
sg230
L117L
sg231
L127L
sg232
L72L
sg233
L319L
sg234
L141L
sg235
L495L
sg236
L517L
ssg241
V\u000ainclude "qelib1.inc";\u000aqreg err_qr[5];\u000acreg err_cr[5];\u000au3(1.497492498211135,0.0,0.0) err_qr[4];\u000au3(1.497492498211135,0.0,0.0) err_qr[3];\u000au3(0.090757121103705,0.0,0.0) err_qr[2];\u000acx err_qr[3],err_qr[2];\u000au3(1.148426647812269,0.0,0.0) err_qr[3];\u000acx err_qr[3],err_qr[4];\u000au3(0.041887902047864,0.0,0.0) err_qr[4];\u000au3(-1.570796326794897,0.0,0.0) err_qr[3];\u000ameasure err_qr[3] -> err_cr[3];\u000au3(0.471238898038469,0.0,0.0) err_qr[2];\u000acx err_qr[4],err_qr[2];\u000au3(1.570796326794897,0.0,0.0) err_qr[4];\u000ameasure err_qr[4] -> err_cr[4];\u000au3(1.570796326794897,0.0,0.0) err_qr[2];\u000ameasure err_qr[2] -> err_cr[2];\u000a
p356
sg243
V\u000ainclude "qelib1.inc";\u000aqreg main_qr[5];\u000acreg main_cr[5];\u000au3(1.497492498211135,0.0,0.0) main_qr[4];\u000au3(1.497492498211135,0.0,0.0) main_qr[3];\u000au3(0.090757121103705,0.0,0.0) main_qr[2];\u000acx main_qr[3],main_qr[2];\u000au3(1.148426647812269,0.0,0.0) main_qr[3];\u000acx main_qr[3],main_qr[4];\u000au3(0.041887902047864,0.0,0.0) main_qr[4];\u000ameasure main_qr[3] -> main_cr[3];\u000au3(0.471238898038469,0.0,0.0) main_qr[2];\u000acx main_qr[4],main_qr[2];\u000ameasure main_qr[4] -> main_cr[4];\u000ameasure main_qr[2] -> main_cr[2];\u000a
p357
sg245
(lp358
F0.43660855767971596
aF0.43974445368301684
aF0.44195695884530267
aF0.5580430411546974
aF0.5602555463169832
aF0.563391442320284
asa(dp359
g225
(lp360
F0.125663706143592
aF0.373500459926786
aF1.385791426083498
aF1.448623279155294
aF0.85870199198121
aF0.108210413623648
asg227
(dp361
g229
L96L
sg230
L473L
sg231
L87L
sg232
L339L
sg233
L352L
sg234
L65L
sg235
L70L
sg236
L566L
ssg237
(lp362
F0.10758102378571652
aF0.29330010209586677
aF0.34599312136270494
aF0.6540068786372951
aF0.7066998979041332
aF0.8924189762142836
asg239
(dp363
g229
L169L
sg230
L234L
sg231
L221L
sg232
L205L
sg233
L85L
sg234
L120L
sg235
L898L
sg236
L116L
ssg241
V\u000ainclude "qelib1.inc";\u000aqreg err_qr[5];\u000acreg err_cr[5];\u000au3(0.125663706143592,0.0,0.0) err_qr[4];\u000au3(0.373500459926786,0.0,0.0) err_qr[3];\u000au3(1.385791426083498,0.0,0.0) err_qr[2];\u000acx err_qr[3],err_qr[2];\u000au3(1.448623279155294,0.0,0.0) err_qr[3];\u000acx err_qr[3],err_qr[4];\u000au3(0.85870199198121,0.0,0.0) err_qr[4];\u000au3(-1.570796326794897,0.0,0.0) err_qr[3];\u000ameasure err_qr[3] -> err_cr[3];\u000au3(0.108210413623648,0.0,0.0) err_qr[2];\u000acx err_qr[4],err_qr[2];\u000au3(1.570796326794897,0.0,0.0) err_qr[4];\u000ameasure err_qr[4] -> err_cr[4];\u000au3(1.570796326794897,0.0,0.0) err_qr[2];\u000ameasure err_qr[2] -> err_cr[2];\u000a
p364
sg243
V\u000ainclude "qelib1.inc";\u000aqreg main_qr[5];\u000acreg main_cr[5];\u000au3(0.125663706143592,0.0,0.0) main_qr[4];\u000au3(0.373500459926786,0.0,0.0) main_qr[3];\u000au3(1.385791426083498,0.0,0.0) main_qr[2];\u000acx main_qr[3],main_qr[2];\u000au3(1.448623279155294,0.0,0.0) main_qr[3];\u000acx main_qr[3],main_qr[4];\u000au3(0.85870199198121,0.0,0.0) main_qr[4];\u000ameasure main_qr[3] -> main_cr[3];\u000au3(0.108210413623648,0.0,0.0) main_qr[2];\u000acx main_qr[4],main_qr[2];\u000ameasure main_qr[4] -> main_cr[4];\u000ameasure main_qr[2] -> main_cr[2];\u000a
p365
sg245
(lp366
F0.001990442644922763
aF0.3636954306525273
aF0.36442272489461963
aF0.6355772751053804
aF0.6363045693474728
aF0.9980095573550772
asa(dp367
g225
(lp368
F0.289724655831059
aF0.471238898038469
aF0.205948851735331
aF1.494001839707146
aF0.558505360638185
aF0.020943951023932
asg227
(dp369
g229
L230L
sg230
L354L
sg231
L32L
sg232
L442L
sg233
L350L
sg234
L139L
sg235
L77L
sg236
L424L
ssg237
(lp370
F0.22062929502370832
aF0.33442657121991715
aF0.438847768534517
aF0.561152231465483
aF0.6655734287800829
aF0.7793707049762917
asg239
(dp371
g229
L500L
sg230
L46L
sg231
L135L
sg232
L533L
sg233
L232L
sg234
L120L
sg235
L440L
sg236
L42L
ssg241
V\u000ainclude "qelib1.inc";\u000aqreg err_qr[5];\u000acreg err_cr[5];\u000au3(0.289724655831059,0.0,0.0) err_qr[4];\u000au3(0.471238898038469,0.0,0.0) err_qr[3];\u000au3(0.205948851735331,0.0,0.0) err_qr[2];\u000acx err_qr[3],err_qr[2];\u000au3(1.494001839707146,0.0,0.0) err_qr[3];\u000acx err_qr[3],err_qr[4];\u000au3(0.558505360638185,0.0,0.0) err_qr[4];\u000au3(-1.570796326794897,0.0,0.0) err_qr[3];\u000ameasure err_qr[3] -> err_cr[3];\u000au3(0.020943951023932,0.0,0.0) err_qr[2];\u000acx err_qr[4],err_qr[2];\u000au3(1.570796326794897,0.0,0.0) err_qr[4];\u000ameasure err_qr[4] -> err_cr[4];\u000au3(1.570796326794897,0.0,0.0) err_qr[2];\u000ameasure err_qr[2] -> err_cr[2];\u000a
p372
sg243
V\u000ainclude "qelib1.inc";\u000aqreg main_qr[5];\u000acreg main_cr[5];\u000au3(0.289724655831059,0.0,0.0) main_qr[4];\u000au3(0.471238898038469,0.0,0.0) main_qr[3];\u000au3(0.205948851735331,0.0,0.0) main_qr[2];\u000acx main_qr[3],main_qr[2];\u000au3(1.494001839707146,0.0,0.0) main_qr[3];\u000acx main_qr[3],main_qr[4];\u000au3(0.558505360638185,0.0,0.0) main_qr[4];\u000ameasure main_qr[3] -> main_cr[3];\u000au3(0.020943951023932,0.0,0.0) main_qr[2];\u000acx main_qr[4],main_qr[2];\u000ameasure main_qr[4] -> main_cr[4];\u000ameasure main_qr[2] -> main_cr[2];\u000a
p373
sg245
(lp374
F0.37151119617749534
aF0.3801292025117483
aF0.38428955021835653
aF0.6157104497816435
aF0.6198707974882517
aF0.6284888038225047
asa(dp375
g225
(lp376
F1.291543646475804
aF0.370009801422798
aF0.855211333477221
aF1.270599695451872
aF0.010471975511966
aF1.518436449235067
asg227
(dp377
g229
L405L
sg230
L55L
sg231
L48L
sg232
L410L
sg233
L584L
sg234
L451L
sg235
L53L
sg236
L42L
ssg237
(lp378
F0.409690406080493
aF0.4452144956004823
aF0.4652461725600112
aF0.5347538274399888
aF0.5547855043995177
aF0.590309593919507
asg239
(dp379
g229
L100L
sg230
L370L
sg231
L333L
sg232
L46L
sg233
L49L
sg234
L80L
sg235
L601L
sg236
L469L
ssg241
V\u000ainclude "qelib1.inc";\u000aqreg err_qr[5];\u000acreg err_cr[5];\u000au3(1.291543646475804,0.0,0.0) err_qr[4];\u000au3(0.370009801422798,0.0,0.0) err_qr[3];\u000au3(0.855211333477221,0.0,0.0) err_qr[2];\u000acx err_qr[3],err_qr[2];\u000au3(1.270599695451872,0.0,0.0) err_qr[3];\u000acx err_qr[3],err_qr[4];\u000au3(0.010471975511966,0.0,0.0) err_qr[4];\u000au3(-1.570796326794897,0.0,0.0) err_qr[3];\u000ameasure err_qr[3] -> err_cr[3];\u000au3(1.518436449235067,0.0,0.0) err_qr[2];\u000acx err_qr[4],err_qr[2];\u000au3(1.570796326794897,0.0,0.0) err_qr[4];\u000ameasure err_qr[4] -> err_cr[4];\u000au3(1.570796326794897,0.0,0.0) err_qr[2];\u000ameasure err_qr[2] -> err_cr[2];\u000a
p380
sg243
V\u000ainclude "qelib1.inc";\u000aqreg main_qr[5];\u000acreg main_cr[5];\u000au3(1.291543646475804,0.0,0.0) main_qr[4];\u000au3(0.370009801422798,0.0,0.0) main_qr[3];\u000au3(0.855211333477221,0.0,0.0) main_qr[2];\u000acx main_qr[3],main_qr[2];\u000au3(1.270599695451872,0.0,0.0) main_qr[3];\u000acx main_qr[3],main_qr[4];\u000au3(0.010471975511966,0.0,0.0) main_qr[4];\u000ameasure main_qr[3] -> main_cr[3];\u000au3(1.518436449235067,0.0,0.0) main_qr[2];\u000acx main_qr[4],main_qr[2];\u000ameasure main_qr[4] -> main_cr[4];\u000ameasure main_qr[2] -> main_cr[2];\u000a
p381
sg245
(lp382
F0.03308692036589833
aF0.17396003966366602
aF0.18716991057083399
aF0.8128300894291658
aF0.826039960336334
aF0.9669130796341019
asa(dp383
g225
(lp384
F0.628318530717959
aF1.329940890019679
aF0.841248699461267
aF0.446804288510548
aF1.183333232852155
aF1.057669526708564
asg227
(dp385
g229
L248L
sg230
L272L
sg231
L271L
sg232
L217L
sg233
L562L
sg234
L126L
sg235
L200L
sg236
L152L
ssg237
(lp386
F0.18693745701097697
aF0.21804474139895316
aF0.3319560374605881
aF0.6680439625394119
aF0.7819552586010469
aF0.813062542989023
asg239
(dp387
g229
L90L
sg230
L181L
sg231
L496L
sg232
L61L
sg233
L156L
sg234
L76L
sg235
L911L
sg236
L77L
ssg241
V\u000ainclude "qelib1.inc";\u000aqreg err_qr[5];\u000acreg err_cr[5];\u000au3(0.628318530717959,0.0,0.0) err_qr[4];\u000au3(1.329940890019679,0.0,0.0) err_qr[3];\u000au3(0.841248699461267,0.0,0.0) err_qr[2];\u000acx err_qr[3],err_qr[2];\u000au3(0.446804288510548,0.0,0.0) err_qr[3];\u000acx err_qr[3],err_qr[4];\u000au3(1.183333232852155,0.0,0.0) err_qr[4];\u000au3(-1.570796326794897,0.0,0.0) err_qr[3];\u000ameasure err_qr[3] -> err_cr[3];\u000au3(1.057669526708564,0.0,0.0) err_qr[2];\u000acx err_qr[4],err_qr[2];\u000au3(1.570796326794897,0.0,0.0) err_qr[4];\u000ameasure err_qr[4] -> err_cr[4];\u000au3(1.570796326794897,0.0,0.0) err_qr[2];\u000ameasure err_qr[2] -> err_cr[2];\u000a
p388
sg243
V\u000ainclude "qelib1.inc";\u000aqreg main_qr[5];\u000acreg main_cr[5];\u000au3(0.628318530717959,0.0,0.0) main_qr[4];\u000au3(1.329940890019679,0.0,0.0) main_qr[3];\u000au3(0.841248699461267,0.0,0.0) main_qr[2];\u000acx main_qr[3],main_qr[2];\u000au3(0.446804288510548,0.0,0.0) main_qr[3];\u000acx main_qr[3],main_qr[4];\u000au3(1.183333232852155,0.0,0.0) main_qr[4];\u000ameasure main_qr[3] -> main_cr[3];\u000au3(1.057669526708564,0.0,0.0) main_qr[2];\u000acx main_qr[4],main_qr[2];\u000ameasure main_qr[4] -> main_cr[4];\u000ameasure main_qr[2] -> main_cr[2];\u000a
p389
sg245
(lp390
F0.1475712983788121
aF0.155183358238979
aF0.2725241518404089
aF0.7274758481595909
aF0.844816641761021
aF0.8524287016211877
asa(dp391
g225
(lp392
F0.076794487087751
aF1.12050137978036
aF0.205948851735331
aF1.232202451907997
aF0.254818070791172
aF0.446804288510548
asg227
(dp393
g229
L213L
sg230
L270L
sg231
L124L
sg232
L249L
sg233
L416L
sg234
L258L
sg235
L116L
sg236
L402L
ssg237
(lp394
F0.12246732840542411
aF0.3648060404733078
aF0.3930652914584365
aF0.6069347085415635
aF0.6351939595266922
aF0.8775326715945759
asg239
(dp395
g229
L609L
sg230
L44L
sg231
L80L
sg232
L157L
sg233
L72L
sg234
L77L
sg235
L965L
sg236
L44L
ssg241
V\u000ainclude "qelib1.inc";\u000aqreg err_qr[5];\u000acreg err_cr[5];\u000au3(0.076794487087751,0.0,0.0) err_qr[4];\u000au3(1.12050137978036,0.0,0.0) err_qr[3];\u000au3(0.205948851735331,0.0,0.0) err_qr[2];\u000acx err_qr[3],err_qr[2];\u000au3(1.232202451907997,0.0,0.0) err_qr[3];\u000acx err_qr[3],err_qr[4];\u000au3(0.254818070791172,0.0,0.0) err_qr[4];\u000au3(-1.570796326794897,0.0,0.0) err_qr[3];\u000ameasure err_qr[3] -> err_cr[3];\u000au3(0.446804288510548,0.0,0.0) err_qr[2];\u000acx err_qr[4],err_qr[2];\u000au3(1.570796326794897,0.0,0.0) err_qr[4];\u000ameasure err_qr[4] -> err_cr[4];\u000au3(1.570796326794897,0.0,0.0) err_qr[2];\u000ameasure err_qr[2] -> err_cr[2];\u000a
p396
sg243
V\u000ainclude "qelib1.inc";\u000aqreg main_qr[5];\u000acreg main_cr[5];\u000au3(0.076794487087751,0.0,0.0) main_qr[4];\u000au3(1.12050137978036,0.0,0.0) main_qr[3];\u000au3(0.205948851735331,0.0,0.0) main_qr[2];\u000acx main_qr[3],main_qr[2];\u000au3(1.232202451907997,0.0,0.0) main_qr[3];\u000acx main_qr[3],main_qr[4];\u000au3(0.254818070791172,0.0,0.0) main_qr[4];\u000ameasure main_qr[3] -> main_cr[3];\u000au3(0.446804288510548,0.0,0.0) main_qr[2];\u000acx main_qr[4],main_qr[2];\u000ameasure main_qr[4] -> main_cr[4];\u000ameasure main_qr[2] -> main_cr[2];\u000a
p397
sg245
(lp398
F0.1398473321291201
aF0.43403961579487066
aF0.4767855039302069
aF0.5232144960697932
aF0.5659603842051294
aF0.86015266787088
asa(dp399
g225
(lp400
F0.764454212373516
aF1.071632160724518
aF1.473057888683214
aF0.628318530717959
aF0.429350995990605
aF1.179842574348167
asg227
(dp401
g229
L432L
sg230
L123L
sg231
L146L
sg232
L373L
sg233
L360L
sg234
L394L
sg235
L95L
sg236
L125L
ssg237
(lp402
F0.28267479740522194
aF0.31043301886909996
aF0.4064422034539309
aF0.5935577965460691
aF0.6895669811309
aF0.717325202594778
asg239
(dp403
g229
L63L
sg230
L385L
sg231
L347L
sg232
L43L
sg233
L41L
sg234
L79L
sg235
L978L
sg236
L112L
ssg241
V\u000ainclude "qelib1.inc";\u000aqreg err_qr[5];\u000acreg err_cr[5];\u000au3(0.764454212373516,0.0,0.0) err_qr[4];\u000au3(1.071632160724518,0.0,0.0) err_qr[3];\u000au3(1.473057888683214,0.0,0.0) err_qr[2];\u000acx err_qr[3],err_qr[2];\u000au3(0.628318530717959,0.0,0.0) err_qr[3];\u000acx err_qr[3],err_qr[4];\u000au3(0.429350995990605,0.0,0.0) err_qr[4];\u000au3(-1.570796326794897,0.0,0.0) err_qr[3];\u000ameasure err_qr[3] -> err_cr[3];\u000au3(1.179842574348167,0.0,0.0) err_qr[2];\u000acx err_qr[4],err_qr[2];\u000au3(1.570796326794897,0.0,0.0) err_qr[4];\u000ameasure err_qr[4] -> err_cr[4];\u000au3(1.570796326794897,0.0,0.0) err_qr[2];\u000ameasure err_qr[2] -> err_cr[2];\u000a
p404
sg243
V\u000ainclude "qelib1.inc";\u000aqreg main_qr[5];\u000acreg main_cr[5];\u000au3(0.764454212373516,0.0,0.0) main_qr[4];\u000au3(1.071632160724518,0.0,0.0) main_qr[3];\u000au3(1.473057888683214,0.0,0.0) main_qr[2];\u000acx main_qr[3],main_qr[2];\u000au3(0.628318530717959,0.0,0.0) main_qr[3];\u000acx main_qr[3],main_qr[4];\u000au3(0.429350995990605,0.0,0.0) main_qr[4];\u000ameasure main_qr[3] -> main_cr[3];\u000au3(1.179842574348167,0.0,0.0) main_qr[2];\u000acx main_qr[4],main_qr[2];\u000ameasure main_qr[4] -> main_cr[4];\u000ameasure main_qr[2] -> main_cr[2];\u000a
p405
sg245
(lp406
F0.15219910325133812
aF0.22281244721896654
aF0.2697298959819132
aF0.7302701040180868
aF0.7771875527810335
aF0.8478008967486621
asa(dp407
g225
(lp408
F0.198967534727354
aF1.410226035611418
aF0.876155284501153
aF1.228711793404008
aF0.18151424220741
aF0.048869219055841
asg227
(dp409
g229
L92L
sg230
L325L
sg231
L90L
sg232
L306L
sg233
L546L
sg234
L146L
sg235
L57L
sg236
L486L
ssg237
(lp410
F0.08801039858857776
aF0.19701961545575408
aF0.2120539600801609
aF0.787946039919839
aF0.8029803845442459
aF0.9119896014114223
asg239
(dp411
g229
L206L
sg230
L43L
sg231
L121L
sg232
L304L
sg233
L65L
sg234
L94L
sg235
L1154L
sg236
L61L
ssg241
V\u000ainclude "qelib1.inc";\u000aqreg err_qr[5];\u000acreg err_cr[5];\u000au3(0.198967534727354,0.0,0.0) err_qr[4];\u000au3(1.410226035611418,0.0,0.0) err_qr[3];\u000au3(0.876155284501153,0.0,0.0) err_qr[2];\u000acx err_qr[3],err_qr[2];\u000au3(1.228711793404008,0.0,0.0) err_qr[3];\u000acx err_qr[3],err_qr[4];\u000au3(0.18151424220741,0.0,0.0) err_qr[4];\u000au3(-1.570796326794897,0.0,0.0) err_qr[3];\u000ameasure err_qr[3] -> err_cr[3];\u000au3(0.048869219055841,0.0,0.0) err_qr[2];\u000acx err_qr[4],err_qr[2];\u000au3(1.570796326794897,0.0,0.0) err_qr[4];\u000ameasure err_qr[4] -> err_cr[4];\u000au3(1.570796326794897,0.0,0.0) err_qr[2];\u000ameasure err_qr[2] -> err_cr[2];\u000a
p412
sg243
V\u000ainclude "qelib1.inc";\u000aqreg main_qr[5];\u000acreg main_cr[5];\u000au3(0.198967534727354,0.0,0.0) main_qr[4];\u000au3(1.410226035611418,0.0,0.0) main_qr[3];\u000au3(0.876155284501153,0.0,0.0) main_qr[2];\u000acx main_qr[3],main_qr[2];\u000au3(1.228711793404008,0.0,0.0) main_qr[3];\u000acx main_qr[3],main_qr[4];\u000au3(0.18151424220741,0.0,0.0) main_qr[4];\u000ameasure main_qr[3] -> main_cr[3];\u000au3(0.048869219055841,0.0,0.0) main_qr[2];\u000acx main_qr[4],main_qr[2];\u000ameasure main_qr[4] -> main_cr[4];\u000ameasure main_qr[2] -> main_cr[2];\u000a
p413
sg245
(lp414
F0.09465107176494708
aF0.16357745282695046
aF0.16717228586571503
aF0.8328277141342849
aF0.8364225471730494
aF0.9053489282350529
asa(dp415
g225
(lp416
F0.219911485751285
aF0.883136601509131
aF0.314159265358979
aF1.047197551196598
aF1.242674427419963
aF0.733038285837618
asg227
(dp417
g229
L76L
sg230
L357L
sg231
L145L
sg232
L259L
sg233
L556L
sg234
L185L
sg235
L148L
sg236
L322L
ssg237
(lp418
F0.22070653957506842
aF0.35585775402122505
aF0.44591527436514933
aF0.5540847256348507
aF0.644142245978775
aF0.7792934604249315
asg239
(dp419
g229
L360L
sg230
L104L
sg231
L178L
sg232
L56L
sg233
L369L
sg234
L108L
sg235
L704L
sg236
L169L
ssg241
V\u000ainclude "qelib1.inc";\u000aqreg err_qr[5];\u000acreg err_cr[5];\u000au3(0.219911485751285,0.0,0.0) err_qr[4];\u000au3(0.883136601509131,0.0,0.0) err_qr[3];\u000au3(0.314159265358979,0.0,0.0) err_qr[2];\u000acx err_qr[3],err_qr[2];\u000au3(1.047197551196598,0.0,0.0) err_qr[3];\u000acx err_qr[3],err_qr[4];\u000au3(1.242674427419963,0.0,0.0) err_qr[4];\u000au3(-1.570796326794897,0.0,0.0) err_qr[3];\u000ameasure err_qr[3] -> err_cr[3];\u000au3(0.733038285837618,0.0,0.0) err_qr[2];\u000acx err_qr[4],err_qr[2];\u000au3(1.570796326794897,0.0,0.0) err_qr[4];\u000ameasure err_qr[4] -> err_cr[4];\u000au3(1.570796326794897,0.0,0.0) err_qr[2];\u000ameasure err_qr[2] -> err_cr[2];\u000a
p420
sg243
V\u000ainclude "qelib1.inc";\u000aqreg main_qr[5];\u000acreg main_cr[5];\u000au3(0.219911485751285,0.0,0.0) main_qr[4];\u000au3(0.883136601509131,0.0,0.0) main_qr[3];\u000au3(0.314159265358979,0.0,0.0) main_qr[2];\u000acx main_qr[3],main_qr[2];\u000au3(1.047197551196598,0.0,0.0) main_qr[3];\u000acx main_qr[3],main_qr[4];\u000au3(1.242674427419963,0.0,0.0) main_qr[4];\u000ameasure main_qr[3] -> main_cr[3];\u000au3(0.733038285837618,0.0,0.0) main_qr[2];\u000acx main_qr[4],main_qr[2];\u000ameasure main_qr[4] -> main_cr[4];\u000ameasure main_qr[2] -> main_cr[2];\u000a
p421
sg245
(lp422
F0.17048510616830878
aF0.408445196545768
aF0.4100475745520553
aF0.5899524254479448
aF0.5915548034542321
aF0.8295148938316912
asa(dp423
g225
(lp424
F1.452113937659282
aF1.033234917180643
aF0.223402144255274
aF1.455604596163271
aF0.188495559215388
aF1.396263401595464
asg227
(dp425
g229
L265L
sg230
L57L
sg231
L42L
sg232
L301L
sg233
L781L
sg234
L517L
sg235
L39L
sg236
L46L
ssg237
(lp426
F0.38586223420493776
aF0.3968789766095783
aF0.39956943697812103
aF0.6004305630218789
aF0.6031210233904216
aF0.6141377657950622
asg239
(dp427
g229
L211L
sg230
L123L
sg231
L199L
sg232
L43L
sg233
L291L
sg234
L92L
sg235
L650L
sg236
L439L
ssg241
V\u000ainclude "qelib1.inc";\u000aqreg err_qr[5];\u000acreg err_cr[5];\u000au3(1.452113937659282,0.0,0.0) err_qr[4];\u000au3(1.033234917180643,0.0,0.0) err_qr[3];\u000au3(0.223402144255274,0.0,0.0) err_qr[2];\u000acx err_qr[3],err_qr[2];\u000au3(1.455604596163271,0.0,0.0) err_qr[3];\u000acx err_qr[3],err_qr[4];\u000au3(0.188495559215388,0.0,0.0) err_qr[4];\u000au3(-1.570796326794897,0.0,0.0) err_qr[3];\u000ameasure err_qr[3] -> err_cr[3];\u000au3(1.396263401595464,0.0,0.0) err_qr[2];\u000acx err_qr[4],err_qr[2];\u000au3(1.570796326794897,0.0,0.0) err_qr[4];\u000ameasure err_qr[4] -> err_cr[4];\u000au3(1.570796326794897,0.0,0.0) err_qr[2];\u000ameasure err_qr[2] -> err_cr[2];\u000a
p428
sg243
V\u000ainclude "qelib1.inc";\u000aqreg main_qr[5];\u000acreg main_cr[5];\u000au3(1.452113937659282,0.0,0.0) main_qr[4];\u000au3(1.033234917180643,0.0,0.0) main_qr[3];\u000au3(0.223402144255274,0.0,0.0) main_qr[2];\u000acx main_qr[3],main_qr[2];\u000au3(1.455604596163271,0.0,0.0) main_qr[3];\u000acx main_qr[3],main_qr[4];\u000au3(0.188495559215388,0.0,0.0) main_qr[4];\u000ameasure main_qr[3] -> main_cr[3];\u000au3(1.396263401595464,0.0,0.0) main_qr[2];\u000acx main_qr[4],main_qr[2];\u000ameasure main_qr[4] -> main_cr[4];\u000ameasure main_qr[2] -> main_cr[2];\u000a
p429
sg245
(lp430
F0.2229117902021091
aF0.22786174525987718
aF0.22868071417424088
aF0.7713192858257591
aF0.7721382547401229
aF0.777088209797891
asa(dp431
g225
(lp432
F1.539380400258999
aF0.617846555205993
aF0.122173047639603
aF1.403244718603441
aF0.136135681655558
aF1.556833692778942
asg227
(dp433
g229
L232L
sg230
L84L
sg231
L52L
sg232
L191L
sg233
L1162L
sg234
L259L
sg235
L23L
sg236
L45L
ssg237
(lp434
F0.25195456677953465
aF0.2743923973809902
aF0.29909140027889664
aF0.7009085997211033
aF0.7256076026190099
aF0.7480454332204654
asg239
(dp435
g229
L207L
sg230
L250L
sg231
L343L
sg232
L32L
sg233
L269L
sg234
L77L
sg235
L458L
sg236
L412L
ssg241
V\u000ainclude "qelib1.inc";\u000aqreg err_qr[5];\u000acreg err_cr[5];\u000au3(1.539380400258999,0.0,0.0) err_qr[4];\u000au3(0.617846555205993,0.0,0.0) err_qr[3];\u000au3(0.122173047639603,0.0,0.0) err_qr[2];\u000acx err_qr[3],err_qr[2];\u000au3(1.403244718603441,0.0,0.0) err_qr[3];\u000acx err_qr[3],err_qr[4];\u000au3(0.136135681655558,0.0,0.0) err_qr[4];\u000au3(-1.570796326794897,0.0,0.0) err_qr[3];\u000ameasure err_qr[3] -> err_cr[3];\u000au3(1.556833692778942,0.0,0.0) err_qr[2];\u000acx err_qr[4],err_qr[2];\u000au3(1.570796326794897,0.0,0.0) err_qr[4];\u000ameasure err_qr[4] -> err_cr[4];\u000au3(1.570796326794897,0.0,0.0) err_qr[2];\u000ameasure err_qr[2] -> err_cr[2];\u000a
p436
sg243
V\u000ainclude "qelib1.inc";\u000aqreg main_qr[5];\u000acreg main_cr[5];\u000au3(1.539380400258999,0.0,0.0) main_qr[4];\u000au3(0.617846555205993,0.0,0.0) main_qr[3];\u000au3(0.122173047639603,0.0,0.0) main_qr[2];\u000acx main_qr[3],main_qr[2];\u000au3(1.403244718603441,0.0,0.0) main_qr[3];\u000acx main_qr[3],main_qr[4];\u000au3(0.136135681655558,0.0,0.0) main_qr[4];\u000ameasure main_qr[3] -> main_cr[3];\u000au3(1.556833692778942,0.0,0.0) main_qr[2];\u000acx main_qr[4],main_qr[2];\u000ameasure main_qr[4] -> main_cr[4];\u000ameasure main_qr[2] -> main_cr[2];\u000a
p437
sg245
(lp438
F0.09111167873415627
aF0.09276023542883305
aF0.09434177907210306
aF0.9056582209278968
aF0.907239764571167
aF0.9088883212658438
asa(dp439
g225
(lp440
F0.132645023151569
aF0.502654824574367
aF0.474729556542458
aF0.719075651821664
aF0.893608577021097
aF0.307177948351002
asg227
(dp441
g229
L86L
sg230
L208L
sg231
L71L
sg232
L339L
sg233
L867L
sg234
L110L
sg235
L42L
sg236
L325L
ssg237
(lp442
F0.1146656502315811
aF0.2605927603099363
aF0.35592724089835326
aF0.6440727591016467
aF0.7394072396900637
aF0.8853343497684188
asg239
(dp443
g229
L710L
sg230
L223L
sg231
L195L
sg232
L88L
sg233
L340L
sg234
L58L
sg235
L395L
sg236
L39L
ssg241
V\u000ainclude "qelib1.inc";\u000aqreg err_qr[5];\u000acreg err_cr[5];\u000au3(0.132645023151569,0.0,0.0) err_qr[4];\u000au3(0.502654824574367,0.0,0.0) err_qr[3];\u000au3(0.474729556542458,0.0,0.0) err_qr[2];\u000acx err_qr[3],err_qr[2];\u000au3(0.719075651821664,0.0,0.0) err_qr[3];\u000acx err_qr[3],err_qr[4];\u000au3(0.893608577021097,0.0,0.0) err_qr[4];\u000au3(-1.570796326794897,0.0,0.0) err_qr[3];\u000ameasure err_qr[3] -> err_cr[3];\u000au3(0.307177948351002,0.0,0.0) err_qr[2];\u000acx err_qr[4],err_qr[2];\u000au3(1.570796326794897,0.0,0.0) err_qr[4];\u000ameasure err_qr[4] -> err_cr[4];\u000au3(1.570796326794897,0.0,0.0) err_qr[2];\u000ameasure err_qr[2] -> err_cr[2];\u000a
p444
sg243
V\u000ainclude "qelib1.inc";\u000aqreg main_qr[5];\u000acreg main_cr[5];\u000au3(0.132645023151569,0.0,0.0) main_qr[4];\u000au3(0.502654824574367,0.0,0.0) main_qr[3];\u000au3(0.474729556542458,0.0,0.0) main_qr[2];\u000acx main_qr[3],main_qr[2];\u000au3(0.719075651821664,0.0,0.0) main_qr[3];\u000acx main_qr[3],main_qr[4];\u000au3(0.893608577021097,0.0,0.0) main_qr[4];\u000ameasure main_qr[3] -> main_cr[3];\u000au3(0.307177948351002,0.0,0.0) main_qr[2];\u000acx main_qr[4],main_qr[2];\u000ameasure main_qr[4] -> main_cr[4];\u000ameasure main_qr[2] -> main_cr[2];\u000a
p445
sg245
(lp446
F0.12443100027558182
aF0.23820032404527314
aF0.35260973189182404
aF0.647390268108176
aF0.7617996759547269
aF0.8755689997244182
asa(dp447
g225
(lp448
F0.373500459926786
aF0.387463093942741
aF0.013962634015955
aF1.466076571675237
aF0.310668606854991
aF0.349065850398866
asg227
(dp449
g229
L204L
sg230
L186L
sg231
L48L
sg232
L190L
sg233
L878L
sg234
L111L
sg235
L51L
sg236
L380L
ssg237
(lp450
F0.17206506330046215
aF0.3552635206564745
aF0.406289426828944
aF0.593710573171056
aF0.6447364793435255
aF0.8279349366995378
asg239
(dp451
g229
L745L
sg230
L54L
sg231
L63L
sg232
L439L
sg233
L213L
sg234
L60L
sg235
L437L
sg236
L37L
ssg241
V\u000ainclude "qelib1.inc";\u000aqreg err_qr[5];\u000acreg err_cr[5];\u000au3(0.373500459926786,0.0,0.0) err_qr[4];\u000au3(0.387463093942741,0.0,0.0) err_qr[3];\u000au3(0.013962634015955,0.0,0.0) err_qr[2];\u000acx err_qr[3],err_qr[2];\u000au3(1.466076571675237,0.0,0.0) err_qr[3];\u000acx err_qr[3],err_qr[4];\u000au3(0.310668606854991,0.0,0.0) err_qr[4];\u000au3(-1.570796326794897,0.0,0.0) err_qr[3];\u000ameasure err_qr[3] -> err_cr[3];\u000au3(0.349065850398866,0.0,0.0) err_qr[2];\u000acx err_qr[4],err_qr[2];\u000au3(1.570796326794897,0.0,0.0) err_qr[4];\u000ameasure err_qr[4] -> err_cr[4];\u000au3(1.570796326794897,0.0,0.0) err_qr[2];\u000ameasure err_qr[2] -> err_cr[2];\u000a
p452
sg243
V\u000ainclude "qelib1.inc";\u000aqreg main_qr[5];\u000acreg main_cr[5];\u000au3(0.373500459926786,0.0,0.0) main_qr[4];\u000au3(0.387463093942741,0.0,0.0) main_qr[3];\u000au3(0.013962634015955,0.0,0.0) main_qr[2];\u000acx main_qr[3],main_qr[2];\u000au3(1.466076571675237,0.0,0.0) main_qr[3];\u000acx main_qr[3],main_qr[4];\u000au3(0.310668606854991,0.0,0.0) main_qr[4];\u000ameasure main_qr[3] -> main_cr[3];\u000au3(0.349065850398866,0.0,0.0) main_qr[2];\u000acx main_qr[4],main_qr[2];\u000ameasure main_qr[4] -> main_cr[4];\u000ameasure main_qr[2] -> main_cr[2];\u000a
p453
sg245
(lp454
F0.3257898941151768
aF0.32710324990529777
aF0.4804497807367923
aF0.5195502192632078
aF0.6728967500947023
aF0.6742101058848232
asa(dp455
g225
(lp456
F0.045378560551853
aF1.06814150222053
aF0.247836753783195
aF1.19729586686811
aF0.663225115757845
aF0.080285145591739
asg227
(dp457
g229
L182L
sg230
L347L
sg231
L94L
sg232
L139L
sg233
L424L
sg234
L246L
sg235
L86L
sg236
L530L
ssg237
(lp458
F0.20326919041814595
aF0.3278297878850779
aF0.446083047795843
aF0.553916952204157
aF0.6721702121149221
aF0.796730809581854
asg239
(dp459
g229
L583L
sg230
L60L
sg231
L96L
sg232
L266L
sg233
L177L
sg234
L90L
sg235
L698L
sg236
L78L
ssg241
V\u000ainclude "qelib1.inc";\u000aqreg err_qr[5];\u000acreg err_cr[5];\u000au3(0.045378560551853,0.0,0.0) err_qr[4];\u000au3(1.06814150222053,0.0,0.0) err_qr[3];\u000au3(0.247836753783195,0.0,0.0) err_qr[2];\u000acx err_qr[3],err_qr[2];\u000au3(1.19729586686811,0.0,0.0) err_qr[3];\u000acx err_qr[3],err_qr[4];\u000au3(0.663225115757845,0.0,0.0) err_qr[4];\u000au3(-1.570796326794897,0.0,0.0) err_qr[3];\u000ameasure err_qr[3] -> err_cr[3];\u000au3(0.080285145591739,0.0,0.0) err_qr[2];\u000acx err_qr[4],err_qr[2];\u000au3(1.570796326794897,0.0,0.0) err_qr[4];\u000ameasure err_qr[4] -> err_cr[4];\u000au3(1.570796326794897,0.0,0.0) err_qr[2];\u000ameasure err_qr[2] -> err_cr[2];\u000a
p460
sg243
V\u000ainclude "qelib1.inc";\u000aqreg main_qr[5];\u000acreg main_cr[5];\u000au3(0.045378560551853,0.0,0.0) main_qr[4];\u000au3(1.06814150222053,0.0,0.0) main_qr[3];\u000au3(0.247836753783195,0.0,0.0) main_qr[2];\u000acx main_qr[3],main_qr[2];\u000au3(1.19729586686811,0.0,0.0) main_qr[3];\u000acx main_qr[3],main_qr[4];\u000au3(0.663225115757845,0.0,0.0) main_qr[4];\u000ameasure main_qr[3] -> main_cr[3];\u000au3(0.080285145591739,0.0,0.0) main_qr[2];\u000acx main_qr[4],main_qr[2];\u000ameasure main_qr[4] -> main_cr[4];\u000ameasure main_qr[2] -> main_cr[2];\u000a
p461
sg245
(lp462
F0.27565184615514704
aF0.28902796312325363
aF0.48293356819584365
aF0.5170664318041563
aF0.7109720368767464
aF0.724348153844853
asa(dp463
g225
(lp464
F0.069813170079773
aF0.72954762733363
aF1.190314549860133
aF1.563815009786919
aF1.30201562198777
aF0.91106186954104
asg227
(dp465
g229
L100L
sg230
L448L
sg231
L269L
sg232
L137L
sg233
L176L
sg234
L102L
sg235
L290L
sg236
L526L
ssg237
(lp466
F0.23199407985450726
aF0.25262975992442255
aF0.3353507226352233
aF0.6646492773647766
aF0.7473702400755775
aF0.7680059201454927
asg239
(dp467
g229
L63L
sg230
L142L
sg231
L228L
sg232
L38L
sg233
L43L
sg234
L150L
sg235
L1016L
sg236
L368L
ssg241
V\u000ainclude "qelib1.inc";\u000aqreg err_qr[5];\u000acreg err_cr[5];\u000au3(0.069813170079773,0.0,0.0) err_qr[4];\u000au3(0.72954762733363,0.0,0.0) err_qr[3];\u000au3(1.190314549860133,0.0,0.0) err_qr[2];\u000acx err_qr[3],err_qr[2];\u000au3(1.563815009786919,0.0,0.0) err_qr[3];\u000acx err_qr[3],err_qr[4];\u000au3(1.30201562198777,0.0,0.0) err_qr[4];\u000au3(-1.570796326794897,0.0,0.0) err_qr[3];\u000ameasure err_qr[3] -> err_cr[3];\u000au3(0.91106186954104,0.0,0.0) err_qr[2];\u000acx err_qr[4],err_qr[2];\u000au3(1.570796326794897,0.0,0.0) err_qr[4];\u000ameasure err_qr[4] -> err_cr[4];\u000au3(1.570796326794897,0.0,0.0) err_qr[2];\u000ameasure err_qr[2] -> err_cr[2];\u000a
p468
sg243
V\u000ainclude "qelib1.inc";\u000aqreg main_qr[5];\u000acreg main_cr[5];\u000au3(0.069813170079773,0.0,0.0) main_qr[4];\u000au3(0.72954762733363,0.0,0.0) main_qr[3];\u000au3(1.190314549860133,0.0,0.0) main_qr[2];\u000acx main_qr[3],main_qr[2];\u000au3(1.563815009786919,0.0,0.0) main_qr[3];\u000acx main_qr[3],main_qr[4];\u000au3(1.30201562198777,0.0,0.0) main_qr[4];\u000ameasure main_qr[3] -> main_cr[3];\u000au3(0.91106186954104,0.0,0.0) main_qr[2];\u000acx main_qr[4],main_qr[2];\u000ameasure main_qr[4] -> main_cr[4];\u000ameasure main_qr[2] -> main_cr[2];\u000a
p469
sg245
(lp470
F0.09628389600732479
aF0.19206461617482995
aF0.2807425268609669
aF0.7192574731390328
aF0.80793538382517
aF0.9037161039926751
asa(dp471
g225
(lp472
F0.41538836197465
aF0.303687289847013
aF1.40673537710743
aF1.260127719939906
aF0.240855436775217
aF1.322959573011702
asg227
(dp473
g229
L422L
sg230
L141L
sg231
L177L
sg232
L274L
sg233
L326L
sg234
L431L
sg235
L159L
sg236
L118L
ssg237
(lp474
F0.32852705383151487
aF0.3534236942115845
aF0.41544412291213784
aF0.5845558770878622
aF0.6465763057884155
aF0.6714729461684852
asg239
(dp475
g229
L71L
sg230
L544L
sg231
L217L
sg232
L71L
sg233
L24L
sg234
L47L
sg235
L999L
sg236
L75L
ssg241
V\u000ainclude "qelib1.inc";\u000aqreg err_qr[5];\u000acreg err_cr[5];\u000au3(0.41538836197465,0.0,0.0) err_qr[4];\u000au3(0.303687289847013,0.0,0.0) err_qr[3];\u000au3(1.40673537710743,0.0,0.0) err_qr[2];\u000acx err_qr[3],err_qr[2];\u000au3(1.260127719939906,0.0,0.0) err_qr[3];\u000acx err_qr[3],err_qr[4];\u000au3(0.240855436775217,0.0,0.0) err_qr[4];\u000au3(-1.570796326794897,0.0,0.0) err_qr[3];\u000ameasure err_qr[3] -> err_cr[3];\u000au3(1.322959573011702,0.0,0.0) err_qr[2];\u000acx err_qr[4],err_qr[2];\u000au3(1.570796326794897,0.0,0.0) err_qr[4];\u000ameasure err_qr[4] -> err_cr[4];\u000au3(1.570796326794897,0.0,0.0) err_qr[2];\u000ameasure err_qr[2] -> err_cr[2];\u000a
p476
sg243
V\u000ainclude "qelib1.inc";\u000aqreg main_qr[5];\u000acreg main_cr[5];\u000au3(0.41538836197465,0.0,0.0) main_qr[4];\u000au3(0.303687289847013,0.0,0.0) main_qr[3];\u000au3(1.40673537710743,0.0,0.0) main_qr[2];\u000acx main_qr[3],main_qr[2];\u000au3(1.260127719939906,0.0,0.0) main_qr[3];\u000acx main_qr[3],main_qr[4];\u000au3(0.240855436775217,0.0,0.0) main_qr[4];\u000ameasure main_qr[3] -> main_cr[3];\u000au3(1.322959573011702,0.0,0.0) main_qr[2];\u000acx main_qr[4],main_qr[2];\u000ameasure main_qr[4] -> main_cr[4];\u000ameasure main_qr[2] -> main_cr[2];\u000a
p477
sg245
(lp478
F0.2975972143110536
aF0.2984075957169416
aF0.4069088128984625
aF0.5930911871015374
aF0.7015924042830584
aF0.7024027856889464
asa(dp479
g225
(lp480
F0.010471975511966
aF0.020943951023932
aF0.108210413623648
aF1.567305668290908
aF1.448623279155294
aF0.136135681655558
asg227
(dp481
g229
L130L
sg230
L456L
sg231
L90L
sg232
L329L
sg233
L311L
sg234
L135L
sg235
L74L
sg236
L523L
ssg237
(lp482
F0.20919541195864305
aF0.38535888279332525
aF0.4447184538301991
aF0.5552815461698009
aF0.6146411172066747
aF0.790804588041357
asg239
(dp483
g229
L371L
sg230
L55L
sg231
L70L
sg232
L398L
sg233
L421L
sg234
L392L
sg235
L217L
sg236
L124L
ssg241
V\u000ainclude "qelib1.inc";\u000aqreg err_qr[5];\u000acreg err_cr[5];\u000au3(0.010471975511966,0.0,0.0) err_qr[4];\u000au3(0.020943951023932,0.0,0.0) err_qr[3];\u000au3(0.108210413623648,0.0,0.0) err_qr[2];\u000acx err_qr[3],err_qr[2];\u000au3(1.567305668290908,0.0,0.0) err_qr[3];\u000acx err_qr[3],err_qr[4];\u000au3(1.448623279155294,0.0,0.0) err_qr[4];\u000au3(-1.570796326794897,0.0,0.0) err_qr[3];\u000ameasure err_qr[3] -> err_cr[3];\u000au3(0.136135681655558,0.0,0.0) err_qr[2];\u000acx err_qr[4],err_qr[2];\u000au3(1.570796326794897,0.0,0.0) err_qr[4];\u000ameasure err_qr[4] -> err_cr[4];\u000au3(1.570796326794897,0.0,0.0) err_qr[2];\u000ameasure err_qr[2] -> err_cr[2];\u000a
p484
sg243
V\u000ainclude "qelib1.inc";\u000aqreg main_qr[5];\u000acreg main_cr[5];\u000au3(0.010471975511966,0.0,0.0) main_qr[4];\u000au3(0.020943951023932,0.0,0.0) main_qr[3];\u000au3(0.108210413623648,0.0,0.0) main_qr[2];\u000acx main_qr[3],main_qr[2];\u000au3(1.567305668290908,0.0,0.0) main_qr[3];\u000acx main_qr[3],main_qr[4];\u000au3(1.448623279155294,0.0,0.0) main_qr[4];\u000ameasure main_qr[3] -> main_cr[3];\u000au3(0.136135681655558,0.0,0.0) main_qr[2];\u000acx main_qr[4],main_qr[2];\u000ameasure main_qr[4] -> main_cr[4];\u000ameasure main_qr[2] -> main_cr[2];\u000a
p485
sg245
(lp486
F0.37896418232605683
aF0.48901127086510904
aF0.4947291157288363
aF0.5052708842711635
aF0.5109887291348908
aF0.621035817673943
asa(dp487
g225
(lp488
F0.28623399732707
aF1.242674427419963
aF0.167551608191456
aF0.890117918517108
aF0.013962634015955
aF1.424188669627373
asg227
(dp489
g229
L319L
sg230
L164L
sg231
L150L
sg232
L285L
sg233
L436L
sg234
L417L
sg235
L120L
sg236
L157L
ssg237
(lp490
F0.26155671172962025
aF0.4467236151357461
aF0.46567761372892585
aF0.5343223862710742
aF0.5532763848642539
aF0.7384432882703797
asg239
(dp491
g229
L531L
sg230
L234L
sg231
L133L
sg232
L144L
sg233
L72L
sg234
L69L
sg235
L779L
sg236
L86L
ssg241
V\u000ainclude "qelib1.inc";\u000aqreg err_qr[5];\u000acreg err_cr[5];\u000au3(0.28623399732707,0.0,0.0) err_qr[4];\u000au3(1.242674427419963,0.0,0.0) err_qr[3];\u000au3(0.167551608191456,0.0,0.0) err_qr[2];\u000acx err_qr[3],err_qr[2];\u000au3(0.890117918517108,0.0,0.0) err_qr[3];\u000acx err_qr[3],err_qr[4];\u000au3(0.013962634015955,0.0,0.0) err_qr[4];\u000au3(-1.570796326794897,0.0,0.0) err_qr[3];\u000ameasure err_qr[3] -> err_cr[3];\u000au3(1.424188669627373,0.0,0.0) err_qr[2];\u000acx err_qr[4],err_qr[2];\u000au3(1.570796326794897,0.0,0.0) err_qr[4];\u000ameasure err_qr[4] -> err_cr[4];\u000au3(1.570796326794897,0.0,0.0) err_qr[2];\u000ameasure err_qr[2] -> err_cr[2];\u000a
p492
sg243
V\u000ainclude "qelib1.inc";\u000aqreg main_qr[5];\u000acreg main_cr[5];\u000au3(0.28623399732707,0.0,0.0) main_qr[4];\u000au3(1.242674427419963,0.0,0.0) main_qr[3];\u000au3(0.167551608191456,0.0,0.0) main_qr[2];\u000acx main_qr[3],main_qr[2];\u000au3(0.890117918517108,0.0,0.0) main_qr[3];\u000acx main_qr[3],main_qr[4];\u000au3(0.013962634015955,0.0,0.0) main_qr[4];\u000ameasure main_qr[3] -> main_cr[3];\u000au3(1.424188669627373,0.0,0.0) main_qr[2];\u000acx main_qr[4],main_qr[2];\u000ameasure main_qr[4] -> main_cr[4];\u000ameasure main_qr[2] -> main_cr[2];\u000a
p493
sg245
(lp494
F0.08696623608595877
aF0.4364123791607203
aF0.43711922193547526
aF0.5628807780645246
aF0.5635876208392795
aF0.9130337639140413
asa(dp495
g225
(lp496
F0.635299847725936
aF1.43116998663535
aF0.174532925199433
aF1.085594794740473
aF1.350884841043611
aF1.288052987971815
asg227
(dp497
g229
L214L
sg230
L196L
sg231
L291L
sg232
L174L
sg233
L323L
sg234
L276L
sg235
L384L
sg236
L190L
ssg237
(lp498
F0.17687400301528178
aF0.3319312105231438
aF0.40625
aF0.59375
aF0.6680687894768562
aF0.8231259969847182
asg239
(dp499
g229
L118L
sg230
L70L
sg231
L237L
sg232
L116L
sg233
L407L
sg234
L74L
sg235
L909L
sg236
L117L
ssg241
V\u000ainclude "qelib1.inc";\u000aqreg err_qr[5];\u000acreg err_cr[5];\u000au3(0.635299847725936,0.0,0.0) err_qr[4];\u000au3(1.43116998663535,0.0,0.0) err_qr[3];\u000au3(0.174532925199433,0.0,0.0) err_qr[2];\u000acx err_qr[3],err_qr[2];\u000au3(1.085594794740473,0.0,0.0) err_qr[3];\u000acx err_qr[3],err_qr[4];\u000au3(1.350884841043611,0.0,0.0) err_qr[4];\u000au3(-1.570796326794897,0.0,0.0) err_qr[3];\u000ameasure err_qr[3] -> err_cr[3];\u000au3(1.288052987971815,0.0,0.0) err_qr[2];\u000acx err_qr[4],err_qr[2];\u000au3(1.570796326794897,0.0,0.0) err_qr[4];\u000ameasure err_qr[4] -> err_cr[4];\u000au3(1.570796326794897,0.0,0.0) err_qr[2];\u000ameasure err_qr[2] -> err_cr[2];\u000a
p500
sg243
V\u000ainclude "qelib1.inc";\u000aqreg main_qr[5];\u000acreg main_cr[5];\u000au3(0.635299847725936,0.0,0.0) main_qr[4];\u000au3(1.43116998663535,0.0,0.0) main_qr[3];\u000au3(0.174532925199433,0.0,0.0) main_qr[2];\u000acx main_qr[3],main_qr[2];\u000au3(1.085594794740473,0.0,0.0) main_qr[3];\u000acx main_qr[3],main_qr[4];\u000au3(1.350884841043611,0.0,0.0) main_qr[4];\u000ameasure main_qr[3] -> main_cr[3];\u000au3(1.288052987971815,0.0,0.0) main_qr[2];\u000acx main_qr[4],main_qr[2];\u000ameasure main_qr[4] -> main_cr[4];\u000ameasure main_qr[2] -> main_cr[2];\u000a
p501
sg245
(lp502
F0.1894149088727467
aF0.3488893215115604
aF0.4255686586656266
aF0.5744313413343735
aF0.6511106784884396
aF0.8105850911272533
asa.