(lp0
(dp1
Vparameters
p2
(lp3
F33.1
aF16.2
aF31.2
aF32.2
aF16.8
aF42.9
asVres-ON
p4
(lp5
F0.24847327276756198
aF0.2924042087629574
aF0.3065187301128446
aF0.6934812698871554
aF0.7075957912370425
aF0.751526727232438
asVmain-counts
p6
(dp7
V00010
p8
L153L
sV00100
p9
L239L
sV00001
p10
L166L
sV00011
p11
L405L
sV00111
p12
L291L
sV00000
p13
L328L
sV00110
p14
L1160L
sV00101
p15
L330L
ssVrun
p16
Vdone
p17
sVcombined
p18
I01
sVerr-counts
p19
(dp20
g8
L494L
sg9
L137L
sg10
L219L
sg11
L167L
sg12
L207L
sg13
L311L
sg14
L57L
sg15
L1480L
ssVideal
p21
(lp22
F0.14381029295808334
aF0.1578095500696473
aF0.20559951698708037
aF0.7944004830129197
aF0.8421904499303527
aF0.8561897070419167
asVbackend
p23
Vibmqx2
p24
sVshots
p25
L3072L
sVorder
p26
(lp27
L0L
aL1L
aL1L
aL2L
aL2L
aL0L
asVconstruct
p28
I01
sa(dp29
g2
(lp30
F11.0
aF17.3
aF13.4
aF41.6
aF7.4
aF15.6
asg4
(lp31
F0.11739280479626524
aF0.24459369060198055
aF0.25104635713917733
aF0.7489536428608228
aF0.7554063093980194
aF0.8826071952037348
asg6
(dp32
V00010
p33
L309L
sV00100
p34
L146L
sV00001
p35
L166L
sV00011
p36
L199L
sV00111
p37
L420L
sV00000
p38
L786L
sV00110
p39
L186L
sV00101
p40
L860L
ssg16
g17
sg18
I01
sg19
(dp41
g33
L133L
sg34
L168L
sg35
L125L
sg36
L89L
sg37
L187L
sg38
L428L
sg39
L30L
sg40
L1912L
ssg21
(lp42
F0.027039343705071883
aF0.1639584453579136
aF0.16436658945710303
aF0.8356334105428969
aF0.8360415546420864
aF0.9729606562949281
asg23
g24
sg25
L3072L
sg26
(lp43
L0L
aL1L
aL1L
aL2L
aL2L
aL0L
asg28
I01
sa(dp44
g2
(lp45
F9.9
aF1.8
aF8.5
aF6.8
aF3.1
aF17.9
asg4
(lp46
F0.13235149059706489
aF0.1569001151380316
aF0.163923110111862
aF0.836076889888138
aF0.8430998848619683
aF0.8676485094029351
asg6
(dp47
V00010
p48
L98L
sV00100
p49
L43L
sV00001
p50
L340L
sV00011
p51
L54L
sV00111
p52
L180L
sV00000
p53
L2075L
sV00110
p54
L186L
sV00101
p55
L96L
ssg16
g17
sg18
I01
sg19
(dp56
g48
L254L
sg49
L177L
sg50
L278L
sg51
L569L
sg52
L377L
sg53
L216L
sg54
L164L
sg55
L1037L
ssg21
(lp57
F0.021145491436389177
aF0.058426319709686036
aF0.07781064508706076
aF0.9221893549129393
aF0.941573680290314
aF0.9788545085636109
asg23
g24
sg25
L3072L
sg26
(lp58
L0L
aL1L
aL1L
aL2L
aL2L
aL0L
asg28
I01
sa.