(lp0
(dp1
Vrun
p2
Vdone
p3
sVres-ON
p4
(lp5
F0.24086430570125544
aF0.2942782375203361
aF0.31026393349481146
aF0.6897360665051886
aF0.7057217624796639
aF0.7591356942987446
asVconstruct
p6
I01
sVerr-counts
p7
(dp8
V00100
p9
L94L
sV00001
p10
L156L
sV00111
p11
L128L
sV00110
p12
L35L
sV00010
p13
L330L
sV00000
p14
L212L
sV00011
p15
L113L
sV00101
p16
L980L
ssVorder
p17
(lp18
L0L
aL1L
aL1L
aL2L
aL2L
aL0L
asVmain-counts
p19
(dp20
g9
L157L
sg10
L101L
sg11
L195L
sg12
L776L
sg13
L103L
sg14
L218L
sg15
L277L
sg16
L221L
ssVcombined
p21
I01
sVideal
p22
(lp23
F0.14381029295808334
aF0.1578095500696473
aF0.20559951698708037
aF0.7944004830129197
aF0.8421904499303527
aF0.8561897070419167
asVshots
p24
L2048L
sVparameters
p25
(lp26
F33.1
aF16.2
aF31.2
aF32.2
aF16.8
aF42.9
asVbackend
p27
Vibmqx2
p28
sa(dp29
g2
g3
sg4
(lp30
F0.1141870491133049
aF0.23951122010830694
aF0.25102443781285233
aF0.7489755621871477
aF0.760488779891693
aF0.8858129508866951
asg6
I01
sg7
(dp31
V00100
p32
L105L
sV00001
p33
L89L
sV00111
p34
L119L
sV00110
p35
L19L
sV00010
p36
L90L
sV00000
p37
L281L
sV00011
p38
L56L
sV00101
p39
L1289L
ssg17
(lp40
L0L
aL1L
aL1L
aL2L
aL2L
aL0L
asg19
(dp41
g32
L95L
sg33
L112L
sg34
L272L
sg35
L131L
sg36
L205L
sg37
L524L
sg38
L139L
sg39
L570L
ssg21
I01
sg22
(lp42
F0.027039343705071883
aF0.1639584453579136
aF0.16436658945710303
aF0.8356334105428969
aF0.8360415546420864
aF0.9729606562949281
asg24
L2048L
sg25
(lp43
F11.0
aF17.3
aF13.4
aF41.6
aF7.4
aF15.6
asg27
g28
sa(dp44
g2
g3
sg4
(lp45
F0.1334962108438436
aF0.1491798609347592
aF0.15585176820534485
aF0.8441482317946551
aF0.8508201390652408
aF0.8665037891561562
asg6
I01
sg7
(dp46
V00100
p47
L119L
sV00001
p48
L180L
sV00111
p49
L246L
sV00110
p50
L106L
sV00010
p51
L183L
sV00000
p52
L142L
sV00011
p53
L366L
sV00101
p54
L706L
ssg17
(lp55
L0L
aL1L
aL1L
aL2L
aL2L
aL0L
asg19
(dp56
g47
L21L
sg48
L225L
sg49
L117L
sg50
L123L
sg51
L51L
sg52
L1411L
sg53
L39L
sg54
L61L
ssg21
I01
sg22
(lp57
F0.021145491436389177
aF0.058426319709686036
aF0.07781064508706076
aF0.9221893549129393
aF0.941573680290314
aF0.9788545085636109
asg24
L2048L
sg25
(lp58
F9.9
aF1.8
aF8.5
aF6.8
aF3.1
aF17.9
asg27
g28
sa.