(lp0
(dp1
Vrun
p2
Vdone
p3
sVconstruct
p4
I01
sVerr-counts
p5
(dp6
V00001
p7
L582L
sV00111
p8
L554L
sV00000
p9
L758L
sV00011
p10
L449L
sV00010
p11
L1334L
sV00101
p12
L3944L
sV00100
p13
L412L
sV00110
p14
L159L
ssVshots
p15
L8192L
sVmain-counts
p16
(dp17
g7
L491L
sg8
L755L
sg9
L794L
sg10
L1117L
sg11
L423L
sg12
L895L
sg13
L589L
sg14
L3128L
ssVparameters
p18
(lp19
F33.1
aF16.2
aF31.2
aF32.2
aF16.8
aF42.9
asVres-ON
p20
(lp21
F0.24625434085255574
aF0.2973583911428717
aF0.30460473860392456
aF0.6953952613960754
aF0.7026416088571283
aF0.7537456591474443
asVcombined
p22
I01
sVorder
p23
(lp24
L0L
aL1L
aL1L
aL2L
aL2L
aL0L
asVbackend
p25
Vibmqx2
p26
sVideal
p27
(lp28
F0.1934241934241934
aF0.23722123722123734
aF0.3415023415023415
aF0.6584976584976585
aF0.7627787627787627
aF0.8065758065758066
asa(dp29
g2
g3
sg4
I01
sg5
(dp30
V00001
p31
L299L
sV00111
p32
L277L
sV00000
p33
L377L
sV00011
p34
L234L
sV00010
p35
L653L
sV00101
p36
L1974L
sV00100
p37
L199L
sV00110
p38
L83L
ssg15
L4096L
sg16
(dp39
g31
L255L
sg32
L384L
sg33
L401L
sg34
L559L
sg35
L212L
sg36
L450L
sg37
L282L
sg38
L1553L
ssg18
g19
sg20
(lp40
F0.24661061001554238
aF0.29548999823893085
aF0.30762927098147785
aF0.6923707290185221
aF0.7045100017610691
aF0.7533893899844577
asg22
I01
sg23
(lp41
L0L
aL1L
aL1L
aL2L
aL2L
aL0L
asg25
g26
sg27
(lp42
F0.1934241934241934
aF0.23722123722123734
aF0.3415023415023415
aF0.6584976584976585
aF0.7627787627787627
aF0.8065758065758066
asa(dp43
g2
g3
sg4
I01
sg5
(dp44
V00001
p45
L138L
sV00111
p46
L146L
sV00000
p47
L186L
sV00011
p48
L111L
sV00010
p49
L333L
sV00101
p50
L991L
sV00100
p51
L101L
sV00110
p52
L42L
ssg15
L2048L
sg16
(dp53
g45
L130L
sg46
L188L
sg47
L199L
sg48
L274L
sg49
L105L
sg50
L223L
sg51
L149L
sg52
L780L
ssg18
g19
sg20
(lp54
F0.25198724936376876
aF0.29589785343235486
aF0.30142375359886164
aF0.6985762464011384
aF0.7041021465676451
aF0.7480127506362313
asg22
I01
sg23
(lp55
L0L
aL1L
aL1L
aL2L
aL2L
aL0L
asg25
g26
sg27
(lp56
F0.1934241934241934
aF0.23722123722123734
aF0.3415023415023415
aF0.6584976584976585
aF0.7627787627787627
aF0.8065758065758066
asa(dp57
g2
g3
sg4
I01
sg5
(dp58
V00001
p59
L369L
sV00111
p60
L567L
sV00000
p61
L1099L
sV00011
p62
L270L
sV00010
p63
L316L
sV00101
p64
L5059L
sV00100
p65
L443L
sV00110
p66
L69L
ssg15
L8192L
sg16
(dp67
g59
L476L
sg60
L1040L
sg61
L2116L
sg62
L551L
sg63
L913L
sg64
L2222L
sg65
L397L
sg66
L477L
ssg18
(lp68
F11.0
aF17.3
aF13.4
aF41.6
aF7.4
aF15.6
asg20
(lp69
F0.12369262584635043
aF0.23418338057864263
aF0.25068460263711523
aF0.7493153973628848
aF0.7658166194213574
aF0.8763073741536497
asg22
I01
sg23
(lp70
L0L
aL1L
aL1L
aL2L
aL2L
aL0L
asg25
g26
sg27
(lp71
F0.28740328740328747
aF0.3975123975123975
aF0.44275044275044273
aF0.5572495572495573
aF0.6024876024876025
aF0.7125967125967125
asa(dp72
g2
g3
sg4
I01
sg5
(dp73
V00001
p74
L187L
sV00111
p75
L283L
sV00000
p76
L546L
sV00011
p77
L133L
sV00010
p78
L153L
sV00101
p79
L2538L
sV00100
p80
L223L
sV00110
p81
L33L
ssg15
L4096L
sg16
(dp82
g74
L229L
sg75
L527L
sg76
L1060L
sg77
L271L
sg78
L459L
sg79
L1118L
sg80
L197L
sg81
L235L
ssg18
g68
sg20
(lp83
F0.12177487272463527
aF0.23210552566548276
aF0.24867954881292392
aF0.751320451187076
aF0.7678944743345172
aF0.8782251272753647
asg22
I01
sg23
(lp84
L0L
aL1L
aL1L
aL2L
aL2L
aL0L
asg25
g26
sg27
(lp85
F0.28740328740328747
aF0.3975123975123975
aF0.44275044275044273
aF0.5572495572495573
aF0.6024876024876025
aF0.7125967125967125
asa(dp86
g2
g3
sg4
I01
sg5
(dp87
V00001
p88
L88L
sV00111
p89
L146L
sV00000
p90
L278L
sV00011
p91
L70L
sV00010
p92
L78L
sV00101
p93
L1254L
sV00100
p94
L116L
sV00110
p95
L18L
ssg15
L2048L
sg16
(dp96
g88
L118L
sg89
L266L
sg90
L529L
sg91
L133L
sg92
L229L
sg93
L558L
sg94
L101L
sg95
L114L
ssg18
g68
sg20
(lp97
F0.12606836554186118
aF0.23807135500955928
aF0.25086887668415603
aF0.749131123315844
aF0.7619286449904407
aF0.8739316344581388
asg22
I01
sg23
(lp98
L0L
aL1L
aL1L
aL2L
aL2L
aL0L
asg25
g26
sg27
(lp99
F0.28740328740328747
aF0.3975123975123975
aF0.44275044275044273
aF0.5572495572495573
aF0.6024876024876025
aF0.7125967125967125
asa(dp100
g2
g3
sg4
I01
sg5
(dp101
V00001
p102
L732L
sV00111
p103
L1024L
sV00000
p104
L582L
sV00011
p105
L1560L
sV00010
p106
L605L
sV00101
p107
L2800L
sV00100
p108
L451L
sV00110
p109
L438L
ssg15
L8192L
sg16
(dp110
g102
L1015L
sg103
L459L
sg104
L5443L
sg105
L125L
sg106
L249L
sg107
L219L
sg108
L113L
sg109
L569L
ssg18
(lp111
F9.9
aF1.8
aF8.5
aF6.8
aF3.1
aF17.9
asg20
(lp112
F0.1283428253080125
aF0.15762846073619774
aF0.16619634777367753
aF0.8338036522263225
aF0.8423715392638023
aF0.8716571746919874
asg22
I01
sg23
(lp113
L0L
aL1L
aL1L
aL2L
aL2L
aL0L
asg25
g26
sg27
(lp114
F0.06018200000000007
aF0.08771300000000004
aF0.114317
aF0.885683
aF0.912287
aF0.9398179999999999
asa(dp115
g2
g3
sg4
I01
sg5
(dp116
V00001
p117
L372L
sV00111
p118
L496L
sV00000
p119
L293L
sV00011
p120
L796L
sV00010
p121
L287L
sV00101
p122
L1413L
sV00100
p123
L222L
sV00110
p124
L217L
ssg15
L4096L
sg16
(dp125
g117
L500L
sg118
L222L
sg119
L2733L
sg120
L64L
sg121
L120L
sg122
L114L
sg123
L56L
sg124
L287L
ssg18
g111
sg20
(lp126
F0.12361583263016257
aF0.15784050694642998
aF0.1635170861907651
aF0.8364829138092349
aF0.8421594930535701
aF0.8763841673698374
asg22
I01
sg23
(lp127
L0L
aL1L
aL1L
aL2L
aL2L
aL0L
asg25
g26
sg27
(lp128
F0.06018200000000007
aF0.08771300000000004
aF0.114317
aF0.885683
aF0.912287
aF0.9398179999999999
asa(dp129
g2
g3
sg4
I01
sg5
(dp130
V00001
p131
L187L
sV00111
p132
L260L
sV00000
p133
L147L
sV00011
p134
L400L
sV00010
p135
L141L
sV00101
p136
L689L
sV00100
p137
L112L
sV00110
p138
L112L
ssg15
L2048L
sg16
(dp139
g131
L255L
sg132
L117L
sg133
L1340L
sg134
L29L
sg135
L73L
sg136
L57L
sg137
L34L
sg138
L143L
ssg18
g111
sg20
(lp140
F0.12733550970523078
aF0.16342932467529886
aF0.17224541636630686
aF0.827754583633693
aF0.8365706753247011
aF0.8726644902947693
asg22
I01
sg23
(lp141
L0L
aL1L
aL1L
aL2L
aL2L
aL0L
asg25
g26
sg27
(lp142
F0.06018200000000007
aF0.08771300000000004
aF0.114317
aF0.885683
aF0.912287
aF0.9398179999999999
asa.