(lp0
(dp1
Verr-counts
p2
(dp3
V00010
p4
L663L
sV00111
p5
L274L
sV00000
p6
L398L
sV00011
p7
L224L
sV00110
p8
L77L
sV00100
p9
L195L
sV00101
p10
L1971L
sV00001
p11
L294L
ssVideal
p12
(lp13
F0.14381029295808334
aF0.1578095500696473
aF0.20559951698708037
aF0.7944004830129197
aF0.8421904499303527
aF0.8561897070419167
asVcombined
p14
I01
sVorder
p15
(lp16
L0L
aL1L
aL1L
aL2L
aL2L
aL0L
asVconstruct
p17
I01
sVbackend
p18
Vibmqx2
p19
sVrun
p20
Vdone
p21
sVmain-counts
p22
(dp23
g4
L208L
sg5
L383L
sg6
L417L
sg7
L551L
sg8
L1556L
sg9
L306L
sg10
L444L
sg11
L231L
ssVparameters
p24
(lp25
F33.1
aF16.2
aF31.2
aF32.2
aF16.8
aF42.9
asVshots
p26
L4096L
sVres-ON
p27
(lp28
F0.24644612041079644
aF0.2951623782820716
aF0.3060899349713972
aF0.6939100650286029
aF0.7048376217179284
aF0.7535538795892036
asa(dp29
g2
(dp30
V00010
p31
L168L
sV00111
p32
L265L
sV00000
p33
L559L
sV00011
p34
L126L
sV00110
p35
L37L
sV00100
p36
L221L
sV00101
p37
L2543L
sV00001
p38
L177L
ssg12
(lp39
F0.027039343705071883
aF0.1639584453579136
aF0.16436658945710303
aF0.8356334105428969
aF0.8360415546420864
aF0.9729606562949281
asg14
I01
sg15
(lp40
L0L
aL1L
aL1L
aL2L
aL2L
aL0L
asg17
I01
sg18
g19
sg20
g21
sg22
(dp41
g31
L434L
sg32
L538L
sg33
L1053L
sg34
L272L
sg35
L245L
sg36
L196L
sg37
L1128L
sg38
L230L
ssg24
(lp42
F11.0
aF17.3
aF13.4
aF41.6
aF7.4
aF15.6
asg26
L4096L
sg27
(lp43
F0.12014472492461817
aF0.23883011709431543
aF0.25104778036604075
aF0.7489522196339591
aF0.7611698829056845
aF0.8798552750753816
asa(dp44
g2
(dp45
V00010
p46
L324L
sV00111
p47
L506L
sV00000
p48
L289L
sV00011
p49
L766L
sV00110
p50
L218L
sV00100
p51
L231L
sV00101
p52
L1395L
sV00001
p53
L367L
ssg12
(lp54
F0.021145491436389177
aF0.058426319709686036
aF0.07781064508706076
aF0.9221893549129393
aF0.941573680290314
aF0.9788545085636109
asg14
I01
sg15
(lp55
L0L
aL1L
aL1L
aL2L
aL2L
aL0L
asg17
I01
sg18
g19
sg20
g21
sg22
(dp56
g46
L124L
sg47
L234L
sg48
L2751L
sg49
L68L
sg50
L266L
sg51
L55L
sg52
L118L
sg53
L480L
ssg24
(lp57
F9.9
aF1.8
aF8.5
aF6.8
aF3.1
aF17.9
asg26
L4096L
sg27
(lp58
F0.13054012802454162
aF0.1563050574265492
aF0.16405220934638676
aF0.8359477906536132
aF0.8436949425734508
aF0.8694598719754583
asa.