(lp0
(dp1
Vtomo-ON
p2
(lp3
F0.26047092141210104
aF0.2918569107591532
aF0.30196780183858823
aF0.6980321981614118
aF0.7081430892408471
aF0.7395290785878988
asVtomo-rho
p4
(lp5
(lp6
c__builtin__
complex
p7
(F0.09987032448127942
F0.0
tp8
Rp9
ag7
(F0.04566983685940282
F-0.007336633537705951
tp10
Rp11
ag7
(F0.014722422738301672
F0.024783077620500867
tp12
Rp13
ag7
(F0.06254233251554825
F-0.04708683808967131
tp14
Rp15
ag7
(F0.05170198224490311
F0.005537540939454629
tp16
Rp17
ag7
(F0.08558547075351593
F-0.013019205520297837
tp18
Rp19
ag7
(F0.1172746685672222
F-0.09263403886527925
tp20
Rp21
ag7
(F0.040196932552508
F0.00772264827163658
tp22
Rp23
aa(lp24
g7
(F0.04566983685940282
F0.007336633537705951
tp25
Rp26
ag7
(F0.060516501483258586
F0.0
tp27
Rp28
ag7
(F0.0184580362090583
F0.017942801238963295
tp29
Rp30
ag7
(F0.04674498596034192
F-0.018873783549248038
tp31
Rp32
ag7
(F0.051741123621733914
F0.00473757092263268
tp33
Rp34
ag7
(F0.0589068279042202
F-0.015825427356124976
tp35
Rp36
ag7
(F0.07105477185382461
F-0.04458363190990103
tp37
Rp38
ag7
(F0.04373565864925892
F-0.000943667067025698
tp39
Rp40
aa(lp41
g7
(F0.014722422738301672
F-0.024783077620500867
tp42
Rp43
ag7
(F0.0184580362090583
F-0.017942801238963295
tp44
Rp45
ag7
(F0.05409887531999928
F0.0
tp46
Rp47
ag7
(F0.0013476748769505895
F-0.03944288487176692
tp48
Rp49
ag7
(F0.014924864051181826
F-0.032313103315869264
tp50
Rp51
ag7
(F0.00934958882896669
F-0.03202930348836285
tp52
Rp53
ag7
(F-0.018020617793719593
F-0.08667981946490418
tp54
Rp55
ag7
(F0.025517041581489052
F-0.03061087203255752
tp56
Rp57
aa(lp58
g7
(F0.06254233251554825
F0.04708683808967131
tp59
Rp60
ag7
(F0.04674498596034192
F0.018873783549248038
tp61
Rp62
ag7
(F0.0013476748769505895
F0.03944288487176692
tp63
Rp64
ag7
(F0.12789870225577932
F0.0
tp65
Rp66
ag7
(F0.04484746103846254
F0.02588123066972205
tp67
Rp68
ag7
(F0.08264962292204282
F0.04252882653757926
tp69
Rp70
ag7
(F0.15463914252594926
F-0.012847903842980879
tp71
Rp72
ag7
(F0.03206620773781803
F0.0427261176970426
tp73
Rp74
aa(lp75
g7
(F0.05170198224490311
F-0.005537540939454629
tp76
Rp77
ag7
(F0.051741123621733914
F-0.00473757092263268
tp78
Rp79
ag7
(F0.014924864051181826
F0.032313103315869264
tp80
Rp81
ag7
(F0.04484746103846254
F-0.02588123066972205
tp82
Rp83
ag7
(F0.08327894709733893
F0.0
tp84
Rp85
ag7
(F0.05887110257405356
F-0.005521028501504437
tp86
Rp87
ag7
(F0.09193992454470226
F-0.05822418369213862
tp88
Rp89
ag7
(F0.0424256104579564
F7.508122961190529e-05
tp90
Rp91
aa(lp92
g7
(F0.08558547075351593
F0.013019205520297837
tp93
Rp94
ag7
(F0.0589068279042202
F0.015825427356124976
tp95
Rp96
ag7
(F0.00934958882896669
F0.03202930348836285
tp97
Rp98
ag7
(F0.08264962292204282
F-0.04252882653757926
tp99
Rp100
ag7
(F0.05887110257405356
F0.005521028501504437
tp101
Rp102
ag7
(F0.12481583302890062
F0.0
tp103
Rp104
ag7
(F0.1332843616742047
F-0.05981936014945306
tp105
Rp106
ag7
(F0.042774798962057964
F0.012444317063574153
tp107
Rp108
aa(lp109
g7
(F0.1172746685672222
F0.09263403886527925
tp110
Rp111
ag7
(F0.07105477185382461
F0.04458363190990103
tp112
Rp113
ag7
(F-0.018020617793719593
F0.08667981946490418
tp114
Rp115
ag7
(F0.15463914252594926
F0.012847903842980879
tp116
Rp117
ag7
(F0.09193992454470226
F0.05822418369213862
tp118
Rp119
ag7
(F0.1332843616742047
F0.05981936014945306
tp120
Rp121
ag7
(F0.36591968781881945
F0.0
tp122
Rp123
ag7
(F0.05890253254125656
F0.08994397007717933
tp124
Rp125
aa(lp126
g7
(F0.040196932552508
F-0.00772264827163658
tp127
Rp128
ag7
(F0.04373565864925892
F0.000943667067025698
tp129
Rp130
ag7
(F0.025517041581489052
F0.03061087203255752
tp131
Rp132
ag7
(F0.03206620773781803
F-0.0427261176970426
tp133
Rp134
ag7
(F0.0424256104579564
F-7.508122961190529e-05
tp135
Rp136
ag7
(F0.042774798962057964
F-0.012444317063574153
tp137
Rp138
ag7
(F0.05890253254125656
F-0.08994397007717933
tp139
Rp140
ag7
(F0.08360112851462446
F0.0
tp141
Rp142
aasVerr-counts
p143
(dp144
V00000
p145
L107L
sV00101
p146
L508L
sV00011
p147
L55L
sV00100
p148
L40L
sV00111
p149
L73L
sV00110
p150
L19L
sV00010
p151
L165L
sV00001
p152
L57L
ssVshots
p153
L1024L
sVparameters
p154
(lp155
F33.1
aF16.2
aF31.2
aF32.2
aF16.8
aF42.9
asVres-ON
p156
(lp157
F0.25409039317463844
aF0.30513478951760614
aF0.31038586094777737
aF0.6896141390522227
aF0.6948652104823938
aF0.7459096068253616
asVtomo-rdms
p158
(lp159
(lp160
(lp161
g7
(F0.6031678347174371
F0.0
tp162
Rp163
ag7
(F0.16479114685166352
F0.03764342316620202
tp164
Rp165
aa(lp166
g7
(F0.16479114685166352
F-0.03764342316620202
tp167
Rp168
ag7
(F0.396832165282563
F0.0
tp169
Rp170
aaa(lp171
(lp172
g7
(F0.3684816060907775
F0.0
tp173
Rp174
ag7
(F0.19618213220540381
F-0.03987057255731164
tp175
Rp176
aa(lp177
g7
(F0.19618213220540381
F0.03987057255731164
tp178
Rp179
ag7
(F0.6315183939092226
F0.0
tp180
Rp181
aaa(lp182
(lp183
g7
(F0.34238440354031663
F0.0
tp184
Rp185
ag7
(F0.12465440009322176
F-0.054241588184531925
tp186
Rp187
aa(lp188
g7
(F0.12465440009322176
F0.054241588184531925
tp189
Rp190
ag7
(F0.6576155964596835
F0.0
tp191
Rp192
aaasVmain-counts
p193
(dp194
g145
L109L
sg146
L128L
sg147
L146L
sg148
L74L
sg149
L106L
sg150
L350L
sg151
L63L
sg152
L48L
ssVbackend
p195
Vibmqx2
p196
sVorder
p197
(lp198
L0L
aL1L
aL1L
aL2L
aL2L
aL0L
asVrun
p199
L0L
sVcombined
p200
I00
sVideal
p201
(lp202
F0.14381029295808334
aF0.1578095500696473
aF0.20559951698708037
aF0.7944004830129197
aF0.8421904499303527
aF0.8561897070419167
asa(dp203
g2
(lp204
F0.13903456251094157
aF0.22819396231120126
aF0.23587222267701097
aF0.7641277773229893
aF0.7718060376887984
aF0.8609654374890581
asg4
(lp205
(lp206
g7
(F0.26091349013071435
F0.0
tp207
Rp208
ag7
(F0.06857155772600887
F-0.0006631658230913395
tp209
Rp210
ag7
(F0.12905078800932693
F-0.018027861794503986
tp211
Rp212
ag7
(F0.07160622344002954
F-0.02795386235566487
tp213
Rp214
ag7
(F0.08450843818725484
F-0.009741869119293384
tp215
Rp216
ag7
(F0.21205975740630198
F-0.02110576014219149
tp217
Rp218
ag7
(F0.08518574523946622
F-0.039282479043098124
tp219
Rp220
ag7
(F0.14151738388620846
F-0.04648258627977106
tp221
Rp222
aa(lp223
g7
(F0.06857155772600887
F0.0006631658230913395
tp224
Rp225
ag7
(F0.042691662833164154
F0.0
tp226
Rp227
ag7
(F0.027567940262764115
F-0.005232453378441993
tp228
Rp229
ag7
(F0.026990908079226956
F-0.012637895822148602
tp230
Rp231
ag7
(F0.02832172228055412
F-0.002847275489843909
tp232
Rp233
ag7
(F0.06692777285448813
F-0.009625534761450873
tp234
Rp235
ag7
(F0.03490230846944478
F-0.017238550345523504
tp236
Rp237
ag7
(F0.045023538546726284
F-0.01840008028172806
tp238
Rp239
aa(lp240
g7
(F0.12905078800932693
F0.018027861794503986
tp241
Rp242
ag7
(F0.027567940262764115
F0.005232453378441993
tp243
Rp244
ag7
(F0.10414752222592336
F0.0
tp245
Rp246
ag7
(F0.050213915835441894
F-0.013955352859419543
tp247
Rp248
ag7
(F0.04688672095413764
F0.003313360720075961
tp249
Rp250
ag7
(F0.11569737865495663
F0.006636089390368784
tp251
Rp252
ag7
(F0.053580177208956775
F-0.016467694615025282
tp253
Rp254
ag7
(F0.10143692834570332
F-0.029468277499252692
tp255
Rp256
aa(lp257
g7
(F0.07160622344002954
F0.02795386235566487
tp258
Rp259
ag7
(F0.026990908079226956
F0.012637895822148602
tp260
Rp261
ag7
(F0.050213915835441894
F0.013955352859419543
tp262
Rp263
ag7
(F0.07670269196723813
F0.0
tp264
Rp265
ag7
(F0.0233430400542513
F0.016743603180306026
tp266
Rp267
ag7
(F0.08444649578747493
F0.0273673827854677
tp268
Rp269
ag7
(F0.044012737180987346
F-0.010283197010260581
tp270
Rp271
ag7
(F0.06383911385693737
F-0.0009562795745408172
tp272
Rp273
aa(lp274
g7
(F0.08450843818725484
F0.009741869119293384
tp275
Rp276
ag7
(F0.02832172228055412
F0.002847275489843909
tp277
Rp278
ag7
(F0.04688672095413764
F-0.003313360720075961
tp279
Rp280
ag7
(F0.0233430400542513
F-0.016743603180306026
tp281
Rp282
ag7
(F0.04852038571265008
F0.0
tp283
Rp284
ag7
(F0.07896293072072388
F-0.00517599465553735
tp285
Rp286
ag7
(F0.03830280712054279
F-0.014114462699286937
tp287
Rp288
ag7
(F0.04964139975954701
F-0.017438573856845857
tp289
Rp290
aa(lp291
g7
(F0.21205975740630198
F0.02110576014219149
tp292
Rp293
ag7
(F0.06692777285448813
F0.009625534761450873
tp294
Rp295
ag7
(F0.11569737865495663
F-0.006636089390368784
tp296
Rp297
ag7
(F0.08444649578747493
F-0.0273673827854677
tp298
Rp299
ag7
(F0.07896293072072388
F0.00517599465553735
tp300
Rp301
ag7
(F0.2645678462246632
F0.0
tp302
Rp303
ag7
(F0.08000266746038519
F-0.01898500210602233
tp304
Rp305
ag7
(F0.1382542256233847
F-0.0330451390535301
tp306
Rp307
aa(lp308
g7
(F0.08518574523946622
F0.039282479043098124
tp309
Rp310
ag7
(F0.03490230846944478
F0.017238550345523504
tp311
Rp312
ag7
(F0.053580177208956775
F0.016467694615025282
tp313
Rp314
ag7
(F0.044012737180987346
F0.010283197010260581
tp315
Rp316
ag7
(F0.03830280712054279
F0.014114462699286937
tp317
Rp318
ag7
(F0.08000266746038519
F0.01898500210602233
tp319
Rp320
ag7
(F0.06977770831859777
F0.0
tp321
Rp322
ag7
(F0.06573995855236614
F0.01201980664607685
tp323
Rp324
aa(lp325
g7
(F0.14151738388620846
F0.04648258627977106
tp326
Rp327
ag7
(F0.045023538546726284
F0.01840008028172806
tp328
Rp329
ag7
(F0.10143692834570332
F0.029468277499252692
tp330
Rp331
ag7
(F0.06383911385693737
F0.0009562795745408172
tp332
Rp333
ag7
(F0.04964139975954701
F0.017438573856845857
tp334
Rp335
ag7
(F0.1382542256233847
F0.0330451390535301
tp336
Rp337
ag7
(F0.06573995855236614
F-0.01201980664607685
tp338
Rp339
ag7
(F0.1326786925870488
F0.0
tp340
Rp341
aasg143
(dp342
V00000
p343
L142L
sV00101
p344
L617L
sV00011
p345
L35L
sV00100
p346
L52L
sV00111
p347
L79L
sV00110
p348
L10L
sV00010
p349
L41L
sV00001
p350
L48L
ssg153
L1024L
sg154
(lp351
F11.0
aF17.3
aF13.4
aF41.6
aF7.4
aF15.6
asg156
(lp352
F0.13847397733568817
aF0.23750624891180444
aF0.2594799716589009
aF0.7405200283410991
aF0.7624937510881955
aF0.861526022664312
asg158
(lp353
(lp354
(lp355
g7
(F0.4833591063878856
F0.0
tp356
Rp357
ag7
(F0.2634883628345408
F-0.007774706691971383
tp358
Rp359
aa(lp360
g7
(F0.2634883628345408
F0.007774706691971383
tp361
Rp362
ag7
(F0.5166408936121143
F0.0
tp363
Rp364
aaa(lp365
(lp366
g7
(F0.6166933849011917
F0.0
tp367
Rp368
ag7
(F0.3325987288324814
F-0.07782535936946963
tp369
Rp370
aa(lp371
g7
(F0.3325987288324814
F0.07782535936946963
tp372
Rp373
ag7
(F0.3833066150988081
F0.0
tp374
Rp375
aaa(lp376
(lp377
g7
(F0.48445536715703996
F0.0
tp378
Rp379
ag7
(F0.2688555021076371
F-0.036791378070310354
tp380
Rp381
aa(lp382
g7
(F0.2688555021076371
F0.036791378070310354
tp383
Rp384
ag7
(F0.5155446328429598
F0.0
tp385
Rp386
aaasg193
(dp387
g343
L237L
sg344
L273L
sg345
L68L
sg346
L60L
sg347
L131L
sg348
L60L
sg349
L124L
sg350
L71L
ssg195
g196
sg197
(lp388
L0L
aL1L
aL1L
aL2L
aL2L
aL0L
asg199
L0L
sg200
I00
sg201
(lp389
F0.027039343705071883
aF0.1639584453579136
aF0.16436658945710303
aF0.8356334105428969
aF0.8360415546420864
aF0.9729606562949281
asa(dp390
g2
(lp391
F0.1368323648642111
aF0.1661781206711776
aF0.16752961216851475
aF0.8324703878314854
aF0.8338218793288227
aF0.8631676351357886
asg4
(lp392
(lp393
g7
(F0.6650354817208118
F0.0
tp394
Rp395
ag7
(F0.19675061535412863
F-0.005349915462980498
tp396
Rp397
ag7
(F0.03034647926472724
F-0.000534926271148539
tp398
Rp399
ag7
(F0.05272581450483952
F-0.02058279529533263
tp400
Rp401
ag7
(F0.04703034633764209
F-0.0016432973869027162
tp402
Rp403
ag7
(F0.0828163795494044
F-0.004325007469175291
tp404
Rp405
ag7
(F0.11129008934905207
F-0.1001090568061186
tp406
Rp407
ag7
(F0.10686278798570457
F-0.04060322351890981
tp408
Rp409
aa(lp410
g7
(F0.19675061535412863
F0.005349915462980498
tp411
Rp412
ag7
(F0.10663352057901507
F0.0
tp413
Rp414
ag7
(F0.02041133101262385
F-0.004364108237246399
tp415
Rp416
ag7
(F0.016625199137182568
F-0.0071294288215219825
tp417
Rp418
ag7
(F0.018740144872515803
F-0.003203090677178018
tp419
Rp420
ag7
(F0.021554133079008102
F-0.0010239243127218812
tp421
Rp422
ag7
(F0.03748347618655459
F-0.028883099717612576
tp423
Rp424
ag7
(F0.03853524738202436
F-0.004786375695579893
tp425
Rp426
aa(lp427
g7
(F0.03034647926472724
F0.000534926271148539
tp428
Rp429
ag7
(F0.02041133101262385
F0.004364108237246399
tp430
Rp431
ag7
(F0.02406617587009164
F0.0
tp432
Rp433
ag7
(F0.002666977082851461
F0.00017611430340095703
tp434
Rp435
ag7
(F0.002283668453982663
F0.0072145616373057
tp436
Rp437
ag7
(F0.013141067662985215
F-0.0011038716282626541
tp438
Rp439
ag7
(F0.006062569964359514
F-0.005722351795219743
tp440
Rp441
ag7
(F0.01084120745650887
F-0.0039028706923883976
tp442
Rp443
aa(lp444
g7
(F0.05272581450483952
F0.02058279529533263
tp445
Rp446
ag7
(F0.016625199137182568
F0.0071294288215219825
tp447
Rp448
ag7
(F0.002666977082851461
F-0.00017611430340095703
tp449
Rp450
ag7
(F0.026339711815416278
F0.0
tp451
Rp452
ag7
(F-0.007605369033877743
F0.005639771526776919
tp453
Rp454
ag7
(F0.009988252962255261
F-0.005203817773112185
tp455
Rp456
ag7
(F0.0123397988961047
F-0.0027004745363098377
tp457
Rp458
ag7
(F0.012079411554495625
F-0.005150490506616452
tp459
Rp460
aa(lp461
g7
(F0.04703034633764209
F0.0016432973869027162
tp462
Rp463
ag7
(F0.018740144872515803
F0.003203090677178018
tp464
Rp465
ag7
(F0.002283668453982663
F-0.0072145616373057
tp466
Rp467
ag7
(F-0.007605369033877743
F-0.005639771526776919
tp468
Rp469
ag7
(F0.01740288733740363
F0.0
tp470
Rp471
ag7
(F0.004732068651623201
F0.002433706825199123
tp472
Rp473
ag7
(F0.005499313979981752
F-0.0022657666977450707
tp474
Rp475
ag7
(F-0.0016706283734355034
F0.0017698047917301236
tp476
Rp477
aa(lp478
g7
(F0.0828163795494044
F0.004325007469175291
tp479
Rp480
ag7
(F0.021554133079008102
F0.0010239243127218812
tp481
Rp482
ag7
(F0.013141067662985215
F0.0011038716282626541
tp483
Rp484
ag7
(F0.009988252962255261
F0.005203817773112185
tp485
Rp486
ag7
(F0.004732068651623201
F-0.002433706825199123
tp487
Rp488
ag7
(F0.03641939767328113
F0.0
tp489
Rp490
ag7
(F0.009807682148331543
F-0.004540697774871389
tp491
Rp492
ag7
(F0.012904151490412154
F-0.007904429884348781
tp493
Rp494
aa(lp495
g7
(F0.11129008934905207
F0.1001090568061186
tp496
Rp497
ag7
(F0.03748347618655459
F0.028883099717612576
tp498
Rp499
ag7
(F0.006062569964359514
F0.005722351795219743
tp500
Rp501
ag7
(F0.0123397988961047
F0.0027004745363098377
tp502
Rp503
ag7
(F0.005499313979981752
F0.0022657666977450707
tp504
Rp505
ag7
(F0.009807682148331543
F0.004540697774871389
tp506
Rp507
ag7
(F0.06724830577856547
F0.0
tp508
Rp509
ag7
(F0.03418186280643472
F0.01491353500870286
tp510
Rp511
aa(lp512
g7
(F0.10686278798570457
F0.04060322351890981
tp513
Rp514
ag7
(F0.03853524738202436
F0.004786375695579893
tp515
Rp516
ag7
(F0.01084120745650887
F0.0039028706923883976
tp517
Rp518
ag7
(F0.012079411554495625
F0.005150490506616452
tp519
Rp520
ag7
(F-0.0016706283734355034
F-0.0017698047917301236
tp521
Rp522
ag7
(F0.012904151490412154
F0.007904429884348781
tp523
Rp524
ag7
(F0.03418186280643472
F-0.01491353500870286
tp525
Rp526
ag7
(F0.05685451922541513
F0.0
tp527
Rp528
aasg143
(dp529
V00000
p530
L77L
sV00101
p531
L387L
sV00011
p532
L167L
sV00100
p533
L58L
sV00111
p534
L118L
sV00110
p535
L42L
sV00010
p536
L77L
sV00001
p537
L98L
ssg153
L1024L
sg154
(lp538
F9.9
aF1.8
aF8.5
aF6.8
aF3.1
aF17.9
asg156
(lp539
F0.12818224409865034
aF0.1544113779845988
aF0.1623606651550055
aF0.8376393348449944
aF0.8455886220154013
aF0.8718177559013496
asg158
(lp540
(lp541
(lp542
g7
(F0.7737528507068725
F0.0
tp543
Rp544
ag7
(F0.23833152389503803
F0.012173440674322442
tp545
Rp546
aa(lp547
g7
(F0.23833152389503803
F-0.012173440674322442
tp548
Rp549
ag7
(F0.22624714929312761
F0.0
tp550
Rp551
aaa(lp552
(lp553
g7
(F0.8254912873105116
F0.0
tp554
Rp555
ag7
(F0.06537514387230371
F-0.017834551674764373
tp556
Rp557
aa(lp558
g7
(F0.06537514387230371
F0.017834551674764373
tp559
Rp560
ag7
(F0.1745087126894885
F0.0
tp561
Rp562
aaa(lp563
(lp564
g7
(F0.8220748899853348
F0.0
tp565
Rp566
ag7
(F0.08672646093550532
F-0.013540064001460793
tp567
Rp568
aa(lp569
g7
(F0.08672646093550532
F0.013540064001460793
tp570
Rp571
ag7
(F0.17792511001466538
F0.0
tp572
Rp573
aaasg193
(dp574
g530
L675L
sg531
L30L
sg532
L16L
sg533
L15L
sg534
L57L
sg535
L77L
sg536
L25L
sg537
L129L
ssg195
g196
sg197
(lp575
L0L
aL1L
aL1L
aL2L
aL2L
aL0L
asg199
L0L
sg200
I00
sg201
(lp576
F0.021145491436389177
aF0.058426319709686036
aF0.07781064508706076
aF0.9221893549129393
aF0.941573680290314
aF0.9788545085636109
asa.