(lp0
(dp1
Vbackend
p2
Vibmqx2
p3
sVconstruct
p4
I01
sVorder
p5
(lp6
L0L
aL1L
aL1L
aL2L
aL2L
aL0L
asVideal
p7
(lp8
F0.14381029295808334
aF0.1578095500696473
aF0.20559951698708037
aF0.7944004830129197
aF0.8421904499303527
aF0.8561897070419167
asVparameters
p9
(lp10
F33.1
aF16.2
aF31.2
aF32.2
aF16.8
aF42.9
asVres-ON
p11
(lp12
F0.24644612041079644
aF0.2951623782820716
aF0.3060899349713972
aF0.6939100650286029
aF0.7048376217179284
aF0.7535538795892036
asVmain-counts
p13
(dp14
V00011
p15
L551L
sV00000
p16
L417L
sV00111
p17
L383L
sV00001
p18
L231L
sV00110
p19
L1556L
sV00101
p20
L444L
sV00010
p21
L208L
sV00100
p22
L306L
ssVshots
p23
L4096L
sVcombined
p24
I01
sVrun
p25
Vdone
p26
sVerr-counts
p27
(dp28
g15
L224L
sg16
L398L
sg17
L274L
sg18
L294L
sg19
L77L
sg20
L1971L
sg21
L663L
sg22
L195L
ssa(dp29
g2
g3
sg4
I01
sg5
(lp30
L0L
aL1L
aL1L
aL2L
aL2L
aL0L
asg7
(lp31
F0.027039343705071883
aF0.1639584453579136
aF0.16436658945710303
aF0.8356334105428969
aF0.8360415546420864
aF0.9729606562949281
asg9
(lp32
F11.0
aF17.3
aF13.4
aF41.6
aF7.4
aF15.6
asg11
(lp33
F0.12014472492461817
aF0.23883011709431543
aF0.25104778036604075
aF0.7489522196339591
aF0.7611698829056845
aF0.8798552750753816
asg13
(dp34
V00011
p35
L272L
sV00000
p36
L1053L
sV00111
p37
L538L
sV00001
p38
L230L
sV00110
p39
L245L
sV00101
p40
L1128L
sV00010
p41
L434L
sV00100
p42
L196L
ssg23
L4096L
sg24
I01
sg25
g26
sg27
(dp43
g35
L126L
sg36
L559L
sg37
L265L
sg38
L177L
sg39
L37L
sg40
L2543L
sg41
L168L
sg42
L221L
ssa(dp44
g2
g3
sg4
I01
sg5
(lp45
L0L
aL1L
aL1L
aL2L
aL2L
aL0L
asg7
(lp46
F0.021145491436389177
aF0.058426319709686036
aF0.07781064508706076
aF0.9221893549129393
aF0.941573680290314
aF0.9788545085636109
asg9
(lp47
F9.9
aF1.8
aF8.5
aF6.8
aF3.1
aF17.9
asg11
(lp48
F0.13054012802454162
aF0.1563050574265492
aF0.16405220934638676
aF0.8359477906536132
aF0.8436949425734508
aF0.8694598719754583
asg13
(dp49
V00011
p50
L68L
sV00000
p51
L2751L
sV00111
p52
L234L
sV00001
p53
L480L
sV00110
p54
L266L
sV00101
p55
L118L
sV00010
p56
L124L
sV00100
p57
L55L
ssg23
L4096L
sg24
I01
sg25
g26
sg27
(dp58
g50
L766L
sg51
L289L
sg52
L506L
sg53
L367L
sg54
L218L
sg55
L1395L
sg56
L324L
sg57
L231L
ssa.