(lp0
(dp1
Vmain-qasm
p2
V\u000ainclude "qelib1.inc";\u000aqreg main_qr[5];\u000acreg main_cr[5];\u000au3(0.0,0.0,0.0) main_qr[3];\u000acx main_qr[3],main_qr[4];\u000au3(0.0,0.0,0.0) main_qr[4];\u000au3(0.0,0.0,0.0) main_qr[3];\u000acx main_qr[3],main_qr[2];\u000acx main_qr[4],main_qr[2];\u000ameasure main_qr[2] -> main_cr[2];\u000ameasure main_qr[4] -> main_cr[4];\u000ameasure main_qr[3] -> main_cr[3];\u000a
p3
sVerr-counts
p4
(dp5
V11100
p6
L333L
sV00000
p7
L238L
sV00100
p8
L288L
sV01000
p9
L200L
sV10100
p10
L445L
sV10000
p11
L171L
sV11000
p12
L125L
sV01100
p13
L248L
ssVexp-ON
p14
(lp15
F0.03922597906972032
aF0.04280471485062602
aF0.048069918073386786
aF0.9519300819266132
aF0.957195285149374
aF0.9607740209302796
asVmain-counts
p16
(dp17
g6
L3L
sg7
L1822L
sg8
L60L
sg9
L42L
sg10
L28L
sg11
L32L
sg12
L26L
sg13
L35L
ssVerr-qasm
p18
V\u000ainclude "qelib1.inc";\u000aqreg err_qr[5];\u000acreg err_cr[5];\u000au3(0.0,0.0,0.0) err_qr[3];\u000acx err_qr[3],err_qr[4];\u000au3(0.0,0.0,0.0) err_qr[4];\u000au3(0.0,0.0,0.0) err_qr[3];\u000acx err_qr[3],err_qr[2];\u000acx err_qr[4],err_qr[2];\u000au3(1.570796326794897,0.0,0.0) err_qr[2];\u000ameasure err_qr[2] -> err_cr[2];\u000au3(1.570796326794897,0.0,0.0) err_qr[4];\u000ameasure err_qr[4] -> err_cr[4];\u000au3(-1.570796326794897,0.0,0.0) err_qr[3];\u000ameasure err_qr[3] -> err_cr[3];\u000a
p19
sVdiag-ON
p20
(lp21
F0.028257456828885363
aF0.03192046049188901
aF0.03296703296703296
aF0.967032967032967
aF0.968079539508111
aF0.9717425431711146
asVideal
p22
(lp23
F0.0
aF0.0
aF0.0
aF1.0
aF1.0
aF1.0
asVparameters
p24
(lp25
F0.0
aF0.0
aF0.0
asa(dp26
g2
V\u000ainclude "qelib1.inc";\u000aqreg main_qr[5];\u000acreg main_cr[5];\u000au3(0.558505360638185,0.0,0.0) main_qr[3];\u000acx main_qr[3],main_qr[4];\u000au3(0.792379480405425,0.0,0.0) main_qr[4];\u000au3(0.387463093942741,0.0,0.0) main_qr[3];\u000acx main_qr[3],main_qr[2];\u000acx main_qr[4],main_qr[2];\u000ameasure main_qr[2] -> main_cr[2];\u000ameasure main_qr[4] -> main_cr[4];\u000ameasure main_qr[3] -> main_cr[3];\u000a
p27
sg4
(dp28
g6
L295L
sg7
L192L
sg8
L113L
sg9
L394L
sg10
L740L
sg11
L124L
sg12
L46L
sg13
L144L
ssg14
(lp29
F0.1428150065619309
aF0.1719854631621441
aF0.2645238675753944
aF0.7354761324246056
aF0.828014536837856
aF0.8571849934380692
asg16
(dp30
g6
L10L
sg7
L1308L
sg8
L74L
sg9
L41L
sg10
L276L
sg11
L83L
sg12
L208L
sg13
L48L
ssg18
V\u000ainclude "qelib1.inc";\u000aqreg err_qr[5];\u000acreg err_cr[5];\u000au3(0.558505360638185,0.0,0.0) err_qr[3];\u000acx err_qr[3],err_qr[4];\u000au3(0.792379480405425,0.0,0.0) err_qr[4];\u000au3(0.387463093942741,0.0,0.0) err_qr[3];\u000acx err_qr[3],err_qr[2];\u000acx err_qr[4],err_qr[2];\u000au3(1.570796326794897,0.0,0.0) err_qr[2];\u000ameasure err_qr[2] -> err_cr[2];\u000au3(1.570796326794897,0.0,0.0) err_qr[4];\u000ameasure err_qr[4] -> err_cr[4];\u000au3(-1.570796326794897,0.0,0.0) err_qr[3];\u000ameasure err_qr[3] -> err_cr[3];\u000a
p31
sg20
(lp32
F0.13913043478260867
aF0.1760869565217391
aF0.2630434782608696
aF0.7369565217391304
aF0.8239130434782609
aF0.8608695652173913
asg22
(lp33
F0.10366589633410361
aF0.10740889259110731
aF0.2022707977292022
aF0.7977292022707978
aF0.8925911074088927
aF0.8963341036658964
asg24
(lp34
F0.558505360638185
aF0.792379480405425
aF0.387463093942741
asa(dp35
g2
V\u000ainclude "qelib1.inc";\u000aqreg main_qr[5];\u000acreg main_cr[5];\u000au3(1.476548547187203,0.0,0.0) main_qr[3];\u000acx main_qr[3],main_qr[4];\u000au3(1.361356816555577,0.0,0.0) main_qr[4];\u000au3(0.136135681655558,0.0,0.0) main_qr[3];\u000acx main_qr[3],main_qr[2];\u000acx main_qr[4],main_qr[2];\u000ameasure main_qr[2] -> main_cr[2];\u000ameasure main_qr[4] -> main_cr[4];\u000ameasure main_qr[3] -> main_cr[3];\u000a
p36
sg4
(dp37
g6
L238L
sg7
L157L
sg8
L229L
sg9
L300L
sg10
L409L
sg11
L276L
sg12
L187L
sg13
L252L
ssg14
(lp38
F0.36099755373026804
aF0.42278051629718005
aF0.454477101481224
aF0.545522898518776
aF0.57721948370282
aF0.6390024462697319
asg16
(dp39
g6
L37L
sg7
L596L
sg8
L78L
sg9
L57L
sg10
L387L
sg11
L114L
sg12
L522L
sg13
L257L
ssg18
V\u000ainclude "qelib1.inc";\u000aqreg err_qr[5];\u000acreg err_cr[5];\u000au3(1.476548547187203,0.0,0.0) err_qr[3];\u000acx err_qr[3],err_qr[4];\u000au3(1.361356816555577,0.0,0.0) err_qr[4];\u000au3(0.136135681655558,0.0,0.0) err_qr[3];\u000acx err_qr[3],err_qr[2];\u000acx err_qr[4],err_qr[2];\u000au3(1.570796326794897,0.0,0.0) err_qr[2];\u000ameasure err_qr[2] -> err_cr[2];\u000au3(1.570796326794897,0.0,0.0) err_qr[4];\u000ameasure err_qr[4] -> err_cr[4];\u000au3(-1.570796326794897,0.0,0.0) err_qr[3];\u000ameasure err_qr[3] -> err_cr[3];\u000a
p40
sg20
(lp41
F0.36549375709421117
aF0.44211123723042
aF0.4841089670828604
aF0.5158910329171396
aF0.55788876276958
aF0.6345062429057888
asg22
(lp42
F0.33092600000000005
aF0.45338100000000003
aF0.490217
aF0.509783
aF0.546619
aF0.669074
asg24
(lp43
F1.476548547187203
aF1.361356816555577
aF0.136135681655558
asa(dp44
g2
V\u000ainclude "qelib1.inc";\u000aqreg main_qr[5];\u000acreg main_cr[5];\u000au3(1.17286125734019,0.0,0.0) main_qr[3];\u000acx main_qr[3],main_qr[4];\u000au3(0.359537825910832,0.0,0.0) main_qr[4];\u000au3(1.134464013796314,0.0,0.0) main_qr[3];\u000acx main_qr[3],main_qr[2];\u000acx main_qr[4],main_qr[2];\u000ameasure main_qr[2] -> main_cr[2];\u000ameasure main_qr[4] -> main_cr[4];\u000ameasure main_qr[3] -> main_cr[3];\u000a
p45
sg4
(dp46
g6
L131L
sg7
L205L
sg8
L260L
sg9
L401L
sg10
L488L
sg11
L198L
sg12
L89L
sg13
L276L
ssg14
(lp47
F0.21347208579140575
aF0.3685371308623075
aF0.41230218631768406
aF0.587697813682316
aF0.6314628691376925
aF0.7865279142085941
asg16
(dp48
g6
L29L
sg7
L870L
sg8
L93L
sg9
L53L
sg10
L80L
sg11
L108L
sg12
L565L
sg13
L250L
ssg18
V\u000ainclude "qelib1.inc";\u000aqreg err_qr[5];\u000acreg err_cr[5];\u000au3(1.17286125734019,0.0,0.0) err_qr[3];\u000acx err_qr[3],err_qr[4];\u000au3(0.359537825910832,0.0,0.0) err_qr[4];\u000au3(1.134464013796314,0.0,0.0) err_qr[3];\u000acx err_qr[3],err_qr[2];\u000acx err_qr[4],err_qr[2];\u000au3(1.570796326794897,0.0,0.0) err_qr[2];\u000ameasure err_qr[2] -> err_cr[2];\u000au3(1.570796326794897,0.0,0.0) err_qr[4];\u000ameasure err_qr[4] -> err_cr[4];\u000au3(-1.570796326794897,0.0,0.0) err_qr[3];\u000ameasure err_qr[3] -> err_cr[3];\u000a
p49
sg20
(lp50
F0.18696883852691226
aF0.3654390934844193
aF0.4617563739376771
aF0.5382436260623229
aF0.6345609065155807
aF0.8130311614730877
asg22
(lp51
F0.15522115522115532
aF0.31863131863131866
aF0.4181144181144182
aF0.5818855818855818
aF0.6813686813686813
aF0.8447788447788447
asg24
(lp52
F1.17286125734019
aF0.359537825910832
aF1.134464013796314
asa(dp53
g2
V\u000ainclude "qelib1.inc";\u000aqreg main_qr[5];\u000acreg main_cr[5];\u000au3(1.050688209700587,0.0,0.0) main_qr[3];\u000acx main_qr[3],main_qr[4];\u000au3(0.694641042293743,0.0,0.0) main_qr[4];\u000au3(0.516617458590321,0.0,0.0) main_qr[3];\u000acx main_qr[3],main_qr[2];\u000acx main_qr[4],main_qr[2];\u000ameasure main_qr[2] -> main_cr[2];\u000ameasure main_qr[4] -> main_cr[4];\u000ameasure main_qr[3] -> main_cr[3];\u000a
p54
sg4
(dp55
g6
L238L
sg7
L231L
sg8
L200L
sg9
L357L
sg10
L520L
sg11
L205L
sg12
L76L
sg13
L221L
ssg14
(lp56
F0.11839609781576992
aF0.3232765863495983
aF0.4020694769524825
aF0.5979305230475175
aF0.6767234136504017
aF0.88160390218423
asg16
(dp57
g6
L43L
sg7
L1077L
sg8
L42L
sg9
L54L
sg10
L122L
sg11
L120L
sg12
L539L
sg13
L51L
ssg18
V\u000ainclude "qelib1.inc";\u000aqreg err_qr[5];\u000acreg err_cr[5];\u000au3(1.050688209700587,0.0,0.0) err_qr[3];\u000acx err_qr[3],err_qr[4];\u000au3(0.694641042293743,0.0,0.0) err_qr[4];\u000au3(0.516617458590321,0.0,0.0) err_qr[3];\u000acx err_qr[3],err_qr[2];\u000acx err_qr[4],err_qr[2];\u000au3(1.570796326794897,0.0,0.0) err_qr[2];\u000ameasure err_qr[2] -> err_cr[2];\u000au3(1.570796326794897,0.0,0.0) err_qr[4];\u000ameasure err_qr[4] -> err_cr[4];\u000au3(-1.570796326794897,0.0,0.0) err_qr[3];\u000ameasure err_qr[3] -> err_cr[3];\u000a
p58
sg20
(lp59
F0.0967020681945221
aF0.32979318054779205
aF0.3694801565120178
aF0.6305198434879822
aF0.670206819452208
aF0.9032979318054779
asg22
(lp60
F0.028807000000000027
aF0.283942
aF0.309091
aF0.690909
aF0.716058
aF0.971193
asg24
(lp61
F1.050688209700587
aF0.694641042293743
aF0.516617458590321
asa(dp62
g2
V\u000ainclude "qelib1.inc";\u000aqreg main_qr[5];\u000acreg main_cr[5];\u000au3(1.322959573011702,0.0,0.0) main_qr[3];\u000acx main_qr[3],main_qr[4];\u000au3(0.15707963267949,0.0,0.0) main_qr[4];\u000au3(0.474729556542458,0.0,0.0) main_qr[3];\u000acx main_qr[3],main_qr[2];\u000acx main_qr[4],main_qr[2];\u000ameasure main_qr[2] -> main_cr[2];\u000ameasure main_qr[4] -> main_cr[4];\u000ameasure main_qr[3] -> main_cr[3];\u000a
p63
sg4
(dp64
g6
L208L
sg7
L198L
sg8
L263L
sg9
L331L
sg10
L436L
sg11
L234L
sg12
L109L
sg13
L269L
ssg14
(lp65
F0.1110178589985571
aF0.396069476446059
aF0.4221899659574353
aF0.5778100340425647
aF0.6039305235539411
aF0.8889821410014429
asg16
(dp66
g6
L23L
sg7
L964L
sg8
L43L
sg9
L61L
sg10
L65L
sg11
L136L
sg12
L645L
sg13
L111L
ssg18
V\u000ainclude "qelib1.inc";\u000aqreg err_qr[5];\u000acreg err_cr[5];\u000au3(1.322959573011702,0.0,0.0) err_qr[3];\u000acx err_qr[3],err_qr[4];\u000au3(0.15707963267949,0.0,0.0) err_qr[4];\u000au3(0.474729556542458,0.0,0.0) err_qr[3];\u000acx err_qr[3],err_qr[2];\u000acx err_qr[4],err_qr[2];\u000au3(1.570796326794897,0.0,0.0) err_qr[2];\u000ameasure err_qr[2] -> err_cr[2];\u000au3(1.570796326794897,0.0,0.0) err_qr[4];\u000ameasure err_qr[4] -> err_cr[4];\u000au3(-1.570796326794897,0.0,0.0) err_qr[3];\u000ameasure err_qr[3] -> err_cr[3];\u000a
p67
sg20
(lp68
F0.09859943977591046
aF0.3977591036414566
aF0.42352941176470593
aF0.5764705882352941
aF0.6022408963585434
aF0.9014005602240895
asg22
(lp69
F0.026106000000000074
aF0.3788560000000001
aF0.39091
aF0.60909
aF0.6211439999999999
aF0.9738939999999999
asg24
(lp70
F1.322959573011702
aF0.15707963267949
aF0.474729556542458
asa(dp71
g2
V\u000ainclude "qelib1.inc";\u000aqreg main_qr[5];\u000acreg main_cr[5];\u000au3(1.403244718603441,0.0,0.0) main_qr[3];\u000acx main_qr[3],main_qr[4];\u000au3(1.130973355292325,0.0,0.0) main_qr[4];\u000au3(0.561996019142174,0.0,0.0) main_qr[3];\u000acx main_qr[3],main_qr[2];\u000acx main_qr[4],main_qr[2];\u000ameasure main_qr[2] -> main_cr[2];\u000ameasure main_qr[4] -> main_cr[4];\u000ameasure main_qr[3] -> main_cr[3];\u000a
p72
sg4
(dp73
g6
L208L
sg7
L201L
sg8
L228L
sg9
L314L
sg10
L360L
sg11
L286L
sg12
L160L
sg13
L291L
ssg14
(lp74
F0.1490398905454571
aF0.42217771047869457
aF0.49119738458138673
aF0.5088026154186133
aF0.5778222895213054
aF0.8509601094545429
asg16
(dp75
g6
L32L
sg7
L848L
sg8
L48L
sg9
L43L
sg10
L128L
sg11
L151L
sg12
L698L
sg13
L100L
ssg18
V\u000ainclude "qelib1.inc";\u000aqreg err_qr[5];\u000acreg err_cr[5];\u000au3(1.403244718603441,0.0,0.0) err_qr[3];\u000acx err_qr[3],err_qr[4];\u000au3(1.130973355292325,0.0,0.0) err_qr[4];\u000au3(0.561996019142174,0.0,0.0) err_qr[3];\u000acx err_qr[3],err_qr[2];\u000acx err_qr[4],err_qr[2];\u000au3(1.570796326794897,0.0,0.0) err_qr[2];\u000ameasure err_qr[2] -> err_cr[2];\u000au3(1.570796326794897,0.0,0.0) err_qr[4];\u000ameasure err_qr[4] -> err_cr[4];\u000au3(-1.570796326794897,0.0,0.0) err_qr[3];\u000ameasure err_qr[3] -> err_cr[3];\u000a
p76
sg20
(lp77
F0.1285231116121759
aF0.4498308906426156
aF0.4656144306651635
aF0.5343855693348365
aF0.5501691093573844
aF0.8714768883878241
asg22
(lp78
F0.08215000000000006
aF0.4294410000000001
aF0.46449700000000005
aF0.535503
aF0.5705589999999999
aF0.9178499999999999
asg24
(lp79
F1.403244718603441
aF1.130973355292325
aF0.561996019142174
asa(dp80
g2
V\u000ainclude "qelib1.inc";\u000aqreg main_qr[5];\u000acreg main_cr[5];\u000au3(1.284562329467826,0.0,0.0) main_qr[3];\u000acx main_qr[3],main_qr[4];\u000au3(1.176351915844178,0.0,0.0) main_qr[4];\u000au3(0.191986217719376,0.0,0.0) main_qr[3];\u000acx main_qr[3],main_qr[2];\u000acx main_qr[4],main_qr[2];\u000ameasure main_qr[2] -> main_cr[2];\u000ameasure main_qr[4] -> main_cr[4];\u000ameasure main_qr[3] -> main_cr[3];\u000a
p81
sg4
(dp82
g6
L279L
sg7
L214L
sg8
L195L
sg9
L269L
sg10
L456L
sg11
L230L
sg12
L180L
sg13
L225L
ssg14
(lp83
F0.23958079021424042
aF0.37732376941701856
aF0.4405779573180613
aF0.5594220426819386
aF0.6226762305829814
aF0.7604192097857596
asg16
(dp84
g6
L27L
sg7
L778L
sg8
L72L
sg9
L57L
sg10
L278L
sg11
L137L
sg12
L569L
sg13
L130L
ssg18
V\u000ainclude "qelib1.inc";\u000aqreg err_qr[5];\u000acreg err_cr[5];\u000au3(1.284562329467826,0.0,0.0) err_qr[3];\u000acx err_qr[3],err_qr[4];\u000au3(1.176351915844178,0.0,0.0) err_qr[4];\u000au3(0.191986217719376,0.0,0.0) err_qr[3];\u000acx err_qr[3],err_qr[2];\u000acx err_qr[4],err_qr[2];\u000au3(1.570796326794897,0.0,0.0) err_qr[2];\u000ameasure err_qr[2] -> err_cr[2];\u000au3(1.570796326794897,0.0,0.0) err_qr[4];\u000ameasure err_qr[4] -> err_cr[4];\u000au3(-1.570796326794897,0.0,0.0) err_qr[3];\u000ameasure err_qr[3] -> err_cr[3];\u000a
p85
sg20
(lp86
F0.23247863247863254
aF0.3982905982905983
aF0.4826210826210826
aF0.5173789173789174
aF0.6017094017094017
aF0.7675213675213675
asg22
(lp87
F0.2268880000000001
aF0.36142300000000005
aF0.44574900000000006
aF0.5542509999999999
aF0.638577
aF0.7731119999999999
asg24
(lp88
F1.284562329467826
aF1.176351915844178
aF0.191986217719376
asa(dp89
g2
V\u000ainclude "qelib1.inc";\u000aqreg main_qr[5];\u000acreg main_cr[5];\u000au3(0.272271363311115,0.0,0.0) main_qr[3];\u000acx main_qr[3],main_qr[4];\u000au3(0.848230016469244,0.0,0.0) main_qr[4];\u000au3(0.46774823953448,0.0,0.0) main_qr[3];\u000acx main_qr[3],main_qr[2];\u000acx main_qr[4],main_qr[2];\u000ameasure main_qr[2] -> main_cr[2];\u000ameasure main_qr[4] -> main_cr[4];\u000ameasure main_qr[3] -> main_cr[3];\u000a
p90
sg4
(dp91
g6
L393L
sg7
L329L
sg8
L110L
sg9
L341L
sg10
L683L
sg11
L65L
sg12
L52L
sg13
L75L
ssg14
(lp92
F0.16046191401896448
aF0.213391799826847
aF0.2684856791301621
aF0.7315143208698379
aF0.786608200173153
aF0.8395380859810355
asg16
(dp93
g6
L19L
sg7
L1253L
sg8
L71L
sg9
L51L
sg10
L305L
sg11
L71L
sg12
L186L
sg13
L92L
ssg18
V\u000ainclude "qelib1.inc";\u000aqreg err_qr[5];\u000acreg err_cr[5];\u000au3(0.272271363311115,0.0,0.0) err_qr[3];\u000acx err_qr[3],err_qr[4];\u000au3(0.848230016469244,0.0,0.0) err_qr[4];\u000au3(0.46774823953448,0.0,0.0) err_qr[3];\u000acx err_qr[3],err_qr[2];\u000acx err_qr[4],err_qr[2];\u000au3(1.570796326794897,0.0,0.0) err_qr[2];\u000ameasure err_qr[2] -> err_cr[2];\u000au3(1.570796326794897,0.0,0.0) err_qr[4];\u000ameasure err_qr[4] -> err_cr[4];\u000au3(-1.570796326794897,0.0,0.0) err_qr[3];\u000ameasure err_qr[3] -> err_cr[3];\u000a
p94
sg20
(lp95
F0.15141612200435717
aF0.21623093681917205
aF0.26742919389978204
aF0.732570806100218
aF0.783769063180828
aF0.8485838779956428
asg22
(lp96
F0.07014707014707022
aF0.1593851593851595
aF0.1815241815241816
aF0.8184758184758184
aF0.8406148406148405
aF0.9298529298529298
asg24
(lp97
F0.272271363311115
aF0.848230016469244
aF0.46774823953448
asa(dp98
g2
V\u000ainclude "qelib1.inc";\u000aqreg main_qr[5];\u000acreg main_cr[5];\u000au3(0.534070751110265,0.0,0.0) main_qr[3];\u000acx main_qr[3],main_qr[4];\u000au3(1.256637061435917,0.0,0.0) main_qr[4];\u000au3(0.150098315671512,0.0,0.0) main_qr[3];\u000acx main_qr[3],main_qr[2];\u000acx main_qr[4],main_qr[2];\u000ameasure main_qr[2] -> main_cr[2];\u000ameasure main_qr[4] -> main_cr[4];\u000ameasure main_qr[3] -> main_cr[3];\u000a
p99
sg4
(dp100
g6
L416L
sg7
L301L
sg8
L81L
sg9
L325L
sg10
L690L
sg11
L89L
sg12
L67L
sg13
L79L
ssg14
(lp101
F0.13061111966828276
aF0.34226172653715564
aF0.3799106040788975
aF0.6200893959211025
aF0.6577382734628443
aF0.8693888803317172
asg16
(dp102
g6
L26L
sg7
L930L
sg8
L71L
sg9
L33L
sg10
L661L
sg11
L106L
sg12
L169L
sg13
L52L
ssg18
V\u000ainclude "qelib1.inc";\u000aqreg err_qr[5];\u000acreg err_cr[5];\u000au3(0.534070751110265,0.0,0.0) err_qr[3];\u000acx err_qr[3],err_qr[4];\u000au3(1.256637061435917,0.0,0.0) err_qr[4];\u000au3(0.150098315671512,0.0,0.0) err_qr[3];\u000acx err_qr[3],err_qr[2];\u000acx err_qr[4],err_qr[2];\u000au3(1.570796326794897,0.0,0.0) err_qr[2];\u000ameasure err_qr[2] -> err_cr[2];\u000au3(1.570796326794897,0.0,0.0) err_qr[4];\u000ameasure err_qr[4] -> err_cr[4];\u000au3(-1.570796326794897,0.0,0.0) err_qr[3];\u000ameasure err_qr[3] -> err_cr[3];\u000a
p103
sg20
(lp104
F0.12196467991169979
aF0.39348785871964675
aF0.45805739514348787
aF0.5419426048565121
aF0.6065121412803532
aF0.8780353200883002
asg22
(lp105
F0.07446800000000009
aF0.3110320000000001
aF0.367008
aF0.632992
aF0.6889679999999999
aF0.9255319999999999
asg24
(lp106
F0.534070751110265
aF1.256637061435917
aF0.150098315671512
asa(dp107
g2
V\u000ainclude "qelib1.inc";\u000aqreg main_qr[5];\u000acreg main_cr[5];\u000au3(1.361356816555577,0.0,0.0) main_qr[3];\u000acx main_qr[3],main_qr[4];\u000au3(1.528908424747032,0.0,0.0) main_qr[4];\u000au3(0.568977336150151,0.0,0.0) main_qr[3];\u000acx main_qr[3],main_qr[2];\u000acx main_qr[4],main_qr[2];\u000ameasure main_qr[2] -> main_cr[2];\u000ameasure main_qr[4] -> main_cr[4];\u000ameasure main_qr[3] -> main_cr[3];\u000a
p108
sg4
(dp109
g6
L231L
sg7
L167L
sg8
L202L
sg9
L354L
sg10
L455L
sg11
L250L
sg12
L135L
sg13
L254L
ssg14
(lp110
F0.27000968290062155
aF0.4012319151622371
aF0.446929870219428
aF0.553070129780572
aF0.5987680848377629
aF0.7299903170993784
asg16
(dp111
g6
L41L
sg7
L667L
sg8
L57L
sg9
L63L
sg10
L331L
sg11
L165L
sg12
L585L
sg13
L139L
ssg18
V\u000ainclude "qelib1.inc";\u000aqreg err_qr[5];\u000acreg err_cr[5];\u000au3(1.361356816555577,0.0,0.0) err_qr[3];\u000acx err_qr[3],err_qr[4];\u000au3(1.528908424747032,0.0,0.0) err_qr[4];\u000au3(0.568977336150151,0.0,0.0) err_qr[3];\u000acx err_qr[3],err_qr[2];\u000acx err_qr[4],err_qr[2];\u000au3(1.570796326794897,0.0,0.0) err_qr[2];\u000ameasure err_qr[2] -> err_cr[2];\u000au3(1.570796326794897,0.0,0.0) err_qr[4];\u000ameasure err_qr[4] -> err_cr[4];\u000au3(-1.570796326794897,0.0,0.0) err_qr[3];\u000ameasure err_qr[3] -> err_cr[3];\u000a
p112
sg20
(lp113
F0.27293844367015097
aF0.42044134727061555
aF0.46806039488966317
aF0.5319396051103369
aF0.5795586527293844
aF0.727061556329849
asg22
(lp114
F0.21909299999999998
aF0.41242200000000007
aF0.49564700000000006
aF0.5043529999999999
aF0.5875779999999999
aF0.780907
asg24
(lp115
F1.361356816555577
aF1.528908424747032
aF0.568977336150151
asa(dp116
g2
V\u000ainclude "qelib1.inc";\u000aqreg main_qr[5];\u000acreg main_cr[5];\u000au3(0.879645943005142,0.0,0.0) main_qr[3];\u000acx main_qr[3],main_qr[4];\u000au3(0.823795406941324,0.0,0.0) main_qr[4];\u000au3(0.373500459926786,0.0,0.0) main_qr[3];\u000acx main_qr[3],main_qr[2];\u000acx main_qr[4],main_qr[2];\u000ameasure main_qr[2] -> main_cr[2];\u000ameasure main_qr[4] -> main_cr[4];\u000ameasure main_qr[3] -> main_cr[3];\u000a
p117
sg4
(dp118
g6
L249L
sg7
L166L
sg8
L109L
sg9
L416L
sg10
L679L
sg11
L182L
sg12
L48L
sg13
L199L
ssg14
(lp119
F0.16198203661647465
aF0.22736891723310526
aF0.33464847325884806
aF0.6653515267411519
aF0.7726310827668947
aF0.8380179633835253
asg16
(dp120
g6
L27L
sg7
L1187L
sg8
L59L
sg9
L45L
sg10
L235L
sg11
L90L
sg12
L361L
sg13
L44L
ssg18
V\u000ainclude "qelib1.inc";\u000aqreg err_qr[5];\u000acreg err_cr[5];\u000au3(0.879645943005142,0.0,0.0) err_qr[3];\u000acx err_qr[3],err_qr[4];\u000au3(0.823795406941324,0.0,0.0) err_qr[4];\u000au3(0.373500459926786,0.0,0.0) err_qr[3];\u000acx err_qr[3],err_qr[2];\u000acx err_qr[4],err_qr[2];\u000au3(1.570796326794897,0.0,0.0) err_qr[2];\u000ameasure err_qr[2] -> err_cr[2];\u000au3(1.570796326794897,0.0,0.0) err_qr[4];\u000ameasure err_qr[4] -> err_cr[4];\u000au3(-1.570796326794897,0.0,0.0) err_qr[3];\u000ameasure err_qr[3] -> err_cr[3];\u000a
p121
sg20
(lp122
F0.15270935960591125
aF0.2216748768472906
aF0.3262178434592228
aF0.6737821565407772
aF0.7783251231527094
aF0.8472906403940887
asg22
(lp123
F0.08056000000000008
aF0.20326200000000005
aF0.283454
aF0.716546
aF0.796738
aF0.9194399999999999
asg24
(lp124
F0.879645943005142
aF0.823795406941324
aF0.373500459926786
asa(dp125
g2
V\u000ainclude "qelib1.inc";\u000aqreg main_qr[5];\u000acreg main_cr[5];\u000au3(0.551524043630208,0.0,0.0) main_qr[3];\u000acx main_qr[3],main_qr[4];\u000au3(1.32645023151569,0.0,0.0) main_qr[4];\u000au3(0.680678408277788,0.0,0.0) main_qr[3];\u000acx main_qr[3],main_qr[2];\u000acx main_qr[4],main_qr[2];\u000ameasure main_qr[2] -> main_cr[2];\u000ameasure main_qr[4] -> main_cr[4];\u000ameasure main_qr[3] -> main_cr[3];\u000a
p126
sg4
(dp127
g6
L267L
sg7
L195L
sg8
L76L
sg9
L488L
sg10
L812L
sg11
L78L
sg12
L37L
sg13
L95L
ssg14
(lp128
F0.20282238773144012
aF0.28495659135295714
aF0.40805131195323935
aF0.5919486880467606
aF0.7150434086470429
aF0.79717761226856
asg16
(dp129
g6
L21L
sg7
L939L
sg8
L80L
sg9
L39L
sg10
L498L
sg11
L100L
sg12
L324L
sg13
L47L
ssg18
V\u000ainclude "qelib1.inc";\u000aqreg err_qr[5];\u000acreg err_cr[5];\u000au3(0.551524043630208,0.0,0.0) err_qr[3];\u000acx err_qr[3],err_qr[4];\u000au3(1.32645023151569,0.0,0.0) err_qr[4];\u000au3(0.680678408277788,0.0,0.0) err_qr[3];\u000acx err_qr[3],err_qr[2];\u000acx err_qr[4],err_qr[2];\u000au3(1.570796326794897,0.0,0.0) err_qr[2];\u000ameasure err_qr[2] -> err_cr[2];\u000au3(1.570796326794897,0.0,0.0) err_qr[4];\u000ameasure err_qr[4] -> err_cr[4];\u000au3(-1.570796326794897,0.0,0.0) err_qr[3];\u000ameasure err_qr[3] -> err_cr[3];\u000a
p130
sg20
(lp131
F0.20519911504424782
aF0.30143805309734517
aF0.45464601769911506
aF0.5453539823008849
aF0.6985619469026548
aF0.7948008849557522
asg22
(lp132
F0.16904200000000003
aF0.246016
aF0.39697400000000005
aF0.603026
aF0.753984
aF0.830958
asg24
(lp133
F0.551524043630208
aF1.32645023151569
aF0.680678408277788
asa(dp134
g2
V\u000ainclude "qelib1.inc";\u000aqreg main_qr[5];\u000acreg main_cr[5];\u000au3(0.855211333477221,0.0,0.0) main_qr[3];\u000acx main_qr[3],main_qr[4];\u000au3(0.987856356628791,0.0,0.0) main_qr[4];\u000au3(1.528908424747032,0.0,0.0) main_qr[3];\u000acx main_qr[3],main_qr[2];\u000acx main_qr[4],main_qr[2];\u000ameasure main_qr[2] -> main_cr[2];\u000ameasure main_qr[4] -> main_cr[4];\u000ameasure main_qr[3] -> main_cr[3];\u000a
p135
sg4
(dp136
g6
L126L
sg7
L242L
sg8
L130L
sg9
L523L
sg10
L645L
sg11
L152L
sg12
L41L
sg13
L189L
ssg14
(lp137
F0.20720545543895966
aF0.3862975486113768
aF0.4213806533783954
aF0.5786193466216045
aF0.6137024513886232
aF0.7927945445610404
asg16
(dp138
g6
L24L
sg7
L840L
sg8
L73L
sg9
L62L
sg10
L57L
sg11
L124L
sg12
L594L
sg13
L274L
ssg18
V\u000ainclude "qelib1.inc";\u000aqreg err_qr[5];\u000acreg err_cr[5];\u000au3(0.855211333477221,0.0,0.0) err_qr[3];\u000acx err_qr[3],err_qr[4];\u000au3(0.987856356628791,0.0,0.0) err_qr[4];\u000au3(1.528908424747032,0.0,0.0) err_qr[3];\u000acx err_qr[3],err_qr[2];\u000acx err_qr[4],err_qr[2];\u000au3(1.570796326794897,0.0,0.0) err_qr[2];\u000ameasure err_qr[2] -> err_cr[2];\u000au3(1.570796326794897,0.0,0.0) err_qr[4];\u000ameasure err_qr[4] -> err_cr[4];\u000au3(-1.570796326794897,0.0,0.0) err_qr[3];\u000ameasure err_qr[3] -> err_cr[3];\u000a
p139
sg20
(lp140
F0.18753541076487257
aF0.36883852691218133
aF0.49178470254957507
aF0.5082152974504249
aF0.6311614730878187
aF0.8124645892351274
asg22
(lp141
F0.173717
aF0.319426
aF0.486263
aF0.513737
aF0.680574
aF0.826283
asg24
(lp142
F0.855211333477221
aF0.987856356628791
aF1.528908424747032
asa(dp143
g2
V\u000ainclude "qelib1.inc";\u000aqreg main_qr[5];\u000acreg main_cr[5];\u000au3(0.879645943005142,0.0,0.0) main_qr[3];\u000acx main_qr[3],main_qr[4];\u000au3(0.097738438111682,0.0,0.0) main_qr[4];\u000au3(0.970403064108847,0.0,0.0) main_qr[3];\u000acx main_qr[3],main_qr[2];\u000acx main_qr[4],main_qr[2];\u000ameasure main_qr[2] -> main_cr[2];\u000ameasure main_qr[4] -> main_cr[4];\u000ameasure main_qr[3] -> main_cr[3];\u000a
p144
sg4
(dp145
g6
L112L
sg7
L146L
sg8
L290L
sg9
L431L
sg10
L509L
sg11
L196L
sg12
L117L
sg13
L247L
ssg14
(lp146
F0.22785733124632573
aF0.23461745612741378
aF0.3459490067327986
aF0.6540509932672014
aF0.7653825438725863
aF0.7721426687536742
asg16
(dp147
g6
L12L
sg7
L1091L
sg8
L89L
sg9
L56L
sg10
L58L
sg11
L79L
sg12
L339L
sg13
L324L
ssg18
V\u000ainclude "qelib1.inc";\u000aqreg err_qr[5];\u000acreg err_cr[5];\u000au3(0.879645943005142,0.0,0.0) err_qr[3];\u000acx err_qr[3],err_qr[4];\u000au3(0.097738438111682,0.0,0.0) err_qr[4];\u000au3(0.970403064108847,0.0,0.0) err_qr[3];\u000acx err_qr[3],err_qr[2];\u000acx err_qr[4],err_qr[2];\u000au3(1.570796326794897,0.0,0.0) err_qr[2];\u000ameasure err_qr[2] -> err_cr[2];\u000au3(1.570796326794897,0.0,0.0) err_qr[4];\u000ameasure err_qr[4] -> err_cr[4];\u000au3(-1.570796326794897,0.0,0.0) err_qr[3];\u000ameasure err_qr[3] -> err_cr[3];\u000a
p148
sg20
(lp149
F0.21081677704194257
aF0.2190949227373068
aF0.3658940397350994
aF0.6341059602649006
aF0.7809050772626932
aF0.7891832229580574
asg22
(lp150
F0.182809
aF0.18784500000000004
aF0.31993800000000006
aF0.6800619999999999
aF0.812155
aF0.817191
asg24
(lp151
F0.879645943005142
aF0.097738438111682
aF0.970403064108847
asa(dp152
g2
V\u000ainclude "qelib1.inc";\u000aqreg main_qr[5];\u000acreg main_cr[5];\u000au3(0.031415926535898,0.0,0.0) main_qr[3];\u000acx main_qr[3],main_qr[4];\u000au3(0.617846555205993,0.0,0.0) main_qr[4];\u000au3(0.10471975511966,0.0,0.0) main_qr[3];\u000acx main_qr[3],main_qr[2];\u000acx main_qr[4],main_qr[2];\u000ameasure main_qr[2] -> main_cr[2];\u000ameasure main_qr[4] -> main_cr[4];\u000ameasure main_qr[3] -> main_cr[3];\u000a
p153
sg4
(dp154
g6
L405L
sg7
L284L
sg8
L144L
sg9
L302L
sg10
L644L
sg11
L77L
sg12
L77L
sg13
L115L
ssg14
(lp155
F0.0640654642622902
aF0.17366114339284536
aF0.19193128995523973
aF0.8080687100447603
aF0.8263388566071547
aF0.9359345357377098
asg16
(dp156
g6
L8L
sg7
L1487L
sg8
L71L
sg9
L33L
sg10
L302L
sg11
L48L
sg12
L61L
sg13
L38L
ssg18
V\u000ainclude "qelib1.inc";\u000aqreg err_qr[5];\u000acreg err_cr[5];\u000au3(0.031415926535898,0.0,0.0) err_qr[3];\u000acx err_qr[3],err_qr[4];\u000au3(0.617846555205993,0.0,0.0) err_qr[4];\u000au3(0.10471975511966,0.0,0.0) err_qr[3];\u000acx err_qr[3],err_qr[2];\u000acx err_qr[4],err_qr[2];\u000au3(1.570796326794897,0.0,0.0) err_qr[2];\u000ameasure err_qr[2] -> err_cr[2];\u000au3(1.570796326794897,0.0,0.0) err_qr[4];\u000ameasure err_qr[4] -> err_cr[4];\u000au3(-1.570796326794897,0.0,0.0) err_qr[3];\u000ameasure err_qr[3] -> err_cr[3];\u000a
p157
sg20
(lp158
F0.052436440677966156
aF0.18008474576271183
aF0.1922669491525424
aF0.8077330508474576
aF0.8199152542372882
aF0.9475635593220338
asg22
(lp159
F0.0029850000000000154
aF0.09263700000000008
aF0.09371800000000008
aF0.9062819999999999
aF0.9073629999999999
aF0.997015
asg24
(lp160
F0.031415926535898
aF0.617846555205993
aF0.10471975511966
asa(dp161
g2
V\u000ainclude "qelib1.inc";\u000aqreg main_qr[5];\u000acreg main_cr[5];\u000au3(0.094247779607694,0.0,0.0) main_qr[3];\u000acx main_qr[3],main_qr[4];\u000au3(0.607374579694027,0.0,0.0) main_qr[4];\u000au3(0.492182849062401,0.0,0.0) main_qr[3];\u000acx main_qr[3],main_qr[2];\u000acx main_qr[4],main_qr[2];\u000ameasure main_qr[2] -> main_cr[2];\u000ameasure main_qr[4] -> main_cr[4];\u000ameasure main_qr[3] -> main_cr[3];\u000a
p162
sg4
(dp163
g6
L326L
sg7
L219L
sg8
L159L
sg9
L380L
sg10
L707L
sg11
L77L
sg12
L85L
sg13
L95L
ssg14
(lp164
F0.14683254800943524
aF0.18784465722485016
aF0.19303842806186877
aF0.8069615719381312
aF0.8121553427751498
aF0.8531674519905647
asg16
(dp165
g6
L11L
sg7
L1379L
sg8
L84L
sg9
L35L
sg10
L216L
sg11
L55L
sg12
L126L
sg13
L142L
ssg18
V\u000ainclude "qelib1.inc";\u000aqreg err_qr[5];\u000acreg err_cr[5];\u000au3(0.094247779607694,0.0,0.0) err_qr[3];\u000acx err_qr[3],err_qr[4];\u000au3(0.607374579694027,0.0,0.0) err_qr[4];\u000au3(0.492182849062401,0.0,0.0) err_qr[3];\u000acx err_qr[3],err_qr[2];\u000acx err_qr[4],err_qr[2];\u000au3(1.570796326794897,0.0,0.0) err_qr[2];\u000ameasure err_qr[2] -> err_cr[2];\u000au3(1.570796326794897,0.0,0.0) err_qr[4];\u000ameasure err_qr[4] -> err_cr[4];\u000au3(-1.570796326794897,0.0,0.0) err_qr[3];\u000ameasure err_qr[3] -> err_cr[3];\u000a
p166
sg20
(lp167
F0.14385399892646267
aF0.18357487922705318
aF0.192163177670424
aF0.807836822329576
aF0.8164251207729468
aF0.8561460010735373
asg22
(lp168
F0.061304000000000025
aF0.09124700000000008
aF0.12546900000000005
aF0.874531
aF0.9087529999999999
aF0.938696
asg24
(lp169
F0.094247779607694
aF0.607374579694027
aF0.492182849062401
asa(dp170
g2
V\u000ainclude "qelib1.inc";\u000aqreg main_qr[5];\u000acreg main_cr[5];\u000au3(1.434660645139339,0.0,0.0) main_qr[3];\u000acx main_qr[3],main_qr[4];\u000au3(1.487020522699169,0.0,0.0) main_qr[4];\u000au3(1.12050137978036,0.0,0.0) main_qr[3];\u000acx main_qr[3],main_qr[2];\u000acx main_qr[4],main_qr[2];\u000ameasure main_qr[2] -> main_cr[2];\u000ameasure main_qr[4] -> main_cr[4];\u000ameasure main_qr[3] -> main_cr[3];\u000a
p171
sg4
(dp172
g6
L162L
sg7
L146L
sg8
L241L
sg9
L327L
sg10
L390L
sg11
L313L
sg12
L126L
sg13
L343L
ssg14
(lp173
F0.11813409244854332
aF0.4522756593952601
aF0.4677734375
aF0.5322265625
aF0.54772434060474
aF0.8818659075514567
asg16
(dp174
g6
L36L
sg7
L757L
sg8
L38L
sg9
L63L
sg10
L102L
sg11
L127L
sg12
L851L
sg13
L74L
ssg18
V\u000ainclude "qelib1.inc";\u000aqreg err_qr[5];\u000acreg err_cr[5];\u000au3(1.434660645139339,0.0,0.0) err_qr[3];\u000acx err_qr[3],err_qr[4];\u000au3(1.487020522699169,0.0,0.0) err_qr[4];\u000au3(1.12050137978036,0.0,0.0) err_qr[3];\u000acx err_qr[3],err_qr[2];\u000acx err_qr[4],err_qr[2];\u000au3(1.570796326794897,0.0,0.0) err_qr[2];\u000ameasure err_qr[2] -> err_cr[2];\u000au3(1.570796326794897,0.0,0.0) err_qr[4];\u000ameasure err_qr[4] -> err_cr[4];\u000au3(-1.570796326794897,0.0,0.0) err_qr[3];\u000ameasure err_qr[3] -> err_cr[3];\u000a
p175
sg20
(lp176
F0.09865470852017943
aF0.46580717488789236
aF0.48150224215246634
aF0.5184977578475336
aF0.5341928251121076
aF0.9013452914798206
asg22
(lp177
F0.03736000000000006
aF0.47046600000000005
aF0.49432200000000004
aF0.505678
aF0.529534
aF0.9626399999999999
asg24
(lp178
F1.434660645139339
aF1.487020522699169
aF1.12050137978036
asa(dp179
g2
V\u000ainclude "qelib1.inc";\u000aqreg main_qr[5];\u000acreg main_cr[5];\u000au3(1.3543754995476,0.0,0.0) main_qr[3];\u000acx main_qr[3],main_qr[4];\u000au3(1.455604596163271,0.0,0.0) main_qr[4];\u000au3(0.342084533390889,0.0,0.0) main_qr[3];\u000acx main_qr[3],main_qr[2];\u000acx main_qr[4],main_qr[2];\u000ameasure main_qr[2] -> main_cr[2];\u000ameasure main_qr[4] -> main_cr[4];\u000ameasure main_qr[3] -> main_cr[3];\u000a
p180
sg4
(dp181
g6
L218L
sg7
L180L
sg8
L211L
sg9
L321L
sg10
L397L
sg11
L251L
sg12
L200L
sg13
L270L
ssg14
(lp182
F0.2895235933310286
aF0.4380421309104787
aF0.4618015484070157
aF0.5381984515929843
aF0.5619578690895213
aF0.7104764066689714
asg16
(dp183
g6
L40L
sg7
L656L
sg8
L72L
sg9
L48L
sg10
L305L
sg11
L117L
sg12
L628L
sg13
L182L
ssg18
V\u000ainclude "qelib1.inc";\u000aqreg err_qr[5];\u000acreg err_cr[5];\u000au3(1.3543754995476,0.0,0.0) err_qr[3];\u000acx err_qr[3],err_qr[4];\u000au3(1.455604596163271,0.0,0.0) err_qr[4];\u000au3(0.342084533390889,0.0,0.0) err_qr[3];\u000acx err_qr[3],err_qr[2];\u000acx err_qr[4],err_qr[2];\u000au3(1.570796326794897,0.0,0.0) err_qr[2];\u000ameasure err_qr[2] -> err_cr[2];\u000au3(1.570796326794897,0.0,0.0) err_qr[4];\u000ameasure err_qr[4] -> err_cr[4];\u000au3(-1.570796326794897,0.0,0.0) err_qr[3];\u000ameasure err_qr[3] -> err_cr[3];\u000a
p184
sg20
(lp185
F0.27498588368153587
aF0.4573687182382835
aF0.4731789949181253
aF0.5268210050818747
aF0.5426312817617165
aF0.7250141163184641
asg22
(lp186
F0.2831337168662831
aF0.3988536011463988
aF0.48765951234048766
aF0.5123404876595123
aF0.6011463988536012
aF0.7168662831337169
asg24
(lp187
F1.3543754995476
aF1.455604596163271
aF0.342084533390889
asa(dp188
g2
V\u000ainclude "qelib1.inc";\u000aqreg main_qr[5];\u000acreg main_cr[5];\u000au3(0.914552528045029,0.0,0.0) main_qr[3];\u000acx main_qr[3],main_qr[4];\u000au3(0.143116998663535,0.0,0.0) main_qr[4];\u000au3(0.101229096615671,0.0,0.0) main_qr[3];\u000acx main_qr[3],main_qr[2];\u000acx main_qr[4],main_qr[2];\u000ameasure main_qr[2] -> main_cr[2];\u000ameasure main_qr[4] -> main_cr[4];\u000ameasure main_qr[3] -> main_cr[3];\u000a
p189
sg4
(dp190
g6
L266L
sg7
L207L
sg8
L253L
sg9
L289L
sg10
L455L
sg11
L240L
sg12
L112L
sg13
L226L
ssg14
(lp191
F0.11527899211733961
aF0.26833794678449296
aF0.28673956556905167
aF0.7132604344309482
aF0.7316620532155068
aF0.8847210078826604
asg16
(dp192
g6
L24L
sg7
L1249L
sg8
L61L
sg9
L47L
sg10
L70L
sg11
L100L
sg12
L396L
sg13
L101L
ssg18
V\u000ainclude "qelib1.inc";\u000aqreg err_qr[5];\u000acreg err_cr[5];\u000au3(0.914552528045029,0.0,0.0) err_qr[3];\u000acx err_qr[3],err_qr[4];\u000au3(0.143116998663535,0.0,0.0) err_qr[4];\u000au3(0.101229096615671,0.0,0.0) err_qr[3];\u000acx err_qr[3],err_qr[2];\u000acx err_qr[4],err_qr[2];\u000au3(1.570796326794897,0.0,0.0) err_qr[2];\u000ameasure err_qr[2] -> err_cr[2];\u000au3(1.570796326794897,0.0,0.0) err_qr[4];\u000ameasure err_qr[4] -> err_cr[4];\u000au3(-1.570796326794897,0.0,0.0) err_qr[3];\u000ameasure err_qr[3] -> err_cr[3];\u000a
p193
sg20
(lp194
F0.09416299559471353
aF0.25660792951541844
aF0.2736784140969162
aF0.7263215859030838
aF0.7433920704845816
aF0.9058370044052865
asg22
(lp195
F0.0019350019350020675
aF0.1964891964891966
aF0.19804619804619816
aF0.8019538019538018
aF0.8035108035108034
aF0.9980649980649979
asg24
(lp196
F0.914552528045029
aF0.143116998663535
aF0.101229096615671
asa(dp197
g2
V\u000ainclude "qelib1.inc";\u000aqreg main_qr[5];\u000acreg main_cr[5];\u000au3(0.680678408277788,0.0,0.0) main_qr[3];\u000acx main_qr[3],main_qr[4];\u000au3(0.935496479068961,0.0,0.0) main_qr[4];\u000au3(0.394444410950718,0.0,0.0) main_qr[3];\u000acx main_qr[3],main_qr[2];\u000acx main_qr[4],main_qr[2];\u000ameasure main_qr[2] -> main_cr[2];\u000ameasure main_qr[4] -> main_cr[4];\u000ameasure main_qr[3] -> main_cr[3];\u000a
p198
sg4
(dp199
g6
L378L
sg7
L286L
sg8
L111L
sg9
L350L
sg10
L613L
sg11
L93L
sg12
L81L
sg13
L136L
ssg14
(lp200
F0.197218375663032
aF0.2238550439381105
aF0.3399085199091449
aF0.660091480090855
aF0.7761449560618895
aF0.802781624336968
asg16
(dp201
g6
L27L
sg7
L1165L
sg8
L62L
sg9
L32L
sg10
L292L
sg11
L65L
sg12
L344L
sg13
L61L
ssg18
V\u000ainclude "qelib1.inc";\u000aqreg err_qr[5];\u000acreg err_cr[5];\u000au3(0.680678408277788,0.0,0.0) err_qr[3];\u000acx err_qr[3],err_qr[4];\u000au3(0.935496479068961,0.0,0.0) err_qr[4];\u000au3(0.394444410950718,0.0,0.0) err_qr[3];\u000acx err_qr[3],err_qr[2];\u000acx err_qr[4],err_qr[2];\u000au3(1.570796326794897,0.0,0.0) err_qr[2];\u000ameasure err_qr[2] -> err_cr[2];\u000au3(1.570796326794897,0.0,0.0) err_qr[4];\u000ameasure err_qr[4] -> err_cr[4];\u000au3(-1.570796326794897,0.0,0.0) err_qr[3];\u000ameasure err_qr[3] -> err_cr[3];\u000a
p202
sg20
(lp203
F0.18958109559613323
aF0.21750805585392052
aF0.3415682062298604
aF0.6584317937701396
aF0.7824919441460795
aF0.8104189044038668
asg22
(lp204
F0.12874587125412873
aF0.14126585873414121
aF0.2694137305862694
aF0.7305862694137306
aF0.8587341412658588
aF0.8712541287458713
asg24
(lp205
F0.680678408277788
aF0.935496479068961
aF0.394444410950718
asa(dp206
g2
V\u000ainclude "qelib1.inc";\u000aqreg main_qr[5];\u000acreg main_cr[5];\u000au3(0.767944870877505,0.0,0.0) main_qr[3];\u000acx main_qr[3],main_qr[4];\u000au3(0.006981317007977,0.0,0.0) main_qr[4];\u000au3(0.080285145591739,0.0,0.0) main_qr[3];\u000acx main_qr[3],main_qr[2];\u000acx main_qr[4],main_qr[2];\u000ameasure main_qr[2] -> main_cr[2];\u000ameasure main_qr[4] -> main_cr[4];\u000ameasure main_qr[3] -> main_cr[3];\u000a
p207
sg4
(dp208
g6
L254L
sg7
L211L
sg8
L311L
sg9
L285L
sg10
L410L
sg11
L214L
sg12
L110L
sg13
L253L
ssg14
(lp209
F0.08503533525263672
aF0.22014881001218223
aF0.22502351341202004
aF0.77497648658798
aF0.7798511899878178
aF0.9149646647473633
asg16
(dp210
g6
L12L
sg7
L1411L
sg8
L49L
sg9
L38L
sg10
L50L
sg11
L74L
sg12
L326L
sg13
L88L
ssg18
V\u000ainclude "qelib1.inc";\u000aqreg err_qr[5];\u000acreg err_cr[5];\u000au3(0.767944870877505,0.0,0.0) err_qr[3];\u000acx err_qr[3],err_qr[4];\u000au3(0.006981317007977,0.0,0.0) err_qr[4];\u000au3(0.080285145591739,0.0,0.0) err_qr[3];\u000acx err_qr[3],err_qr[2];\u000acx err_qr[4],err_qr[2];\u000au3(1.570796326794897,0.0,0.0) err_qr[2];\u000ameasure err_qr[2] -> err_cr[2];\u000au3(1.570796326794897,0.0,0.0) err_qr[4];\u000ameasure err_qr[4] -> err_cr[4];\u000au3(-1.570796326794897,0.0,0.0) err_qr[3];\u000ameasure err_qr[3] -> err_cr[3];\u000a
p211
sg20
(lp212
F0.0736
aF0.20053333333333334
aF0.2208
aF0.7792
aF0.7994666666666667
aF0.9264
asg22
(lp213
F0.0014280000000000959
aF0.140339
aF0.1414890000000001
aF0.8585109999999999
aF0.859661
aF0.9985719999999999
asg24
(lp214
F0.767944870877505
aF0.006981317007977
aF0.080285145591739
asa(dp215
g2
V\u000ainclude "qelib1.inc";\u000aqreg main_qr[5];\u000acreg main_cr[5];\u000au3(1.029744258676654,0.0,0.0) main_qr[3];\u000acx main_qr[3],main_qr[4];\u000au3(1.549852375770965,0.0,0.0) main_qr[4];\u000au3(0.017453292519943,0.0,0.0) main_qr[3];\u000acx main_qr[3],main_qr[2];\u000acx main_qr[4],main_qr[2];\u000ameasure main_qr[2] -> main_cr[2];\u000ameasure main_qr[4] -> main_cr[4];\u000ameasure main_qr[3] -> main_cr[3];\u000a
p216
sg4
(dp217
g6
L348L
sg7
L242L
sg8
L161L
sg9
L285L
sg10
L500L
sg11
L170L
sg12
L163L
sg13
L179L
ssg14
(lp218
F0.29934967391009465
aF0.41312297795954234
aF0.41775685384719696
aF0.582243146152803
aF0.5868770220404577
aF0.7006503260899053
asg16
(dp219
g6
L36L
sg7
L635L
sg8
L86L
sg9
L34L
sg10
L625L
sg11
L86L
sg12
L338L
sg13
L208L
ssg18
V\u000ainclude "qelib1.inc";\u000aqreg err_qr[5];\u000acreg err_cr[5];\u000au3(1.029744258676654,0.0,0.0) err_qr[3];\u000acx err_qr[3],err_qr[4];\u000au3(1.549852375770965,0.0,0.0) err_qr[4];\u000au3(0.017453292519943,0.0,0.0) err_qr[3];\u000acx err_qr[3],err_qr[2];\u000acx err_qr[4],err_qr[2];\u000au3(1.570796326794897,0.0,0.0) err_qr[2];\u000ameasure err_qr[2] -> err_cr[2];\u000au3(1.570796326794897,0.0,0.0) err_qr[4];\u000ameasure err_qr[4] -> err_cr[4];\u000au3(-1.570796326794897,0.0,0.0) err_qr[3];\u000ameasure err_qr[3] -> err_cr[3];\u000a
p220
sg20
(lp221
F0.3023255813953488
aF0.4612403100775194
aF0.46677740863787376
aF0.5332225913621262
aF0.5387596899224806
aF0.6976744186046512
asg22
(lp222
F0.24252024252024262
aF0.4820524820524821
aF0.49460649460649464
aF0.5053935053935054
aF0.5179475179475179
aF0.7574797574797574
asg24
(lp223
F1.029744258676654
aF1.549852375770965
aF0.017453292519943
asa(dp224
g2
V\u000ainclude "qelib1.inc";\u000aqreg main_qr[5];\u000acreg main_cr[5];\u000au3(1.434660645139339,0.0,0.0) main_qr[3];\u000acx main_qr[3],main_qr[4];\u000au3(0.020943951023932,0.0,0.0) main_qr[4];\u000au3(0.254818070791172,0.0,0.0) main_qr[3];\u000acx main_qr[3],main_qr[2];\u000acx main_qr[4],main_qr[2];\u000ameasure main_qr[2] -> main_cr[2];\u000ameasure main_qr[4] -> main_cr[4];\u000ameasure main_qr[3] -> main_cr[3];\u000a
p225
sg4
(dp226
g6
L234L
sg7
L218L
sg8
L291L
sg9
L327L
sg10
L324L
sg11
L267L
sg12
L91L
sg13
L296L
ssg14
(lp227
F0.11699759075235316
aF0.4355172889874251
aF0.44682440082007036
aF0.5531755991799296
aF0.564482711012575
aF0.8830024092476467
asg16
(dp228
g6
L32L
sg7
L891L
sg8
L47L
sg9
L59L
sg10
L67L
sg11
L97L
sg12
L752L
sg13
L103L
ssg18
V\u000ainclude "qelib1.inc";\u000aqreg err_qr[5];\u000acreg err_cr[5];\u000au3(1.434660645139339,0.0,0.0) err_qr[3];\u000acx err_qr[3],err_qr[4];\u000au3(0.020943951023932,0.0,0.0) err_qr[4];\u000au3(0.254818070791172,0.0,0.0) err_qr[3];\u000acx err_qr[3],err_qr[2];\u000acx err_qr[4],err_qr[2];\u000au3(1.570796326794897,0.0,0.0) err_qr[2];\u000ameasure err_qr[2] -> err_cr[2];\u000au3(1.570796326794897,0.0,0.0) err_qr[4];\u000ameasure err_qr[4] -> err_cr[4];\u000au3(-1.570796326794897,0.0,0.0) err_qr[3];\u000ameasure err_qr[3] -> err_cr[3];\u000a
p229
sg20
(lp230
F0.09376723662437936
aF0.4517374517374517
aF0.47159404302261443
aF0.5284059569773856
aF0.5482625482625483
aF0.9062327633756206
asg22
(lp231
F0.013636000000000092
aF0.432157
aF0.4343330000000001
aF0.5656669999999999
aF0.567843
aF0.9863639999999999
asg24
(lp232
F1.434660645139339
aF0.020943951023932
aF0.254818070791172
asa(dp233
g2
V\u000ainclude "qelib1.inc";\u000aqreg main_qr[5];\u000acreg main_cr[5];\u000au3(0.952949771588904,0.0,0.0) main_qr[3];\u000acx main_qr[3],main_qr[4];\u000au3(0.568977336150151,0.0,0.0) main_qr[4];\u000au3(1.392772743091475,0.0,0.0) main_qr[3];\u000acx main_qr[3],main_qr[2];\u000acx main_qr[4],main_qr[2];\u000ameasure main_qr[2] -> main_cr[2];\u000ameasure main_qr[4] -> main_cr[4];\u000ameasure main_qr[3] -> main_cr[3];\u000a
p234
sg4
(dp235
g6
L278L
sg7
L283L
sg8
L261L
sg9
L421L
sg10
L383L
sg11
L167L
sg12
L81L
sg13
L174L
ssg14
(lp236
F0.2760321449115632
aF0.35580483411407937
aF0.4657889373913997
aF0.5342110626086003
aF0.6441951658859206
aF0.7239678550884369
asg16
(dp237
g6
L25L
sg7
L770L
sg8
L80L
sg9
L74L
sg10
L94L
sg11
L83L
sg12
L550L
sg13
L372L
ssg18
V\u000ainclude "qelib1.inc";\u000aqreg err_qr[5];\u000acreg err_cr[5];\u000au3(0.952949771588904,0.0,0.0) err_qr[3];\u000acx err_qr[3],err_qr[4];\u000au3(0.568977336150151,0.0,0.0) err_qr[4];\u000au3(1.392772743091475,0.0,0.0) err_qr[3];\u000acx err_qr[3],err_qr[2];\u000acx err_qr[4],err_qr[2];\u000au3(1.570796326794897,0.0,0.0) err_qr[2];\u000ameasure err_qr[2] -> err_cr[2];\u000au3(1.570796326794897,0.0,0.0) err_qr[4];\u000ameasure err_qr[4] -> err_cr[4];\u000au3(-1.570796326794897,0.0,0.0) err_qr[3];\u000ameasure err_qr[3] -> err_cr[3];\u000a
p238
sg20
(lp239
F0.2609182530795072
aF0.3605823068309071
aF0.48376259798432253
aF0.5162374020156775
aF0.6394176931690929
aF0.7390817469204928
asg22
(lp240
F0.2092940000000001
aF0.2559910000000001
aF0.448709
aF0.551291
aF0.7440089999999999
aF0.7907059999999999
asg24
(lp241
F0.952949771588904
aF0.568977336150151
aF1.392772743091475
asa(dp242
g2
V\u000ainclude "qelib1.inc";\u000aqreg main_qr[5];\u000acreg main_cr[5];\u000au3(1.567305668290908,0.0,0.0) main_qr[3];\u000acx main_qr[3],main_qr[4];\u000au3(1.19729586686811,0.0,0.0) main_qr[4];\u000au3(0.411897703470662,0.0,0.0) main_qr[3];\u000acx main_qr[3],main_qr[2];\u000acx main_qr[4],main_qr[2];\u000ameasure main_qr[2] -> main_cr[2];\u000ameasure main_qr[4] -> main_cr[4];\u000ameasure main_qr[3] -> main_cr[3];\u000a
p243
sg4
(dp244
g6
L197L
sg7
L154L
sg8
L223L
sg9
L317L
sg10
L319L
sg11
L287L
sg12
L211L
sg13
L340L
ssg14
(lp245
F0.2062891884829536
aF0.46885316712145103
aF0.477280488038805
aF0.522719511961195
aF0.5311468328785489
aF0.7937108115170464
asg16
(dp246
g6
L41L
sg7
L672L
sg8
L64L
sg9
L54L
sg10
L149L
sg11
L117L
sg12
L780L
sg13
L171L
ssg18
V\u000ainclude "qelib1.inc";\u000aqreg err_qr[5];\u000acreg err_cr[5];\u000au3(1.567305668290908,0.0,0.0) err_qr[3];\u000acx err_qr[3],err_qr[4];\u000au3(1.19729586686811,0.0,0.0) err_qr[4];\u000au3(0.411897703470662,0.0,0.0) err_qr[3];\u000acx err_qr[3],err_qr[2];\u000acx err_qr[4],err_qr[2];\u000au3(1.570796326794897,0.0,0.0) err_qr[2];\u000ameasure err_qr[2] -> err_cr[2];\u000au3(1.570796326794897,0.0,0.0) err_qr[4];\u000ameasure err_qr[4] -> err_cr[4];\u000au3(-1.570796326794897,0.0,0.0) err_qr[3];\u000ameasure err_qr[3] -> err_cr[3];\u000a
p247
sg20
(lp248
F0.18058690744921002
aF0.46331828442437917
aF0.4757336343115124
aF0.5242663656884876
aF0.5366817155756208
aF0.81941309255079
asg22
(lp249
F0.14644800000000002
aF0.498401
aF0.499363
aF0.500637
aF0.501599
aF0.853552
asg24
(lp250
F1.567305668290908
aF1.19729586686811
aF0.411897703470662
asa(dp251
g2
V\u000ainclude "qelib1.inc";\u000aqreg main_qr[5];\u000acreg main_cr[5];\u000au3(0.139626340159546,0.0,0.0) main_qr[3];\u000acx main_qr[3],main_qr[4];\u000au3(1.518436449235067,0.0,0.0) main_qr[4];\u000au3(1.542871058762987,0.0,0.0) main_qr[3];\u000acx main_qr[3],main_qr[2];\u000acx main_qr[4],main_qr[2];\u000ameasure main_qr[2] -> main_cr[2];\u000ameasure main_qr[4] -> main_cr[4];\u000ameasure main_qr[3] -> main_cr[3];\u000a
p252
sg4
(dp253
g6
L134L
sg7
L138L
sg8
L77L
sg9
L734L
sg10
L827L
sg11
L55L
sg12
L37L
sg13
L46L
ssg14
(lp254
F0.4031761550605816
aF0.4395457329955291
aF0.4453975794340119
aF0.5546024205659881
aF0.5604542670044709
aF0.5968238449394184
asg16
(dp255
g6
L27L
sg7
L498L
sg8
L72L
sg9
L47L
sg10
L437L
sg11
L117L
sg12
L551L
sg13
L299L
ssg18
V\u000ainclude "qelib1.inc";\u000aqreg err_qr[5];\u000acreg err_cr[5];\u000au3(0.139626340159546,0.0,0.0) err_qr[3];\u000acx err_qr[3],err_qr[4];\u000au3(1.518436449235067,0.0,0.0) err_qr[4];\u000au3(1.542871058762987,0.0,0.0) err_qr[3];\u000acx err_qr[3],err_qr[2];\u000acx err_qr[4],err_qr[2];\u000au3(1.570796326794897,0.0,0.0) err_qr[2];\u000ameasure err_qr[2] -> err_cr[2];\u000au3(1.570796326794897,0.0,0.0) err_qr[4];\u000ameasure err_qr[4] -> err_cr[4];\u000au3(-1.570796326794897,0.0,0.0) err_qr[3];\u000ameasure err_qr[3] -> err_cr[3];\u000a
p256
sg20
(lp257
F0.4123249299719889
aF0.4464985994397759
aF0.4761904761904763
aF0.5238095238095237
aF0.5535014005602241
aF0.5876750700280111
asg22
(lp258
F0.429805
aF0.474086
aF0.486175
aF0.513825
aF0.525914
aF0.570195
asg24
(lp259
F0.139626340159546
aF1.518436449235067
aF1.542871058762987
asa(dp260
g2
V\u000ainclude "qelib1.inc";\u000aqreg main_qr[5];\u000acreg main_cr[5];\u000au3(0.090757121103705,0.0,0.0) main_qr[3];\u000acx main_qr[3],main_qr[4];\u000au3(1.09257611174845,0.0,0.0) main_qr[4];\u000au3(0.600393262686049,0.0,0.0) main_qr[3];\u000acx main_qr[3],main_qr[2];\u000acx main_qr[4],main_qr[2];\u000ameasure main_qr[2] -> main_cr[2];\u000ameasure main_qr[4] -> main_cr[4];\u000ameasure main_qr[3] -> main_cr[3];\u000a
p261
sg4
(dp262
g6
L317L
sg7
L211L
sg8
L68L
sg9
L504L
sg10
L802L
sg11
L52L
sg12
L32L
sg13
L62L
ssg14
(lp263
F0.1420175747629997
aF0.3428940376640999
aF0.36264621532587227
aF0.6373537846741277
aF0.6571059623359001
aF0.8579824252370002
asg16
(dp264
g6
L13L
sg7
L1020L
sg8
L80L
sg9
L23L
sg10
L583L
sg11
L66L
sg12
L145L
sg13
L118L
ssg18
V\u000ainclude "qelib1.inc";\u000aqreg err_qr[5];\u000acreg err_cr[5];\u000au3(0.090757121103705,0.0,0.0) err_qr[3];\u000acx err_qr[3],err_qr[4];\u000au3(1.09257611174845,0.0,0.0) err_qr[4];\u000au3(0.600393262686049,0.0,0.0) err_qr[3];\u000acx err_qr[3],err_qr[2];\u000acx err_qr[4],err_qr[2];\u000au3(1.570796326794897,0.0,0.0) err_qr[2];\u000ameasure err_qr[2] -> err_cr[2];\u000au3(1.570796326794897,0.0,0.0) err_qr[4];\u000ameasure err_qr[4] -> err_cr[4];\u000au3(-1.570796326794897,0.0,0.0) err_qr[3];\u000ameasure err_qr[3] -> err_cr[3];\u000a
p265
sg20
(lp266
F0.14094319399785638
aF0.37566988210075025
aF0.3901393354769561
aF0.6098606645230439
aF0.6243301178992497
aF0.8590568060021436
asg22
(lp267
F0.08914100000000003
aF0.27084700000000006
aF0.287412
aF0.712588
aF0.7291529999999999
aF0.910859
asg24
(lp268
F0.090757121103705
aF1.09257611174845
aF0.600393262686049
asa(dp269
g2
V\u000ainclude "qelib1.inc";\u000aqreg main_qr[5];\u000acreg main_cr[5];\u000au3(0.013962634015955,0.0,0.0) main_qr[3];\u000acx main_qr[3],main_qr[4];\u000au3(1.308996938995747,0.0,0.0) main_qr[4];\u000au3(0.652753140245879,0.0,0.0) main_qr[3];\u000acx main_qr[3],main_qr[2];\u000acx main_qr[4],main_qr[2];\u000ameasure main_qr[2] -> main_cr[2];\u000ameasure main_qr[4] -> main_cr[4];\u000ameasure main_qr[3] -> main_cr[3];\u000a
p270
sg4
(dp271
g6
L357L
sg7
L212L
sg8
L73L
sg9
L485L
sg10
L829L
sg11
L29L
sg12
L27L
sg13
L36L
ssg14
(lp272
F0.13451178085171933
aF0.3617508575300492
aF0.3922678486677999
aF0.6077321513322
aF0.6382491424699508
aF0.8654882191482807
asg16
(dp273
g6
L19L
sg7
L843L
sg8
L89L
sg9
L35L
sg10
L743L
sg11
L88L
sg12
L140L
sg13
L91L
ssg18
V\u000ainclude "qelib1.inc";\u000aqreg err_qr[5];\u000acreg err_cr[5];\u000au3(0.013962634015955,0.0,0.0) err_qr[3];\u000acx err_qr[3],err_qr[4];\u000au3(1.308996938995747,0.0,0.0) err_qr[4];\u000au3(0.652753140245879,0.0,0.0) err_qr[3];\u000acx err_qr[3],err_qr[2];\u000acx err_qr[4],err_qr[2];\u000au3(1.570796326794897,0.0,0.0) err_qr[2];\u000ameasure err_qr[2] -> err_cr[2];\u000au3(1.570796326794897,0.0,0.0) err_qr[4];\u000ameasure err_qr[4] -> err_cr[4];\u000au3(-1.570796326794897,0.0,0.0) err_qr[3];\u000ameasure err_qr[3] -> err_cr[3];\u000a
p274
sg20
(lp275
F0.12713263621353887
aF0.45899834892680247
aF0.4859658778205834
aF0.5140341221794166
aF0.5410016510731975
aF0.8728673637864611
asg22
(lp276
F0.102831
aF0.370603
aF0.3931
aF0.6069
aF0.629397
aF0.897169
asg24
(lp277
F0.013962634015955
aF1.308996938995747
aF0.652753140245879
asa(dp278
g2
V\u000ainclude "qelib1.inc";\u000aqreg main_qr[5];\u000acreg main_cr[5];\u000au3(0.638790506229925,0.0,0.0) main_qr[3];\u000acx main_qr[3],main_qr[4];\u000au3(1.001818990644745,0.0,0.0) main_qr[4];\u000au3(1.078613477732496,0.0,0.0) main_qr[3];\u000acx main_qr[3],main_qr[2];\u000acx main_qr[4],main_qr[2];\u000ameasure main_qr[2] -> main_cr[2];\u000ameasure main_qr[4] -> main_cr[4];\u000ameasure main_qr[3] -> main_cr[3];\u000a
p279
sg4
(dp280
g6
L157L
sg7
L147L
sg8
L90L
sg9
L613L
sg10
L760L
sg11
L113L
sg12
L40L
sg13
L128L
ssg14
(lp281
F0.2145341437559007
aF0.3173723682799457
aF0.36289378982240555
aF0.6371062101775944
aF0.6826276317200543
aF0.7854658562440993
asg16
(dp282
g6
L21L
sg7
L1020L
sg8
L67L
sg9
L53L
sg10
L201L
sg11
L100L
sg12
L425L
sg13
L161L
ssg18
V\u000ainclude "qelib1.inc";\u000aqreg err_qr[5];\u000acreg err_cr[5];\u000au3(0.638790506229925,0.0,0.0) err_qr[3];\u000acx err_qr[3],err_qr[4];\u000au3(1.001818990644745,0.0,0.0) err_qr[4];\u000au3(1.078613477732496,0.0,0.0) err_qr[3];\u000acx err_qr[3],err_qr[2];\u000acx err_qr[4],err_qr[2];\u000au3(1.570796326794897,0.0,0.0) err_qr[2];\u000ameasure err_qr[2] -> err_cr[2];\u000au3(1.570796326794897,0.0,0.0) err_qr[4];\u000ameasure err_qr[4] -> err_cr[4];\u000au3(-1.570796326794897,0.0,0.0) err_qr[3];\u000ameasure err_qr[3] -> err_cr[3];\u000a
p283
sg20
(lp284
F0.20033204205866084
aF0.3242944106253459
aF0.34643054786939687
aF0.6535694521306031
aF0.6757055893746541
aF0.7996679579413392
asg22
(lp285
F0.1513668486331513
aF0.2837327162672837
aF0.31031368968631023
aF0.6896863103136898
aF0.7162672837327163
aF0.8486331513668487
asg24
(lp286
F0.638790506229925
aF1.001818990644745
aF1.078613477732496
asa(dp287
g2
V\u000ainclude "qelib1.inc";\u000aqreg main_qr[5];\u000acreg main_cr[5];\u000au3(0.164060949687467,0.0,0.0) main_qr[3];\u000acx main_qr[3],main_qr[4];\u000au3(0.108210413623648,0.0,0.0) main_qr[4];\u000au3(0.408407044966673,0.0,0.0) main_qr[3];\u000acx main_qr[3],main_qr[2];\u000acx main_qr[4],main_qr[2];\u000ameasure main_qr[2] -> main_cr[2];\u000ameasure main_qr[4] -> main_cr[4];\u000ameasure main_qr[3] -> main_cr[3];\u000a
p288
sg4
(dp289
g6
L310L
sg7
L166L
sg8
L271L
sg9
L288L
sg10
L502L
sg11
L152L
sg12
L151L
sg13
L208L
ssg14
(lp290
F0.08987107140848141
aF0.12046095999384471
aF0.14059780057923088
aF0.8594021994207691
aF0.8795390400061553
aF0.9101289285915186
asg16
(dp291
g6
L5L
sg7
L1596L
sg8
L57L
sg9
L36L
sg10
L62L
sg11
L42L
sg12
L80L
sg13
L170L
ssg18
V\u000ainclude "qelib1.inc";\u000aqreg err_qr[5];\u000acreg err_cr[5];\u000au3(0.164060949687467,0.0,0.0) err_qr[3];\u000acx err_qr[3],err_qr[4];\u000au3(0.108210413623648,0.0,0.0) err_qr[4];\u000au3(0.408407044966673,0.0,0.0) err_qr[3];\u000acx err_qr[3],err_qr[2];\u000acx err_qr[4],err_qr[2];\u000au3(1.570796326794897,0.0,0.0) err_qr[2];\u000ameasure err_qr[2] -> err_cr[2];\u000au3(1.570796326794897,0.0,0.0) err_qr[4];\u000ameasure err_qr[4] -> err_cr[4];\u000au3(-1.570796326794897,0.0,0.0) err_qr[3];\u000ameasure err_qr[3] -> err_cr[3];\u000a
p292
sg20
(lp293
F0.07442348008385735
aF0.12159329140461206
aF0.1310272536687631
aF0.8689727463312369
aF0.8784067085953879
aF0.9255765199161426
asg22
(lp294
F0.009599000000000024
aF0.040304000000000006
aF0.04728500000000002
aF0.952715
aF0.959696
aF0.990401
asg24
(lp295
F0.164060949687467
aF0.108210413623648
aF0.408407044966673
asa(dp296
g2
V\u000ainclude "qelib1.inc";\u000aqreg main_qr[5];\u000acreg main_cr[5];\u000au3(0.258308729295161,0.0,0.0) main_qr[3];\u000acx main_qr[3],main_qr[4];\u000au3(0.827286065445312,0.0,0.0) main_qr[4];\u000au3(0.921533845053006,0.0,0.0) main_qr[3];\u000acx main_qr[3],main_qr[2];\u000acx main_qr[4],main_qr[2];\u000ameasure main_qr[2] -> main_cr[2];\u000ameasure main_qr[4] -> main_cr[4];\u000ameasure main_qr[3] -> main_cr[3];\u000a
p297
sg4
(dp298
g6
L249L
sg7
L200L
sg8
L122L
sg9
L500L
sg10
L726L
sg11
L90L
sg12
L62L
sg13
L99L
ssg14
(lp299
F0.2657511732849387
aF0.2797461838116483
aF0.2874220598327475
aF0.7125779401672525
aF0.7202538161883517
aF0.7342488267150611
asg16
(dp300
g6
L23L
sg7
L1088L
sg8
L80L
sg9
L33L
sg10
L258L
sg11
L64L
sg12
L256L
sg13
L246L
ssg18
V\u000ainclude "qelib1.inc";\u000aqreg err_qr[5];\u000acreg err_cr[5];\u000au3(0.258308729295161,0.0,0.0) err_qr[3];\u000acx err_qr[3],err_qr[4];\u000au3(0.827286065445312,0.0,0.0) err_qr[4];\u000au3(0.921533845053006,0.0,0.0) err_qr[3];\u000acx err_qr[3],err_qr[2];\u000acx err_qr[4],err_qr[2];\u000au3(1.570796326794897,0.0,0.0) err_qr[2];\u000ameasure err_qr[2] -> err_cr[2];\u000au3(1.570796326794897,0.0,0.0) err_qr[4];\u000ameasure err_qr[4] -> err_cr[4];\u000au3(-1.570796326794897,0.0,0.0) err_qr[3];\u000ameasure err_qr[3] -> err_cr[3];\u000a
p301
sg20
(lp302
F0.2716450216450217
aF0.2727272727272727
aF0.27813852813852813
aF0.7218614718614719
aF0.7272727272727273
aF0.7283549783549783
asg22
(lp303
F0.17279
aF0.20773000000000008
aF0.22049400000000008
aF0.7795059999999999
aF0.7922699999999999
aF0.82721
asg24
(lp304
F0.258308729295161
aF0.827286065445312
aF0.921533845053006
asa(dp305
g2
V\u000ainclude "qelib1.inc";\u000aqreg main_qr[5];\u000acreg main_cr[5];\u000au3(0.733038285837618,0.0,0.0) main_qr[3];\u000acx main_qr[3],main_qr[4];\u000au3(1.462585913171248,0.0,0.0) main_qr[4];\u000au3(1.305506280491759,0.0,0.0) main_qr[3];\u000acx main_qr[3],main_qr[2];\u000acx main_qr[4],main_qr[2];\u000ameasure main_qr[2] -> main_cr[2];\u000ameasure main_qr[4] -> main_cr[4];\u000ameasure main_qr[3] -> main_cr[3];\u000a
p306
sg4
(dp307
g6
L142L
sg7
L113L
sg8
L97L
sg9
L631L
sg10
L714L
sg11
L128L
sg12
L53L
sg13
L170L
ssg14
(lp308
F0.2218416384014364
aF0.4364990281307071
aF0.4522132533997682
aF0.5477867466002319
aF0.5635009718692929
aF0.7781583615985637
asg16
(dp309
g6
L28L
sg7
L697L
sg8
L46L
sg9
L60L
sg10
L265L
sg11
L143L
sg12
L685L
sg13
L124L
ssg18
V\u000ainclude "qelib1.inc";\u000aqreg err_qr[5];\u000acreg err_cr[5];\u000au3(0.733038285837618,0.0,0.0) err_qr[3];\u000acx err_qr[3],err_qr[4];\u000au3(1.462585913171248,0.0,0.0) err_qr[4];\u000au3(1.305506280491759,0.0,0.0) err_qr[3];\u000acx err_qr[3],err_qr[2];\u000acx err_qr[4],err_qr[2];\u000au3(1.570796326794897,0.0,0.0) err_qr[2];\u000ameasure err_qr[2] -> err_cr[2];\u000au3(1.570796326794897,0.0,0.0) err_qr[4];\u000ameasure err_qr[4] -> err_cr[4];\u000au3(-1.570796326794897,0.0,0.0) err_qr[3];\u000ameasure err_qr[3] -> err_cr[3];\u000a
p310
sg20
(lp311
F0.21964991530208922
aF0.45680406549971775
aF0.463579898362507
aF0.536420101637493
aF0.5431959345002823
aF0.7803500846979108
asg22
(lp312
F0.16486916486916492
aF0.4025774025774026
aF0.45987045987045994
aF0.5401295401295401
aF0.5974225974225974
aF0.8351308351308351
asg24
(lp313
F0.733038285837618
aF1.462585913171248
aF1.305506280491759
asa(dp314
g2
V\u000ainclude "qelib1.inc";\u000aqreg main_qr[5];\u000acreg main_cr[5];\u000au3(0.387463093942741,0.0,0.0) main_qr[3];\u000acx main_qr[3],main_qr[4];\u000au3(1.103048087260416,0.0,0.0) main_qr[4];\u000au3(1.37881010907552,0.0,0.0) main_qr[3];\u000acx main_qr[3],main_qr[2];\u000acx main_qr[4],main_qr[2];\u000ameasure main_qr[2] -> main_cr[2];\u000ameasure main_qr[4] -> main_cr[4];\u000ameasure main_qr[3] -> main_cr[3];\u000a
p315
sg4
(dp316
g6
L144L
sg7
L139L
sg8
L81L
sg9
L698L
sg10
L782L
sg11
L88L
sg12
L32L
sg13
L84L
ssg14
(lp317
F0.32168038275395666
aF0.41004486354461445
aF0.41339371559444915
aF0.5866062844055508
aF0.5899551364553856
aF0.6783196172460433
asg16
(dp318
g6
L27L
sg7
L766L
sg8
L77L
sg9
L46L
sg10
L250L
sg11
L103L
sg12
L468L
sg13
L311L
ssg18
V\u000ainclude "qelib1.inc";\u000aqreg err_qr[5];\u000acreg err_cr[5];\u000au3(0.387463093942741,0.0,0.0) err_qr[3];\u000acx err_qr[3],err_qr[4];\u000au3(1.103048087260416,0.0,0.0) err_qr[4];\u000au3(1.37881010907552,0.0,0.0) err_qr[3];\u000acx err_qr[3],err_qr[2];\u000acx err_qr[4],err_qr[2];\u000au3(1.570796326794897,0.0,0.0) err_qr[2];\u000ameasure err_qr[2] -> err_cr[2];\u000au3(1.570796326794897,0.0,0.0) err_qr[4];\u000ameasure err_qr[4] -> err_cr[4];\u000au3(-1.570796326794897,0.0,0.0) err_qr[3];\u000ameasure err_qr[3] -> err_cr[3];\u000a
p319
sg20
(lp320
F0.31253481894150414
aF0.4
aF0.43398328690807797
aF0.566016713091922
aF0.6
aF0.6874651810584959
asg22
(lp321
F0.291273
aF0.291455
aF0.41166800000000003
aF0.588332
aF0.708545
aF0.708727
asg24
(lp322
F0.387463093942741
aF1.103048087260416
aF1.37881010907552
asa(dp323
g2
V\u000ainclude "qelib1.inc";\u000aqreg main_qr[5];\u000acreg main_cr[5];\u000au3(0.150098315671512,0.0,0.0) main_qr[3];\u000acx main_qr[3],main_qr[4];\u000au3(1.368338133563554,0.0,0.0) main_qr[4];\u000au3(1.089085453244462,0.0,0.0) main_qr[3];\u000acx main_qr[3],main_qr[2];\u000acx main_qr[4],main_qr[2];\u000ameasure main_qr[2] -> main_cr[2];\u000ameasure main_qr[4] -> main_cr[4];\u000ameasure main_qr[3] -> main_cr[3];\u000a
p324
sg4
(dp325
g6
L169L
sg7
L141L
sg8
L73L
sg9
L657L
sg10
L860L
sg11
L64L
sg12
L33L
sg13
L51L
ssg14
(lp326
F0.2846729512693794
aF0.40302729457768116
aF0.4501355100151401
aF0.5498644899848599
aF0.5969727054223188
aF0.7153270487306206
asg16
(dp327
g6
L34L
sg7
L712L
sg8
L87L
sg9
L40L
sg10
L562L
sg11
L89L
sg12
L334L
sg13
L190L
ssg18
V\u000ainclude "qelib1.inc";\u000aqreg err_qr[5];\u000acreg err_cr[5];\u000au3(0.150098315671512,0.0,0.0) err_qr[3];\u000acx err_qr[3],err_qr[4];\u000au3(1.368338133563554,0.0,0.0) err_qr[4];\u000au3(1.089085453244462,0.0,0.0) err_qr[3];\u000acx err_qr[3],err_qr[2];\u000acx err_qr[4],err_qr[2];\u000au3(1.570796326794897,0.0,0.0) err_qr[2];\u000ameasure err_qr[2] -> err_cr[2];\u000au3(1.570796326794897,0.0,0.0) err_qr[4];\u000ameasure err_qr[4] -> err_cr[4];\u000au3(-1.570796326794897,0.0,0.0) err_qr[3];\u000ameasure err_qr[3] -> err_cr[3];\u000a
p328
sg20
(lp329
F0.2914349276974416
aF0.41824249165739713
aF0.4983314794215795
aF0.5016685205784205
aF0.5817575083426029
aF0.7085650723025584
asg22
(lp330
F0.27095672904327095
aF0.38851461148538846
aF0.4005915994084005
aF0.5994084005915995
aF0.6114853885146115
aF0.729043270956729
asg24
(lp331
F0.150098315671512
aF1.368338133563554
aF1.089085453244462
asa(dp332
g2
V\u000ainclude "qelib1.inc";\u000aqreg main_qr[5];\u000acreg main_cr[5];\u000au3(1.200786525372099,0.0,0.0) main_qr[3];\u000acx main_qr[3],main_qr[4];\u000au3(0.219911485751285,0.0,0.0) main_qr[4];\u000au3(1.392772743091475,0.0,0.0) main_qr[3];\u000acx main_qr[3],main_qr[2];\u000acx main_qr[4],main_qr[2];\u000ameasure main_qr[2] -> main_cr[2];\u000ameasure main_qr[4] -> main_cr[4];\u000ameasure main_qr[3] -> main_cr[3];\u000a
p333
sg4
(dp334
g6
L253L
sg7
L297L
sg8
L301L
sg9
L342L
sg10
L332L
sg11
L178L
sg12
L121L
sg13
L224L
ssg14
(lp335
F0.36024148651013954
aF0.37019063401825725
aF0.45841861551553953
aF0.5415813844844605
aF0.6298093659817428
aF0.6397585134898605
asg16
(dp336
g6
L30L
sg7
L660L
sg8
L91L
sg9
L60L
sg10
L191L
sg11
L96L
sg12
L481L
sg13
L439L
ssg18
V\u000ainclude "qelib1.inc";\u000aqreg err_qr[5];\u000acreg err_cr[5];\u000au3(1.200786525372099,0.0,0.0) err_qr[3];\u000acx err_qr[3],err_qr[4];\u000au3(0.219911485751285,0.0,0.0) err_qr[4];\u000au3(1.392772743091475,0.0,0.0) err_qr[3];\u000acx err_qr[3],err_qr[2];\u000acx err_qr[4],err_qr[2];\u000au3(1.570796326794897,0.0,0.0) err_qr[2];\u000ameasure err_qr[2] -> err_cr[2];\u000au3(1.570796326794897,0.0,0.0) err_qr[4];\u000ameasure err_qr[4] -> err_cr[4];\u000au3(-1.570796326794897,0.0,0.0) err_qr[3];\u000ameasure err_qr[3] -> err_cr[3];\u000a
p337
sg20
(lp338
F0.35573122529644274
aF0.37944664031620556
aF0.4805194805194805
aF0.5194805194805194
aF0.6205533596837944
aF0.6442687747035573
asg22
(lp339
F0.313507
aF0.323542
aF0.467981
aF0.532019
aF0.676458
aF0.686493
asg24
(lp340
F1.200786525372099
aF0.219911485751285
aF1.392772743091475
asa(dp341
g2
V\u000ainclude "qelib1.inc";\u000aqreg main_qr[5];\u000acreg main_cr[5];\u000au3(0.596902604182061,0.0,0.0) main_qr[3];\u000acx main_qr[3],main_qr[4];\u000au3(1.305506280491759,0.0,0.0) main_qr[4];\u000au3(1.315978256003725,0.0,0.0) main_qr[3];\u000acx main_qr[3],main_qr[2];\u000acx main_qr[4],main_qr[2];\u000ameasure main_qr[2] -> main_cr[2];\u000ameasure main_qr[4] -> main_cr[4];\u000ameasure main_qr[3] -> main_cr[3];\u000a
p342
sg4
(dp343
g6
L192L
sg7
L186L
sg8
L91L
sg9
L614L
sg10
L707L
sg11
L120L
sg12
L27L
sg13
L111L
ssg14
(lp344
F0.24960263361015414
aF0.42876446787173095
aF0.48798986926147575
aF0.5120101307385243
aF0.571235532128269
aF0.7503973663898458
asg16
(dp345
g6
L24L
sg7
L732L
sg8
L69L
sg9
L44L
sg10
L234L
sg11
L111L
sg12
L644L
sg13
L190L
ssg18
V\u000ainclude "qelib1.inc";\u000aqreg err_qr[5];\u000acreg err_cr[5];\u000au3(0.596902604182061,0.0,0.0) err_qr[3];\u000acx err_qr[3],err_qr[4];\u000au3(1.305506280491759,0.0,0.0) err_qr[4];\u000au3(1.315978256003725,0.0,0.0) err_qr[3];\u000acx err_qr[3],err_qr[2];\u000acx err_qr[4],err_qr[2];\u000au3(1.570796326794897,0.0,0.0) err_qr[2];\u000ameasure err_qr[2] -> err_cr[2];\u000au3(1.570796326794897,0.0,0.0) err_qr[4];\u000ameasure err_qr[4] -> err_cr[4];\u000au3(-1.570796326794897,0.0,0.0) err_qr[3];\u000ameasure err_qr[3] -> err_cr[3];\u000a
p346
sg20
(lp347
F0.23555555555555552
aF0.4633333333333334
aF0.48777777777777775
aF0.5122222222222222
aF0.5366666666666666
aF0.7644444444444445
asg22
(lp348
F0.204503
aF0.391574
aF0.39575899999999997
aF0.604241
aF0.608426
aF0.795497
asg24
(lp349
F0.596902604182061
aF1.305506280491759
aF1.315978256003725
asa(dp350
g2
V\u000ainclude "qelib1.inc";\u000aqreg main_qr[5];\u000acreg main_cr[5];\u000au3(0.230383461263251,0.0,0.0) main_qr[3];\u000acx main_qr[3],main_qr[4];\u000au3(1.064650843716541,0.0,0.0) main_qr[4];\u000au3(0.945968454580927,0.0,0.0) main_qr[3];\u000acx main_qr[3],main_qr[2];\u000acx main_qr[4],main_qr[2];\u000ameasure main_qr[2] -> main_cr[2];\u000ameasure main_qr[4] -> main_cr[4];\u000ameasure main_qr[3] -> main_cr[3];\u000a
p351
sg4
(dp352
g6
L219L
sg7
L139L
sg8
L69L
sg9
L591L
sg10
L842L
sg11
L68L
sg12
L36L
sg13
L84L
ssg14
(lp353
F0.24870255495968713
aF0.314913708990566
aF0.3547209419256656
aF0.6452790580743344
aF0.6850862910094341
aF0.7512974450403128
asg16
(dp354
g6
L22L
sg7
L977L
sg8
L74L
sg9
L31L
sg10
L396L
sg11
L83L
sg12
L261L
sg13
L204L
ssg18
V\u000ainclude "qelib1.inc";\u000aqreg err_qr[5];\u000acreg err_cr[5];\u000au3(0.230383461263251,0.0,0.0) err_qr[3];\u000acx err_qr[3],err_qr[4];\u000au3(1.064650843716541,0.0,0.0) err_qr[4];\u000au3(0.945968454580927,0.0,0.0) err_qr[3];\u000acx err_qr[3],err_qr[2];\u000acx err_qr[4],err_qr[2];\u000au3(1.570796326794897,0.0,0.0) err_qr[2];\u000ameasure err_qr[2] -> err_cr[2];\u000au3(1.570796326794897,0.0,0.0) err_qr[4];\u000ameasure err_qr[4] -> err_cr[4];\u000au3(-1.570796326794897,0.0,0.0) err_qr[3];\u000ameasure err_qr[3] -> err_cr[3];\u000a
p355
sg20
(lp356
F0.25299238302502713
aF0.3264417845484222
aF0.35745375408052227
aF0.6425462459194777
aF0.6735582154515778
aF0.7470076169749729
asg22
(lp357
F0.21524900000000002
aF0.264
aF0.277211
aF0.722789
aF0.736
aF0.784751
asg24
(lp358
F0.230383461263251
aF1.064650843716541
aF0.945968454580927
asa(dp359
g2
V\u000ainclude "qelib1.inc";\u000aqreg main_qr[5];\u000acreg main_cr[5];\u000au3(0.537561409614254,0.0,0.0) main_qr[3];\u000acx main_qr[3],main_qr[4];\u000au3(1.005309649148734,0.0,0.0) main_qr[4];\u000au3(1.507964473723101,0.0,0.0) main_qr[3];\u000acx main_qr[3],main_qr[2];\u000acx main_qr[4],main_qr[2];\u000ameasure main_qr[2] -> main_cr[2];\u000ameasure main_qr[4] -> main_cr[4];\u000ameasure main_qr[3] -> main_cr[3];\u000a
p360
sg4
(dp361
g6
L116L
sg7
L156L
sg8
L91L
sg9
L677L
sg10
L755L
sg11
L79L
sg12
L50L
sg13
L124L
ssg14
(lp362
F0.29414847749055145
aF0.3924261994077901
aF0.4508361153392896
aF0.5491638846607104
aF0.6075738005922099
aF0.7058515225094486
asg16
(dp363
g6
L24L
sg7
L779L
sg8
L84L
sg9
L45L
sg10
L164L
sg11
L80L
sg12
L537L
sg13
L335L
ssg18
V\u000ainclude "qelib1.inc";\u000aqreg err_qr[5];\u000acreg err_cr[5];\u000au3(0.537561409614254,0.0,0.0) err_qr[3];\u000acx err_qr[3],err_qr[4];\u000au3(1.005309649148734,0.0,0.0) err_qr[4];\u000au3(1.507964473723101,0.0,0.0) err_qr[3];\u000acx err_qr[3],err_qr[2];\u000acx err_qr[4],err_qr[2];\u000au3(1.570796326794897,0.0,0.0) err_qr[2];\u000ameasure err_qr[2] -> err_cr[2];\u000au3(1.570796326794897,0.0,0.0) err_qr[4];\u000ameasure err_qr[4] -> err_cr[4];\u000au3(-1.570796326794897,0.0,0.0) err_qr[3];\u000ameasure err_qr[3] -> err_cr[3];\u000a
p364
sg20
(lp365
F0.27493112947658405
aF0.3862258953168045
aF0.4804407713498623
aF0.5195592286501377
aF0.6137741046831955
aF0.725068870523416
asg22
(lp366
F0.26743800000000006
aF0.26987300000000003
aF0.47303300000000004
aF0.526967
aF0.730127
aF0.7325619999999999
asg24
(lp367
F0.537561409614254
aF1.005309649148734
aF1.507964473723101
asa(dp368
g2
V\u000ainclude "qelib1.inc";\u000aqreg main_qr[5];\u000acreg main_cr[5];\u000au3(0.160570291183478,0.0,0.0) main_qr[3];\u000acx main_qr[3],main_qr[4];\u000au3(1.246165085923951,0.0,0.0) main_qr[4];\u000au3(1.336922207027656,0.0,0.0) main_qr[3];\u000acx main_qr[3],main_qr[2];\u000acx main_qr[4],main_qr[2];\u000ameasure main_qr[2] -> main_cr[2];\u000ameasure main_qr[4] -> main_cr[4];\u000ameasure main_qr[3] -> main_cr[3];\u000a
p369
sg4
(dp370
g6
L160L
sg7
L103L
sg8
L57L
sg9
L690L
sg10
L882L
sg11
L67L
sg12
L29L
sg13
L60L
ssg14
(lp371
F0.3768659627910107
aF0.3862042764190048
aF0.42938129554383353
aF0.5706187044561665
aF0.6137957235809952
aF0.6231340372089893
asg16
(dp372
g6
L24L
sg7
L687L
sg8
L68L
sg9
L48L
sg10
L409L
sg11
L77L
sg12
L425L
sg13
L310L
ssg18
V\u000ainclude "qelib1.inc";\u000aqreg err_qr[5];\u000acreg err_cr[5];\u000au3(0.160570291183478,0.0,0.0) err_qr[3];\u000acx err_qr[3],err_qr[4];\u000au3(1.246165085923951,0.0,0.0) err_qr[4];\u000au3(1.336922207027656,0.0,0.0) err_qr[3];\u000acx err_qr[3],err_qr[2];\u000acx err_qr[4],err_qr[2];\u000au3(1.570796326794897,0.0,0.0) err_qr[2];\u000ameasure err_qr[2] -> err_cr[2];\u000au3(1.570796326794897,0.0,0.0) err_qr[4];\u000ameasure err_qr[4] -> err_cr[4];\u000au3(-1.570796326794897,0.0,0.0) err_qr[3];\u000ameasure err_qr[3] -> err_cr[3];\u000a
p373
sg20
(lp374
F0.3926815947569635
aF0.40141998907700716
aF0.45548880393227753
aF0.5445111960677225
aF0.5985800109229928
aF0.6073184052430365
asg22
(lp375
F0.3425716574283425
aF0.38561661438338557
aF0.3893386106613893
aF0.6106613893386107
aF0.6143833856166144
aF0.6574283425716575
asg24
(lp376
F0.160570291183478
aF1.246165085923951
aF1.336922207027656
asa(dp377
g2
V\u000ainclude "qelib1.inc";\u000aqreg main_qr[5];\u000acreg main_cr[5];\u000au3(1.333431548523668,0.0,0.0) main_qr[3];\u000acx main_qr[3],main_qr[4];\u000au3(1.445132620651305,0.0,0.0) main_qr[4];\u000au3(0.048869219055841,0.0,0.0) main_qr[3];\u000acx main_qr[3],main_qr[2];\u000acx main_qr[4],main_qr[2];\u000ameasure main_qr[2] -> main_cr[2];\u000ameasure main_qr[4] -> main_cr[4];\u000ameasure main_qr[3] -> main_cr[3];\u000a
p378
sg4
(dp379
g6
L354L
sg7
L175L
sg8
L206L
sg9
L303L
sg10
L414L
sg11
L187L
sg12
L207L
sg13
L202L
ssg14
(lp380
F0.35981990408923675
aF0.4149647303433964
aF0.42488082182174924
aF0.5751191781782508
aF0.5850352696566036
aF0.6401800959107632
asg16
(dp381
g6
L40L
sg7
L577L
sg8
L75L
sg9
L40L
sg10
L560L
sg11
L96L
sg12
L396L
sg13
L264L
ssg18
V\u000ainclude "qelib1.inc";\u000aqreg err_qr[5];\u000acreg err_cr[5];\u000au3(1.333431548523668,0.0,0.0) err_qr[3];\u000acx err_qr[3],err_qr[4];\u000au3(1.445132620651305,0.0,0.0) err_qr[4];\u000au3(0.048869219055841,0.0,0.0) err_qr[3];\u000acx err_qr[3],err_qr[2];\u000acx err_qr[4],err_qr[2];\u000au3(1.570796326794897,0.0,0.0) err_qr[2];\u000ameasure err_qr[2] -> err_cr[2];\u000au3(1.570796326794897,0.0,0.0) err_qr[4];\u000ameasure err_qr[4] -> err_cr[4];\u000au3(-1.570796326794897,0.0,0.0) err_qr[3];\u000ameasure err_qr[3] -> err_cr[3];\u000a
p382
sg20
(lp383
F0.3672787979966611
aF0.4585420144685587
aF0.4680022259321091
aF0.531997774067891
aF0.5414579855314413
aF0.6327212020033389
asg22
(lp384
F0.38256938256938267
aF0.4138554138554139
aF0.4852644852644853
aF0.5147355147355147
aF0.5861445861445861
aF0.6174306174306173
asg24
(lp385
F1.333431548523668
aF1.445132620651305
aF0.048869219055841
asa(dp386
g2
V\u000ainclude "qelib1.inc";\u000aqreg main_qr[5];\u000acreg main_cr[5];\u000au3(0.216420827247297,0.0,0.0) main_qr[3];\u000acx main_qr[3],main_qr[4];\u000au3(1.204277183876087,0.0,0.0) main_qr[4];\u000au3(1.225221134900019,0.0,0.0) main_qr[3];\u000acx main_qr[3],main_qr[2];\u000acx main_qr[4],main_qr[2];\u000ameasure main_qr[2] -> main_cr[2];\u000ameasure main_qr[4] -> main_cr[4];\u000ameasure main_qr[3] -> main_cr[3];\u000a
p387
sg4
(dp388
g6
L177L
sg7
L134L
sg8
L67L
sg9
L673L
sg10
L827L
sg11
L70L
sg12
L33L
sg13
L67L
ssg14
(lp389
F0.3559942778558647
aF0.3628312025023256
aF0.4387698427539822
aF0.5612301572460179
aF0.6371687974976744
aF0.6440057221441353
asg16
(dp390
g6
L29L
sg7
L744L
sg8
L75L
sg9
L40L
sg10
L389L
sg11
L87L
sg12
L425L
sg13
L259L
ssg18
V\u000ainclude "qelib1.inc";\u000aqreg err_qr[5];\u000acreg err_cr[5];\u000au3(0.216420827247297,0.0,0.0) err_qr[3];\u000acx err_qr[3],err_qr[4];\u000au3(1.204277183876087,0.0,0.0) err_qr[4];\u000au3(1.225221134900019,0.0,0.0) err_qr[3];\u000acx err_qr[3],err_qr[2];\u000acx err_qr[4],err_qr[2];\u000au3(1.570796326794897,0.0,0.0) err_qr[2];\u000ameasure err_qr[2] -> err_cr[2];\u000au3(1.570796326794897,0.0,0.0) err_qr[4];\u000ameasure err_qr[4] -> err_cr[4];\u000au3(-1.570796326794897,0.0,0.0) err_qr[3];\u000ameasure err_qr[3] -> err_cr[3];\u000a
p391
sg20
(lp392
F0.35663181067694005
aF0.3764446890478812
aF0.44799119427627965
aF0.5520088057237204
aF0.6235553109521188
aF0.64336818932306
asg22
(lp393
F0.32499600000000006
aF0.33458200000000005
aF0.344994
aF0.655006
aF0.665418
aF0.6750039999999999
asg24
(lp394
F0.216420827247297
aF1.204277183876087
aF1.225221134900019
asa(dp395
g2
V\u000ainclude "qelib1.inc";\u000aqreg main_qr[5];\u000acreg main_cr[5];\u000au3(0.429350995990605,0.0,0.0) main_qr[3];\u000acx main_qr[3],main_qr[4];\u000au3(1.24965574442794,0.0,0.0) main_qr[4];\u000au3(0.551524043630208,0.0,0.0) main_qr[3];\u000acx main_qr[3],main_qr[2];\u000acx main_qr[4],main_qr[2];\u000ameasure main_qr[2] -> main_cr[2];\u000ameasure main_qr[4] -> main_cr[4];\u000ameasure main_qr[3] -> main_cr[3];\u000a
p396
sg4
(dp397
g6
L319L
sg7
L196L
sg8
L68L
sg9
L442L
sg10
L800L
sg11
L88L
sg12
L40L
sg13
L95L
ssg14
(lp398
F0.1755636554724631
aF0.31047138263112395
aF0.38415276517056196
aF0.6158472348294379
aF0.6895286173688759
aF0.8244363445275369
asg16
(dp399
g6
L17L
sg7
L932L
sg8
L72L
sg9
L32L
sg10
L576L
sg11
L96L
sg12
L254L
sg13
L69L
ssg18
V\u000ainclude "qelib1.inc";\u000aqreg err_qr[5];\u000acreg err_cr[5];\u000au3(0.429350995990605,0.0,0.0) err_qr[3];\u000acx err_qr[3],err_qr[4];\u000au3(1.24965574442794,0.0,0.0) err_qr[4];\u000au3(0.551524043630208,0.0,0.0) err_qr[3];\u000acx err_qr[3],err_qr[2];\u000acx err_qr[4],err_qr[2];\u000au3(1.570796326794897,0.0,0.0) err_qr[2];\u000ameasure err_qr[2] -> err_cr[2];\u000au3(1.570796326794897,0.0,0.0) err_qr[4];\u000ameasure err_qr[4] -> err_cr[4];\u000au3(-1.570796326794897,0.0,0.0) err_qr[3];\u000ameasure err_qr[3] -> err_cr[3];\u000a
p400
sg20
(lp401
F0.17640633533588213
aF0.35226652102676137
aF0.45330420535226656
aF0.5466957946477334
aF0.6477334789732386
aF0.8235936646641179
asg22
(lp402
F0.11278911278911286
aF0.2620892620892622
aF0.3565003565003566
aF0.6434996434996434
aF0.7379107379107378
aF0.8872108872108871
asg24
(lp403
F0.429350995990605
aF1.24965574442794
aF0.551524043630208
asa(dp404
g2
V\u000ainclude "qelib1.inc";\u000aqreg main_qr[5];\u000acreg main_cr[5];\u000au3(0.279252680319093,0.0,0.0) main_qr[3];\u000acx main_qr[3],main_qr[4];\u000au3(0.073303828583762,0.0,0.0) main_qr[4];\u000au3(1.019272283164688,0.0,0.0) main_qr[3];\u000acx main_qr[3],main_qr[2];\u000acx main_qr[4],main_qr[2];\u000ameasure main_qr[2] -> main_cr[2];\u000ameasure main_qr[4] -> main_cr[4];\u000ameasure main_qr[3] -> main_cr[3];\u000a
p405
sg4
(dp406
g6
L245L
sg7
L206L
sg8
L325L
sg9
L333L
sg10
L441L
sg11
L164L
sg12
L150L
sg13
L184L
ssg14
(lp407
F0.1414100264870699
aF0.28803756492468613
aF0.3205647788303773
aF0.6794352211696226
aF0.7119624350753139
aF0.8585899735129301
asg16
(dp408
g6
L16L
sg7
L1166L
sg8
L97L
sg9
L55L
sg10
L72L
sg11
L39L
sg12
L163L
sg13
L440L
ssg18
V\u000ainclude "qelib1.inc";\u000aqreg err_qr[5];\u000acreg err_cr[5];\u000au3(0.279252680319093,0.0,0.0) err_qr[3];\u000acx err_qr[3],err_qr[4];\u000au3(0.073303828583762,0.0,0.0) err_qr[4];\u000au3(1.019272283164688,0.0,0.0) err_qr[3];\u000acx err_qr[3],err_qr[2];\u000acx err_qr[4],err_qr[2];\u000au3(1.570796326794897,0.0,0.0) err_qr[2];\u000ameasure err_qr[2] -> err_cr[2];\u000au3(1.570796326794897,0.0,0.0) err_qr[4];\u000ameasure err_qr[4] -> err_cr[4];\u000au3(-1.570796326794897,0.0,0.0) err_qr[3];\u000ameasure err_qr[3] -> err_cr[3];\u000a
p409
sg20
(lp410
F0.12764801738185771
aF0.27810972297664316
aF0.32753938077131994
aF0.6724606192286801
aF0.7218902770233568
aF0.8723519826181423
asg22
(lp411
F0.02066000000000001
aF0.23011400000000004
aF0.24815600000000004
aF0.751844
aF0.769886
aF0.97934
asg24
(lp412
F0.279252680319093
aF0.073303828583762
aF1.019272283164688
asa(dp413
g2
V\u000ainclude "qelib1.inc";\u000aqreg main_qr[5];\u000acreg main_cr[5];\u000au3(0.090757121103705,0.0,0.0) main_qr[3];\u000acx main_qr[3],main_qr[4];\u000au3(0.78190750489346,0.0,0.0) main_qr[4];\u000au3(1.235693110411985,0.0,0.0) main_qr[3];\u000acx main_qr[3],main_qr[2];\u000acx main_qr[4],main_qr[2];\u000ameasure main_qr[2] -> main_cr[2];\u000ameasure main_qr[4] -> main_cr[4];\u000ameasure main_qr[3] -> main_cr[3];\u000a
p414
sg4
(dp415
g6
L321L
sg7
L242L
sg8
L127L
sg9
L503L
sg10
L641L
sg11
L66L
sg12
L60L
sg13
L88L
ssg14
(lp416
F0.2828954182564023
aF0.35896023351990486
aF0.4108582431019223
aF0.5891417568980777
aF0.6410397664800951
aF0.7171045817435977
asg16
(dp417
g6
L27L
sg7
L856L
sg8
L96L
sg9
L43L
sg10
L187L
sg11
L60L
sg12
L310L
sg13
L469L
ssg18
V\u000ainclude "qelib1.inc";\u000aqreg err_qr[5];\u000acreg err_cr[5];\u000au3(0.090757121103705,0.0,0.0) err_qr[3];\u000acx err_qr[3],err_qr[4];\u000au3(0.78190750489346,0.0,0.0) err_qr[4];\u000au3(1.235693110411985,0.0,0.0) err_qr[3];\u000acx err_qr[3],err_qr[2];\u000acx err_qr[4],err_qr[2];\u000au3(1.570796326794897,0.0,0.0) err_qr[2];\u000ameasure err_qr[2] -> err_cr[2];\u000au3(1.570796326794897,0.0,0.0) err_qr[4];\u000ameasure err_qr[4] -> err_cr[4];\u000au3(-1.570796326794897,0.0,0.0) err_qr[3];\u000ameasure err_qr[3] -> err_cr[3];\u000a
p418
sg20
(lp419
F0.27277716794731066
aF0.3600439077936334
aF0.4275521405049396
aF0.5724478594950604
aF0.6399560922063666
aF0.7272228320526893
asg22
(lp420
F0.146675
aF0.33624300000000007
aF0.35316800000000004
aF0.646832
aF0.6637569999999999
aF0.853325
asg24
(lp421
F0.090757121103705
aF0.78190750489346
aF1.235693110411985
asa(dp422
g2
V\u000ainclude "qelib1.inc";\u000aqreg main_qr[5];\u000acreg main_cr[5];\u000au3(0.115191730631626,0.0,0.0) main_qr[3];\u000acx main_qr[3],main_qr[4];\u000au3(1.036725575684632,0.0,0.0) main_qr[4];\u000au3(1.183333232852155,0.0,0.0) main_qr[3];\u000acx main_qr[3],main_qr[2];\u000acx main_qr[4],main_qr[2];\u000ameasure main_qr[2] -> main_cr[2];\u000ameasure main_qr[4] -> main_cr[4];\u000ameasure main_qr[3] -> main_cr[3];\u000a
p423
sg4
(dp424
g6
L338L
sg7
L267L
sg8
L83L
sg9
L535L
sg10
L677L
sg11
L60L
sg12
L35L
sg13
L53L
ssg14
(lp425
F0.3607071287994782
aF0.3646227576106013
aF0.37638670486303205
aF0.623613295136968
aF0.6353772423893987
aF0.6392928712005218
asg16
(dp426
g6
L25L
sg7
L802L
sg8
L81L
sg9
L51L
sg10
L337L
sg11
L74L
sg12
L316L
sg13
L362L
ssg18
V\u000ainclude "qelib1.inc";\u000aqreg err_qr[5];\u000acreg err_cr[5];\u000au3(0.115191730631626,0.0,0.0) err_qr[3];\u000acx err_qr[3],err_qr[4];\u000au3(1.036725575684632,0.0,0.0) err_qr[4];\u000au3(1.183333232852155,0.0,0.0) err_qr[3];\u000acx err_qr[3],err_qr[2];\u000acx err_qr[4],err_qr[2];\u000au3(1.570796326794897,0.0,0.0) err_qr[2];\u000ameasure err_qr[2] -> err_cr[2];\u000au3(1.570796326794897,0.0,0.0) err_qr[4];\u000ameasure err_qr[4] -> err_cr[4];\u000au3(-1.570796326794897,0.0,0.0) err_qr[3];\u000ameasure err_qr[3] -> err_cr[3];\u000a
p427
sg20
(lp428
F0.35938359933957076
aF0.3731425426527243
aF0.3847000550357733
aF0.6152999449642267
aF0.6268574573472757
aF0.6406164006604292
asg22
(lp429
F0.247166
aF0.312331
aF0.35803300000000005
aF0.641967
aF0.687669
aF0.752834
asg24
(lp430
F0.115191730631626
aF1.036725575684632
aF1.183333232852155
asa(dp431
g2
V\u000ainclude "qelib1.inc";\u000aqreg main_qr[5];\u000acreg main_cr[5];\u000au3(0.488692190558412,0.0,0.0) main_qr[3];\u000acx main_qr[3],main_qr[4];\u000au3(1.24965574442794,0.0,0.0) main_qr[4];\u000au3(0.900589894029074,0.0,0.0) main_qr[3];\u000acx main_qr[3],main_qr[2];\u000acx main_qr[4],main_qr[2];\u000ameasure main_qr[2] -> main_cr[2];\u000ameasure main_qr[4] -> main_cr[4];\u000ameasure main_qr[3] -> main_cr[3];\u000a
p432
sg4
(dp433
g6
L299L
sg7
L233L
sg8
L82L
sg9
L468L
sg10
L714L
sg11
L100L
sg12
L45L
sg13
L107L
ssg14
(lp434
F0.2646160227197826
aF0.3309072795808321
aF0.42354538402533826
aF0.5764546159746617
aF0.6690927204191679
aF0.7353839772802174
asg16
(dp435
g6
L27L
sg7
L856L
sg8
L67L
sg9
L51L
sg10
L351L
sg11
L80L
sg12
L485L
sg13
L131L
ssg18
V\u000ainclude "qelib1.inc";\u000aqreg err_qr[5];\u000acreg err_cr[5];\u000au3(0.488692190558412,0.0,0.0) err_qr[3];\u000acx err_qr[3],err_qr[4];\u000au3(1.24965574442794,0.0,0.0) err_qr[4];\u000au3(0.900589894029074,0.0,0.0) err_qr[3];\u000acx err_qr[3],err_qr[2];\u000acx err_qr[4],err_qr[2];\u000au3(1.570796326794897,0.0,0.0) err_qr[2];\u000ameasure err_qr[2] -> err_cr[2];\u000au3(1.570796326794897,0.0,0.0) err_qr[4];\u000ameasure err_qr[4] -> err_cr[4];\u000au3(-1.570796326794897,0.0,0.0) err_qr[3];\u000ameasure err_qr[3] -> err_cr[3];\u000a
p436
sg20
(lp437
F0.2643993417443774
aF0.337904552934723
aF0.4585847504114098
aF0.5414152495885902
aF0.662095447065277
aF0.7356006582556226
asg22
(lp438
F0.22577977422022577
aF0.2274117725882273
aF0.36064963935036065
aF0.6393503606496393
aF0.7725882274117727
aF0.7742202257797742
asg24
(lp439
F0.488692190558412
aF1.24965574442794
aF0.900589894029074
asa(dp440
g2
V\u000ainclude "qelib1.inc";\u000aqreg main_qr[5];\u000acreg main_cr[5];\u000au3(0.254818070791172,0.0,0.0) main_qr[3];\u000acx main_qr[3],main_qr[4];\u000au3(0.788888821901437,0.0,0.0) main_qr[4];\u000au3(0.75398223686155,0.0,0.0) main_qr[3];\u000acx main_qr[3],main_qr[2];\u000acx main_qr[4],main_qr[2];\u000ameasure main_qr[2] -> main_cr[2];\u000ameasure main_qr[4] -> main_cr[4];\u000ameasure main_qr[3] -> main_cr[3];\u000a
p441
sg4
(dp442
g6
L329L
sg7
L251L
sg8
L127L
sg9
L439L
sg10
L693L
sg11
L82L
sg12
L42L
sg13
L85L
ssg14
(lp443
F0.2396952551706672
aF0.24502693692533573
aF0.2789320458677055
aF0.7210679541322945
aF0.7549730630746644
aF0.7603047448293329
asg16
(dp444
g6
L14L
sg7
L1150L
sg8
L52L
sg9
L48L
sg10
L258L
sg11
L70L
sg12
L246L
sg13
L210L
ssg18
V\u000ainclude "qelib1.inc";\u000aqreg err_qr[5];\u000acreg err_cr[5];\u000au3(0.254818070791172,0.0,0.0) err_qr[3];\u000acx err_qr[3],err_qr[4];\u000au3(0.788888821901437,0.0,0.0) err_qr[4];\u000au3(0.75398223686155,0.0,0.0) err_qr[3];\u000acx err_qr[3],err_qr[2];\u000acx err_qr[4],err_qr[2];\u000au3(1.570796326794897,0.0,0.0) err_qr[2];\u000ameasure err_qr[2] -> err_cr[2];\u000au3(1.570796326794897,0.0,0.0) err_qr[4];\u000ameasure err_qr[4] -> err_cr[4];\u000au3(-1.570796326794897,0.0,0.0) err_qr[3];\u000ameasure err_qr[3] -> err_cr[3];\u000a
p445
sg20
(lp446
F0.24463519313304727
aF0.2510729613733905
aF0.2703862660944206
aF0.7296137339055794
aF0.7489270386266095
aF0.7553648068669527
asg22
(lp447
F0.1472851472851474
aF0.15905915905915913
aF0.181952181952182
aF0.818047818047818
aF0.8409408409408409
aF0.8527148527148526
asg24
(lp448
F0.254818070791172
aF0.788888821901437
aF0.75398223686155
asa(dp449
g2
V\u000ainclude "qelib1.inc";\u000aqreg main_qr[5];\u000acreg main_cr[5];\u000au3(1.071632160724518,0.0,0.0) main_qr[3];\u000acx main_qr[3],main_qr[4];\u000au3(1.490511181203158,0.0,0.0) main_qr[4];\u000au3(0.980875039620813,0.0,0.0) main_qr[3];\u000acx main_qr[3],main_qr[2];\u000acx main_qr[4],main_qr[2];\u000ameasure main_qr[2] -> main_cr[2];\u000ameasure main_qr[4] -> main_cr[4];\u000ameasure main_qr[3] -> main_cr[3];\u000a
p450
sg4
(dp451
g6
L227L
sg7
L179L
sg8
L142L
sg9
L427L
sg10
L499L
sg11
L215L
sg12
L107L
sg13
L252L
ssg14
(lp452
F0.183038139736314
aF0.4294826524582689
aF0.4841027142616214
aF0.5158972857383786
aF0.5705173475417311
aF0.816961860263686
asg16
(dp453
g6
L40L
sg7
L807L
sg8
L56L
sg9
L58L
sg10
L205L
sg11
L100L
sg12
L701L
sg13
L81L
ssg18
V\u000ainclude "qelib1.inc";\u000aqreg err_qr[5];\u000acreg err_cr[5];\u000au3(1.071632160724518,0.0,0.0) err_qr[3];\u000acx err_qr[3],err_qr[4];\u000au3(1.490511181203158,0.0,0.0) err_qr[4];\u000au3(0.980875039620813,0.0,0.0) err_qr[3];\u000acx err_qr[3],err_qr[2];\u000acx err_qr[4],err_qr[2];\u000au3(1.570796326794897,0.0,0.0) err_qr[2];\u000ameasure err_qr[2] -> err_cr[2];\u000au3(1.570796326794897,0.0,0.0) err_qr[4];\u000ameasure err_qr[4] -> err_cr[4];\u000au3(-1.570796326794897,0.0,0.0) err_qr[3];\u000ameasure err_qr[3] -> err_cr[3];\u000a
p454
sg20
(lp455
F0.1594202898550725
aF0.4358974358974359
aF0.49498327759197325
aF0.5050167224080268
aF0.5641025641025641
aF0.8405797101449275
asg22
(lp456
F0.11407211407211415
aF0.3668523668523669
aF0.4808044808044809
aF0.5191955191955191
aF0.6331476331476331
aF0.8859278859278858
asg24
(lp457
F1.071632160724518
aF1.490511181203158
aF0.980875039620813
asa(dp458
g2
V\u000ainclude "qelib1.inc";\u000aqreg main_qr[5];\u000acreg main_cr[5];\u000au3(0.230383461263251,0.0,0.0) main_qr[3];\u000acx main_qr[3],main_qr[4];\u000au3(1.022762941668677,0.0,0.0) main_qr[4];\u000au3(0.687659725285766,0.0,0.0) main_qr[3];\u000acx main_qr[3],main_qr[2];\u000acx main_qr[4],main_qr[2];\u000ameasure main_qr[2] -> main_cr[2];\u000ameasure main_qr[4] -> main_cr[4];\u000ameasure main_qr[3] -> main_cr[3];\u000a
p459
sg4
(dp460
g6
L353L
sg7
L273L
sg8
L90L
sg9
L460L
sg10
L670L
sg11
L80L
sg12
L43L
sg13
L79L
ssg14
(lp461
F0.2192722506962912
aF0.2939979656653255
aF0.3450270387175953
aF0.6549729612824047
aF0.7060020343346745
aF0.7807277493037088
asg16
(dp462
g6
L16L
sg7
L1053L
sg8
L82L
sg9
L40L
sg10
L397L
sg11
L60L
sg12
L258L
sg13
L142L
ssg18
V\u000ainclude "qelib1.inc";\u000aqreg err_qr[5];\u000acreg err_cr[5];\u000au3(0.230383461263251,0.0,0.0) err_qr[3];\u000acx err_qr[3],err_qr[4];\u000au3(1.022762941668677,0.0,0.0) err_qr[4];\u000au3(0.687659725285766,0.0,0.0) err_qr[3];\u000acx err_qr[3],err_qr[2];\u000acx err_qr[4],err_qr[2];\u000au3(1.570796326794897,0.0,0.0) err_qr[2];\u000ameasure err_qr[2] -> err_cr[2];\u000au3(1.570796326794897,0.0,0.0) err_qr[4];\u000ameasure err_qr[4] -> err_cr[4];\u000au3(-1.570796326794897,0.0,0.0) err_qr[3];\u000ameasure err_qr[3] -> err_cr[3];\u000a
p463
sg20
(lp464
F0.21621621621621623
aF0.2913513513513514
aF0.354054054054054
aF0.645945945945946
aF0.7086486486486486
aF0.7837837837837838
asg22
(lp465
F0.12384200000000001
aF0.236842
aF0.24637799999999999
aF0.753622
aF0.763158
aF0.876158
asg24
(lp466
F0.230383461263251
aF1.022762941668677
aF0.687659725285766
asa(dp467
g2
V\u000ainclude "qelib1.inc";\u000aqreg main_qr[5];\u000acreg main_cr[5];\u000au3(1.148426647812269,0.0,0.0) main_qr[3];\u000acx main_qr[3],main_qr[4];\u000au3(0.691150383789755,0.0,0.0) main_qr[4];\u000au3(0.673697091269811,0.0,0.0) main_qr[3];\u000acx main_qr[3],main_qr[2];\u000acx main_qr[4],main_qr[2];\u000ameasure main_qr[2] -> main_cr[2];\u000ameasure main_qr[4] -> main_cr[4];\u000ameasure main_qr[3] -> main_cr[3];\u000a
p468
sg4
(dp469
g6
L266L
sg7
L219L
sg8
L243L
sg9
L358L
sg10
L395L
sg11
L211L
sg12
L103L
sg13
L253L
ssg14
(lp470
F0.11268092041285716
aF0.4185038261141529
aF0.4294150650104049
aF0.5705849349895951
aF0.5814961738858468
aF0.8873190795871427
asg16
(dp471
g6
L17L
sg7
L956L
sg8
L37L
sg9
L68L
sg10
L89L
sg11
L103L
sg12
L679L
sg13
L99L
ssg18
V\u000ainclude "qelib1.inc";\u000aqreg err_qr[5];\u000acreg err_cr[5];\u000au3(1.148426647812269,0.0,0.0) err_qr[3];\u000acx err_qr[3],err_qr[4];\u000au3(0.691150383789755,0.0,0.0) err_qr[4];\u000au3(0.673697091269811,0.0,0.0) err_qr[3];\u000acx err_qr[3],err_qr[2];\u000acx err_qr[4],err_qr[2];\u000au3(1.570796326794897,0.0,0.0) err_qr[2];\u000ameasure err_qr[2] -> err_cr[2];\u000au3(1.570796326794897,0.0,0.0) err_qr[4];\u000ameasure err_qr[4] -> err_cr[4];\u000au3(-1.570796326794897,0.0,0.0) err_qr[3];\u000ameasure err_qr[3] -> err_cr[3];\u000a
p472
sg20
(lp473
F0.10312671420735042
aF0.42128359846407015
aF0.4267690619857377
aF0.5732309380142623
aF0.5787164015359298
aF0.8968732857926496
asg22
(lp474
F0.017550000000000066
aF0.33981800000000006
aF0.342074
aF0.657926
aF0.6601819999999999
aF0.9824499999999999
asg24
(lp475
F1.148426647812269
aF0.691150383789755
aF0.673697091269811
asa(dp476
g2
V\u000ainclude "qelib1.inc";\u000aqreg main_qr[5];\u000acreg main_cr[5];\u000au3(0.275762021815104,0.0,0.0) main_qr[3];\u000acx main_qr[3],main_qr[4];\u000au3(1.134464013796314,0.0,0.0) main_qr[4];\u000au3(1.123992038284348,0.0,0.0) main_qr[3];\u000acx main_qr[3],main_qr[2];\u000acx main_qr[4],main_qr[2];\u000ameasure main_qr[2] -> main_cr[2];\u000ameasure main_qr[4] -> main_cr[4];\u000ameasure main_qr[3] -> main_cr[3];\u000a
p477
sg4
(dp478
g6
L311L
sg7
L259L
sg8
L79L
sg9
L554L
sg10
L658L
sg11
L78L
sg12
L27L
sg13
L82L
ssg14
(lp479
F0.3172255596425648
aF0.38125224868494223
aF0.42603062815055304
aF0.573969371849447
aF0.6187477513150578
aF0.6827744403574352
asg16
(dp480
g6
L21L
sg7
L799L
sg8
L70L
sg9
L49L
sg10
L325L
sg11
L68L
sg12
L467L
sg13
L249L
ssg18
V\u000ainclude "qelib1.inc";\u000aqreg err_qr[5];\u000acreg err_cr[5];\u000au3(0.275762021815104,0.0,0.0) err_qr[3];\u000acx err_qr[3],err_qr[4];\u000au3(1.134464013796314,0.0,0.0) err_qr[4];\u000au3(1.123992038284348,0.0,0.0) err_qr[3];\u000acx err_qr[3],err_qr[2];\u000acx err_qr[4],err_qr[2];\u000au3(1.570796326794897,0.0,0.0) err_qr[2];\u000ameasure err_qr[2] -> err_cr[2];\u000au3(1.570796326794897,0.0,0.0) err_qr[4];\u000ameasure err_qr[4] -> err_cr[4];\u000au3(-1.570796326794897,0.0,0.0) err_qr[3];\u000ameasure err_qr[3] -> err_cr[3];\u000a
p481
sg20
(lp482
F0.31195652173913047
aF0.38913043478260867
aF0.4304347826086956
aF0.5695652173913044
aF0.6108695652173913
aF0.6880434782608695
asg22
(lp483
F0.2921192921192922
aF0.2966742966742968
aF0.29742329742329754
aF0.7025767025767025
aF0.7033257033257032
aF0.7078807078807078
asg24
(lp484
F0.275762021815104
aF1.134464013796314
aF1.123992038284348
asa(dp485
g2
V\u000ainclude "qelib1.inc";\u000aqreg main_qr[5];\u000acreg main_cr[5];\u000au3(0.254818070791172,0.0,0.0) main_qr[3];\u000acx main_qr[3],main_qr[4];\u000au3(0.649262481741891,0.0,0.0) main_qr[4];\u000au3(0.673697091269811,0.0,0.0) main_qr[3];\u000acx main_qr[3],main_qr[2];\u000acx main_qr[4],main_qr[2];\u000ameasure main_qr[2] -> main_cr[2];\u000ameasure main_qr[4] -> main_cr[4];\u000ameasure main_qr[3] -> main_cr[3];\u000a
p486
sg4
(dp487
g6
L311L
sg7
L235L
sg8
L159L
sg9
L390L
sg10
L657L
sg11
L89L
sg12
L87L
sg13
L120L
ssg14
(lp488
F0.20975796900869942
aF0.22123587674052103
aF0.2341843335671914
aF0.7658156664328086
aF0.778764123259479
aF0.7902420309913005
asg16
(dp489
g6
L23L
sg7
L1255L
sg8
L77L
sg9
L44L
sg10
L194L
sg11
L57L
sg12
L219L
sg13
L179L
ssg18
V\u000ainclude "qelib1.inc";\u000aqreg err_qr[5];\u000acreg err_cr[5];\u000au3(0.254818070791172,0.0,0.0) err_qr[3];\u000acx err_qr[3],err_qr[4];\u000au3(0.649262481741891,0.0,0.0) err_qr[4];\u000au3(0.673697091269811,0.0,0.0) err_qr[3];\u000acx err_qr[3],err_qr[2];\u000acx err_qr[4],err_qr[2];\u000au3(1.570796326794897,0.0,0.0) err_qr[2];\u000ameasure err_qr[2] -> err_cr[2];\u000au3(1.570796326794897,0.0,0.0) err_qr[4];\u000ameasure err_qr[4] -> err_cr[4];\u000au3(-1.570796326794897,0.0,0.0) err_qr[3];\u000ameasure err_qr[3] -> err_cr[3];\u000a
p490
sg20
(lp491
F0.20194910665944776
aF0.21548456957227935
aF0.22360584731997835
aF0.7763941526800217
aF0.7845154304277207
aF0.7980508933405522
asg22
(lp492
F0.11459588540411458
aF0.12185787814212179
aF0.14120785879214115
aF0.8587921412078589
aF0.8781421218578782
aF0.8854041145958854
asg24
(lp493
F0.254818070791172
aF0.649262481741891
aF0.673697091269811
asa(dp494
g2
V\u000ainclude "qelib1.inc";\u000aqreg main_qr[5];\u000acreg main_cr[5];\u000au3(0.185004900711399,0.0,0.0) main_qr[3];\u000acx main_qr[3],main_qr[4];\u000au3(1.40673537710743,0.0,0.0) main_qr[4];\u000au3(1.37881010907552,0.0,0.0) main_qr[3];\u000acx main_qr[3],main_qr[2];\u000acx main_qr[4],main_qr[2];\u000ameasure main_qr[2] -> main_cr[2];\u000ameasure main_qr[4] -> main_cr[4];\u000ameasure main_qr[3] -> main_cr[3];\u000a
p495
sg4
(dp496
g6
L263L
sg7
L239L
sg8
L49L
sg9
L636L
sg10
L690L
sg11
L64L
sg12
L41L
sg13
L66L
ssg14
(lp497
F0.3683522755530853
aF0.46988052634122823
aF0.472848752393637
aF0.527151247606363
aF0.5301194736587718
aF0.6316477244469147
asg16
(dp498
g6
L25L
sg7
L575L
sg8
L57L
sg9
L46L
sg10
L374L
sg11
L77L
sg12
L592L
sg13
L302L
ssg18
V\u000ainclude "qelib1.inc";\u000aqreg err_qr[5];\u000acreg err_cr[5];\u000au3(0.185004900711399,0.0,0.0) err_qr[3];\u000acx err_qr[3],err_qr[4];\u000au3(1.40673537710743,0.0,0.0) err_qr[4];\u000au3(1.37881010907552,0.0,0.0) err_qr[3];\u000acx err_qr[3],err_qr[2];\u000acx err_qr[4],err_qr[2];\u000au3(1.570796326794897,0.0,0.0) err_qr[2];\u000ameasure err_qr[2] -> err_cr[2];\u000au3(1.570796326794897,0.0,0.0) err_qr[4];\u000ameasure err_qr[4] -> err_cr[4];\u000au3(-1.570796326794897,0.0,0.0) err_qr[3];\u000ameasure err_qr[3] -> err_cr[3];\u000a
p499
sg20
(lp500
F0.36679327183939225
aF0.475854584915898
aF0.48507867607162236
aF0.5149213239283776
aF0.5241454150841021
aF0.6332067281606077
asg22
(lp501
F0.39534460465539534
aF0.40622359377640616
aF0.4197305802694197
aF0.5802694197305803
aF0.5937764062235938
aF0.6046553953446047
asg24
(lp502
F0.185004900711399
aF1.40673537710743
aF1.37881010907552
asa(dp503
g2
V\u000ainclude "qelib1.inc";\u000aqreg main_qr[5];\u000acreg main_cr[5];\u000au3(0.952949771588904,0.0,0.0) main_qr[3];\u000acx main_qr[3],main_qr[4];\u000au3(1.570796326794897,0.0,0.0) main_qr[4];\u000au3(0.425860337486616,0.0,0.0) main_qr[3];\u000acx main_qr[3],main_qr[2];\u000acx main_qr[4],main_qr[2];\u000ameasure main_qr[2] -> main_cr[2];\u000ameasure main_qr[4] -> main_cr[4];\u000ameasure main_qr[3] -> main_cr[3];\u000a
p504
sg4
(dp505
g6
L294L
sg7
L209L
sg8
L125L
sg9
L347L
sg10
L558L
sg11
L153L
sg12
L150L
sg13
L212L
ssg14
(lp506
F0.32879422167074734
aF0.3375072187413187
aF0.42211646201216874
aF0.5778835379878312
aF0.6624927812586813
aF0.6712057783292527
asg16
(dp507
g6
L31L
sg7
L710L
sg8
L66L
sg9
L43L
sg10
L524L
sg11
L74L
sg12
L486L
sg13
L114L
ssg18
V\u000ainclude "qelib1.inc";\u000aqreg err_qr[5];\u000acreg err_cr[5];\u000au3(0.952949771588904,0.0,0.0) err_qr[3];\u000acx err_qr[3],err_qr[4];\u000au3(1.570796326794897,0.0,0.0) err_qr[4];\u000au3(0.425860337486616,0.0,0.0) err_qr[3];\u000acx err_qr[3],err_qr[2];\u000acx err_qr[4],err_qr[2];\u000au3(1.570796326794897,0.0,0.0) err_qr[2];\u000ameasure err_qr[2] -> err_cr[2];\u000au3(1.570796326794897,0.0,0.0) err_qr[4];\u000ameasure err_qr[4] -> err_cr[4];\u000au3(-1.570796326794897,0.0,0.0) err_qr[3];\u000ameasure err_qr[3] -> err_cr[3];\u000a
p508
sg20
(lp509
F0.3271537622682661
aF0.34787350054525623
aF0.4492911668484188
aF0.5507088331515813
aF0.6521264994547438
aF0.6728462377317339
asg22
(lp510
F0.23622900000000002
aF0.33163300000000007
aF0.5
aF0.5
aF0.6683669999999999
aF0.763771
asg24
(lp511
F0.952949771588904
aF1.570796326794897
aF0.425860337486616
asa(dp512
g2
V\u000ainclude "qelib1.inc";\u000aqreg main_qr[5];\u000acreg main_cr[5];\u000au3(0.066322511575785,0.0,0.0) main_qr[3];\u000acx main_qr[3],main_qr[4];\u000au3(1.45909525466726,0.0,0.0) main_qr[4];\u000au3(1.054178868204575,0.0,0.0) main_qr[3];\u000acx main_qr[3],main_qr[2];\u000acx main_qr[4],main_qr[2];\u000ameasure main_qr[2] -> main_cr[2];\u000ameasure main_qr[4] -> main_cr[4];\u000ameasure main_qr[3] -> main_cr[3];\u000a
p513
sg4
(dp514
g6
L353L
sg7
L248L
sg8
L60L
sg9
L505L
sg10
L714L
sg11
L65L
sg12
L52L
sg13
L51L
ssg14
(lp515
F0.34410287649717497
aF0.39604653878884877
aF0.4122125171173082
aF0.5877874828826918
aF0.6039534612111512
aF0.655897123502825
asg16
(dp516
g6
L34L
sg7
L620L
sg8
L71L
sg9
L54L
sg10
L575L
sg11
L71L
sg12
L426L
sg13
L197L
ssg18
V\u000ainclude "qelib1.inc";\u000aqreg err_qr[5];\u000acreg err_cr[5];\u000au3(0.066322511575785,0.0,0.0) err_qr[3];\u000acx err_qr[3],err_qr[4];\u000au3(1.45909525466726,0.0,0.0) err_qr[4];\u000au3(1.054178868204575,0.0,0.0) err_qr[3];\u000acx err_qr[3],err_qr[2];\u000acx err_qr[4],err_qr[2];\u000au3(1.570796326794897,0.0,0.0) err_qr[2];\u000ameasure err_qr[2] -> err_cr[2];\u000au3(1.570796326794897,0.0,0.0) err_qr[4];\u000ameasure err_qr[4] -> err_cr[4];\u000au3(-1.570796326794897,0.0,0.0) err_qr[3];\u000ameasure err_qr[3] -> err_cr[3];\u000a
p517
sg20
(lp518
F0.34268426842684274
aF0.4246424642464247
aF0.4493949394939494
aF0.5506050605060506
aF0.5753575357535753
aF0.6573157315731573
asg22
(lp519
F0.253572
aF0.44383800000000007
aF0.444388
aF0.555612
aF0.5561619999999999
aF0.746428
asg24
(lp520
F0.066322511575785
aF1.45909525466726
aF1.054178868204575
asa(dp521
g2
V\u000ainclude "qelib1.inc";\u000aqreg main_qr[5];\u000acreg main_cr[5];\u000au3(0.293215314335047,0.0,0.0) main_qr[3];\u000acx main_qr[3],main_qr[4];\u000au3(0.44331363000656,0.0,0.0) main_qr[4];\u000au3(0.436332312998582,0.0,0.0) main_qr[3];\u000acx main_qr[3],main_qr[2];\u000acx main_qr[4],main_qr[2];\u000ameasure main_qr[2] -> main_cr[2];\u000ameasure main_qr[4] -> main_cr[4];\u000ameasure main_qr[3] -> main_cr[3];\u000a
p522
sg4
(dp523
g6
L332L
sg7
L245L
sg8
L193L
sg9
L367L
sg10
L563L
sg11
L139L
sg12
L87L
sg13
L122L
ssg14
(lp524
F0.15906742928184572
aF0.17616055166717448
aF0.18537935726620144
aF0.8146206427337985
aF0.8238394483328255
aF0.8409325707181542
asg16
(dp525
g6
L10L
sg7
L1430L
sg8
L61L
sg9
L34L
sg10
L144L
sg11
L42L
sg12
L191L
sg13
L136L
ssg18
V\u000ainclude "qelib1.inc";\u000aqreg err_qr[5];\u000acreg err_cr[5];\u000au3(0.293215314335047,0.0,0.0) err_qr[3];\u000acx err_qr[3],err_qr[4];\u000au3(0.44331363000656,0.0,0.0) err_qr[4];\u000au3(0.436332312998582,0.0,0.0) err_qr[3];\u000acx err_qr[3],err_qr[2];\u000acx err_qr[4],err_qr[2];\u000au3(1.570796326794897,0.0,0.0) err_qr[2];\u000ameasure err_qr[2] -> err_cr[2];\u000au3(1.570796326794897,0.0,0.0) err_qr[4];\u000ameasure err_qr[4] -> err_cr[4];\u000au3(-1.570796326794897,0.0,0.0) err_qr[3];\u000ameasure err_qr[3] -> err_cr[3];\u000a
p526
sg20
(lp527
F0.14729089952656504
aF0.17201472908995263
aF0.17622304050499737
aF0.8237769594950026
aF0.8279852709100474
aF0.852709100473435
asg22
(lp528
F0.0644530000000001
aF0.066187
aF0.06761000000000006
aF0.9323899999999999
aF0.933813
aF0.9355469999999999
asg24
(lp529
F0.293215314335047
aF0.44331363000656
aF0.436332312998582
asa(dp530
g2
V\u000ainclude "qelib1.inc";\u000aqreg main_qr[5];\u000acreg main_cr[5];\u000au3(0.834267382453289,0.0,0.0) main_qr[3];\u000acx main_qr[3],main_qr[4];\u000au3(1.036725575684632,0.0,0.0) main_qr[4];\u000au3(0.502654824574367,0.0,0.0) main_qr[3];\u000acx main_qr[3],main_qr[2];\u000acx main_qr[4],main_qr[2];\u000ameasure main_qr[2] -> main_cr[2];\u000ameasure main_qr[4] -> main_cr[4];\u000ameasure main_qr[3] -> main_cr[3];\u000a
p531
sg4
(dp532
g6
L313L
sg7
L220L
sg8
L140L
sg9
L395L
sg10
L570L
sg11
L155L
sg12
L94L
sg13
L161L
ssg14
(lp533
F0.18119721195286578
aF0.320268719243225
aF0.41249950954029757
aF0.5875004904597024
aF0.679731280756775
aF0.8188027880471342
asg16
(dp534
g6
L26L
sg7
L999L
sg8
L52L
sg9
L51L
sg10
L248L
sg11
L88L
sg12
L519L
sg13
L65L
ssg18
V\u000ainclude "qelib1.inc";\u000aqreg err_qr[5];\u000acreg err_cr[5];\u000au3(0.834267382453289,0.0,0.0) err_qr[3];\u000acx err_qr[3],err_qr[4];\u000au3(1.036725575684632,0.0,0.0) err_qr[4];\u000au3(0.502654824574367,0.0,0.0) err_qr[3];\u000acx err_qr[3],err_qr[2];\u000acx err_qr[4],err_qr[2];\u000au3(1.570796326794897,0.0,0.0) err_qr[2];\u000ameasure err_qr[2] -> err_cr[2];\u000au3(1.570796326794897,0.0,0.0) err_qr[4];\u000ameasure err_qr[4] -> err_cr[4];\u000au3(-1.570796326794897,0.0,0.0) err_qr[3];\u000ameasure err_qr[3] -> err_cr[3];\u000a
p535
sg20
(lp536
F0.17094483888585477
aF0.3189513926815948
aF0.41889677771709455
aF0.5811032222829055
aF0.6810486073184052
aF0.8290551611141452
asg22
(lp537
F0.12336812336812342
aF0.20568320568320575
aF0.32903332903332905
aF0.670966670966671
aF0.7943167943167943
aF0.8766318766318766
asg24
(lp538
F0.834267382453289
aF1.036725575684632
aF0.502654824574367
asa(dp539
g2
V\u000ainclude "qelib1.inc";\u000aqreg main_qr[5];\u000acreg main_cr[5];\u000au3(1.560324351282931,0.0,0.0) main_qr[3];\u000acx main_qr[3],main_qr[4];\u000au3(1.570796326794897,0.0,0.0) main_qr[4];\u000au3(0.0,0.0,0.0) main_qr[3];\u000acx main_qr[3],main_qr[2];\u000acx main_qr[4],main_qr[2];\u000ameasure main_qr[2] -> main_cr[2];\u000ameasure main_qr[4] -> main_cr[4];\u000ameasure main_qr[3] -> main_cr[3];\u000a
p540
sg4
(dp541
g6
L212L
sg7
L152L
sg8
L259L
sg9
L230L
sg10
L340L
sg11
L265L
sg12
L292L
sg13
L298L
ssg14
(lp542
F0.44266904386377165
aF0.4452907060725418
aF0.48056051832285707
aF0.5194394816771429
aF0.5547092939274582
aF0.5573309561362284
asg16
(dp543
g6
L42L
sg7
L429L
sg8
L64L
sg9
L38L
sg10
L417L
sg11
L75L
sg12
L563L
sg13
L420L
ssg18
V\u000ainclude "qelib1.inc";\u000aqreg err_qr[5];\u000acreg err_cr[5];\u000au3(1.560324351282931,0.0,0.0) err_qr[3];\u000acx err_qr[3],err_qr[4];\u000au3(1.570796326794897,0.0,0.0) err_qr[4];\u000au3(0.0,0.0,0.0) err_qr[3];\u000acx err_qr[3],err_qr[2];\u000acx err_qr[4],err_qr[2];\u000au3(1.570796326794897,0.0,0.0) err_qr[2];\u000ameasure err_qr[2] -> err_cr[2];\u000au3(1.570796326794897,0.0,0.0) err_qr[4];\u000ameasure err_qr[4] -> err_cr[4];\u000au3(-1.570796326794897,0.0,0.0) err_qr[3];\u000ameasure err_qr[3] -> err_cr[3];\u000a
p544
sg20
(lp545
F0.4576271186440678
aF0.46254784034991797
aF0.4641880809185347
aF0.5358119190814653
aF0.5374521596500821
aF0.5423728813559322
asg22
(lp546
F0.494764
aF0.5
aF0.5
aF0.5
aF0.5
aF0.505236
asg24
(lp547
F1.560324351282931
aF1.570796326794897
aF0.0
asa(dp548
g2
V\u000ainclude "qelib1.inc";\u000aqreg main_qr[5];\u000acreg main_cr[5];\u000au3(0.366519142918809,0.0,0.0) main_qr[3];\u000acx main_qr[3],main_qr[4];\u000au3(1.424188669627373,0.0,0.0) main_qr[4];\u000au3(1.427679328131362,0.0,0.0) main_qr[3];\u000acx main_qr[3],main_qr[2];\u000acx main_qr[4],main_qr[2];\u000ameasure main_qr[2] -> main_cr[2];\u000ameasure main_qr[4] -> main_cr[4];\u000ameasure main_qr[3] -> main_cr[3];\u000a
p549
sg4
(dp550
g6
L327L
sg7
L253L
sg8
L77L
sg9
L555L
sg10
L592L
sg11
L87L
sg12
L51L
sg13
L106L
ssg14
(lp551
F0.31488730383527963
aF0.4661356623351568
aF0.49261096389139575
aF0.5073890361086043
aF0.5338643376648432
aF0.6851126961647204
asg16
(dp552
g6
L65L
sg7
L582L
sg8
L72L
sg9
L76L
sg10
L283L
sg11
L85L
sg12
L652L
sg13
L233L
ssg18
V\u000ainclude "qelib1.inc";\u000aqreg err_qr[5];\u000acreg err_cr[5];\u000au3(0.366519142918809,0.0,0.0) err_qr[3];\u000acx err_qr[3],err_qr[4];\u000au3(1.424188669627373,0.0,0.0) err_qr[4];\u000au3(1.427679328131362,0.0,0.0) err_qr[3];\u000acx err_qr[3],err_qr[2];\u000acx err_qr[4],err_qr[2];\u000au3(1.570796326794897,0.0,0.0) err_qr[2];\u000ameasure err_qr[2] -> err_cr[2];\u000au3(1.570796326794897,0.0,0.0) err_qr[4];\u000ameasure err_qr[4] -> err_cr[4];\u000au3(-1.570796326794897,0.0,0.0) err_qr[3];\u000ameasure err_qr[3] -> err_cr[3];\u000a
p553
sg20
(lp554
F0.2948571428571428
aF0.46571428571428575
aF0.49428571428571433
aF0.5057142857142857
aF0.5342857142857143
aF0.7051428571428572
asg22
(lp555
F0.31413268586731413
aF0.4318095681904318
aF0.4334225665774334
aF0.5665774334225666
aF0.5681904318095682
aF0.6858673141326859
asg24
(lp556
F0.366519142918809
aF1.424188669627373
aF1.427679328131362
asa(dp557
g2
V\u000ainclude "qelib1.inc";\u000aqreg main_qr[5];\u000acreg main_cr[5];\u000au3(0.261799387799149,0.0,0.0) main_qr[3];\u000acx main_qr[3],main_qr[4];\u000au3(1.473057888683214,0.0,0.0) main_qr[4];\u000au3(1.281071670963838,0.0,0.0) main_qr[3];\u000acx main_qr[3],main_qr[2];\u000acx main_qr[4],main_qr[2];\u000ameasure main_qr[2] -> main_cr[2];\u000ameasure main_qr[4] -> main_cr[4];\u000ameasure main_qr[3] -> main_cr[3];\u000a
p558
sg4
(dp559
g6
L295L
sg7
L252L
sg8
L82L
sg9
L570L
sg10
L637L
sg11
L70L
sg12
L55L
sg13
L87L
ssg14
(lp560
F0.3278747992534049
aF0.45383740410234963
aF0.457292832801426
aF0.5427071671985739
aF0.5461625958976504
aF0.6721252007465951
asg16
(dp561
g6
L61L
sg7
L602L
sg8
L54L
sg9
L86L
sg10
L364L
sg11
L97L
sg12
L583L
sg13
L201L
ssg18
V\u000ainclude "qelib1.inc";\u000aqreg err_qr[5];\u000acreg err_cr[5];\u000au3(0.261799387799149,0.0,0.0) err_qr[3];\u000acx err_qr[3],err_qr[4];\u000au3(1.473057888683214,0.0,0.0) err_qr[4];\u000au3(1.281071670963838,0.0,0.0) err_qr[3];\u000acx err_qr[3],err_qr[2];\u000acx err_qr[4],err_qr[2];\u000au3(1.570796326794897,0.0,0.0) err_qr[2];\u000ameasure err_qr[2] -> err_cr[2];\u000au3(1.570796326794897,0.0,0.0) err_qr[4];\u000ameasure err_qr[4] -> err_cr[4];\u000au3(-1.570796326794897,0.0,0.0) err_qr[3];\u000ameasure err_qr[3] -> err_cr[3];\u000a
p562
sg20
(lp563
F0.32285714285714284
aF0.44799999999999995
aF0.4588571428571429
aF0.5411428571428571
aF0.552
aF0.6771428571428572
asg22
(lp564
F0.362023
aF0.36263600000000007
aF0.452871
aF0.547129
aF0.6373639999999999
aF0.637977
asg24
(lp565
F0.261799387799149
aF1.473057888683214
aF1.281071670963838
asa(dp566
g2
V\u000ainclude "qelib1.inc";\u000aqreg main_qr[5];\u000acreg main_cr[5];\u000au3(0.045378560551853,0.0,0.0) main_qr[3];\u000acx main_qr[3],main_qr[4];\u000au3(1.504473815219112,0.0,0.0) main_qr[4];\u000au3(0.897099235525085,0.0,0.0) main_qr[3];\u000acx main_qr[3],main_qr[2];\u000acx main_qr[4],main_qr[2];\u000ameasure main_qr[2] -> main_cr[2];\u000ameasure main_qr[4] -> main_cr[4];\u000ameasure main_qr[3] -> main_cr[3];\u000a
p567
sg4
(dp568
g6
L342L
sg7
L248L
sg8
L65L
sg9
L518L
sg10
L704L
sg11
L66L
sg12
L51L
sg13
L54L
ssg14
(lp569
F0.2861367143264033
aF0.4109706471873942
aF0.419101359737398
aF0.580898640262602
aF0.5890293528126058
aF0.7138632856735967
asg16
(dp570
g6
L56L
sg7
L626L
sg8
L69L
sg9
L65L
sg10
L666L
sg11
L97L
sg12
L323L
sg13
L146L
ssg18
V\u000ainclude "qelib1.inc";\u000aqreg err_qr[5];\u000acreg err_cr[5];\u000au3(0.045378560551853,0.0,0.0) err_qr[3];\u000acx err_qr[3],err_qr[4];\u000au3(1.504473815219112,0.0,0.0) err_qr[4];\u000au3(0.897099235525085,0.0,0.0) err_qr[3];\u000acx err_qr[3],err_qr[2];\u000acx err_qr[4],err_qr[2];\u000au3(1.570796326794897,0.0,0.0) err_qr[2];\u000ameasure err_qr[2] -> err_cr[2];\u000au3(1.570796326794897,0.0,0.0) err_qr[4];\u000ameasure err_qr[4] -> err_cr[4];\u000au3(-1.570796326794897,0.0,0.0) err_qr[3];\u000ameasure err_qr[3] -> err_cr[3];\u000a
p571
sg20
(lp572
F0.2663259511641113
aF0.4383872799545713
aF0.4611016467915957
aF0.5388983532084043
aF0.5616127200454287
aF0.7336740488358887
asg22
(lp573
F0.18838181161818834
aF0.46163953836046157
aF0.46689753310246684
aF0.5331024668975332
aF0.5383604616395384
aF0.8116181883818117
asg24
(lp574
F0.045378560551853
aF1.504473815219112
aF0.897099235525085
asa.