(lp0
(dp1
Videal
p2
(lp3
F0.0
aF0.0
aF0.0
aF1.0
aF1.0
aF1.0
asValgorithm
p4
Vry1p_edge_sparrow
p5
sVbackend
p6
Vibmqx2
p7
sVshots
p8
L1024L
sVmain-counts
p9
(dp10
Vdate
p11
V2018-03-08T20:12:51.459Z
p12
sVcounts
p13
(dp14
V00001
p15
L38L
sV00110
p16
L23L
sV00000
p17
L911L
sV00111
p18
L5L
sV00011
p19
L1L
sV00101
p20
L2L
sV00100
p21
L25L
sV00010
p22
L19L
ssVtime
p23
F23.4776611328125
ssVexp-ON
p24
(lp25
F0.044921875
aF0.046365958073977254
aF0.049490221339264034
aF0.9505097786607359
aF0.9536340419260229
aF0.955078125
asVrun
p26
L0L
sVparameters
p27
(lp28
F0.0
asVcombined
p29
I00
sVstatus
p30
VCOMPLETED
p31
sVqobj
p32
(dp33
Vconfig
p34
(dp35
g8
L1024L
sVmax_credits
p36
L10L
sg6
g7
ssVcircuits
p37
(lp38
(dp39
Vcompiled_circuit_qasm
p40
VOPENQASM 2.0;\u000ainclude "qelib1.inc";\u000aqreg main_qr[3];\u000acreg main_cr[3];\u000au3(0.0,0.0,0.0) main_qr[1];\u000acx main_qr[1],main_qr[2];\u000ameasure main_qr[1] -> main_cr[1];\u000ameasure main_qr[2] -> main_cr[2];\u000ameasure main_qr[0] -> main_cr[0];\u000a
p41
sg34
(dp42
Vbasis_gates
p43
Vu1,u2,u3,cx,id
p44
sVlayout
p45
NsVseed
p46
NsVcoupling_map
p47
NssVname
p48
Vmain
p49
sVcompiled_circuit
p50
c_codecs
encode
p51
(V{"operations": [{"params": [0.0, 0.0, 0.0], "qubits": [1], "texparams": ["0.00000000", "0.00000000", "0.00000000"], "name": "u3"}, {"params": [], "qubits": [1, 2], "texparams": [], "name": "cx"}, {"qubits": [1], "clbits": [1], "name": "measure"}, {"qubits": [2], "clbits": [2], "name": "measure"}, {"qubits": [0], "clbits": [0], "name": "measure"}], "header": {"number_of_clbits": 3, "qubit_labels": [["main_qr", 0], ["main_qr", 1], ["main_qr", 2]], "clbit_labels": [["main_cr", 3]], "number_of_qubits": 3}}
p52
Vlatin1
p53
tp54
Rp55
sa(dp56
g40
VOPENQASM 2.0;\u000ainclude "qelib1.inc";\u000aqreg err_qr[3];\u000acreg err_cr[3];\u000au3(0.0,0.0,0.0) err_qr[1];\u000acx err_qr[1],err_qr[2];\u000au3(-1.570796326794897,0.0,0.0) err_qr[1];\u000ameasure err_qr[1] -> err_cr[1];\u000au3(1.570796326794897,0.0,0.0) err_qr[2];\u000ameasure err_qr[2] -> err_cr[2];\u000au3(1.570796326794897,0.0,0.0) err_qr[0];\u000ameasure err_qr[0] -> err_cr[0];\u000a
p57
sg34
g42
sg48
Verr
p58
sg50
g51
(V{"operations": [{"params": [0.0, 0.0, 0.0], "qubits": [1], "texparams": ["0.00000000", "0.00000000", "0.00000000"], "name": "u3"}, {"params": [], "qubits": [1, 2], "texparams": [], "name": "cx"}, {"params": [-1.570796326794897, 0.0, 0.0], "qubits": [1], "texparams": ["-(1.57079633)", "0.00000000", "0.00000000"], "name": "u3"}, {"qubits": [1], "clbits": [1], "name": "measure"}, {"params": [1.570796326794897, 0.0, 0.0], "qubits": [2], "texparams": ["1.57079633", "0.00000000", "0.00000000"], "name": "u3"}, {"qubits": [2], "clbits": [2], "name": "measure"}, {"params": [1.570796326794897, 0.0, 0.0], "qubits": [0], "texparams": ["1.57079633", "0.00000000", "0.00000000"], "name": "u3"}, {"qubits": [0], "clbits": [0], "name": "measure"}], "header": {"number_of_clbits": 3, "qubit_labels": [["err_qr", 0], ["err_qr", 1], ["err_qr", 2]], "clbit_labels": [["err_cr", 3]], "number_of_qubits": 3}}
p59
g53
tp60
Rp61
sasVid
p62
VSgRvz3R33JccBpINfnoKgbQNcB4Zzv
p63
ssg62
Vnull
p64
sVorder
p65
(lp66
L1L
aL2L
asVerr-counts
p67
(dp68
g11
V2018-03-08T20:12:51.587Z
p69
sg13
(dp70
g15
L114L
sg16
L137L
sg17
L126L
sg18
L144L
sg19
L98L
sg20
L156L
sg21
L138L
sg22
L111L
ssg23
F23.4776611328125
ssa(dp71
g2
(lp72
F0.0
aF0.5
aF0.5
aF0.5
aF0.5
aF1.0
asg4
g5
sg6
g7
sg8
L1024L
sVmain-counts
p73
(dp74
Vdate
p75
V2018-03-08T20:16:35.532Z
p76
sVcounts
p77
(dp78
V00001
p79
L24L
sV00110
p80
L485L
sV00000
p81
L433L
sV00111
p82
L24L
sV00011
p83
L4L
sV00101
p84
L3L
sV00100
p85
L24L
sV00010
p86
L27L
ssVtime
p87
F23.680956840515137
ssg24
(lp88
F0.053364894141039856
aF0.4423249099209633
aF0.45105482778850914
aF0.5489451722114909
aF0.5576750900790367
aF0.9466351058589602
asg26
L0L
sg27
(lp89
F45.0
asg29
I00
sg30
VCOMPLETED
p90
sg32
(dp91
g34
(dp92
g8
L1024L
sg36
L10L
sg6
g7
ssg37
(lp93
(dp94
g40
VOPENQASM 2.0;\u000ainclude "qelib1.inc";\u000aqreg main_qr[3];\u000acreg main_cr[3];\u000au3(1.570796326794897,0.0,0.0) main_qr[1];\u000acx main_qr[1],main_qr[2];\u000ameasure main_qr[1] -> main_cr[1];\u000ameasure main_qr[2] -> main_cr[2];\u000ameasure main_qr[0] -> main_cr[0];\u000a
p95
sg34
(dp96
g43
g44
sg45
Nsg46
Nsg47
Nssg48
g49
sg50
g51
(V{"operations": [{"params": [1.570796326794897, 0.0, 0.0], "qubits": [1], "texparams": ["1.57079633", "0.00000000", "0.00000000"], "name": "u3"}, {"params": [], "qubits": [1, 2], "texparams": [], "name": "cx"}, {"qubits": [1], "clbits": [1], "name": "measure"}, {"qubits": [2], "clbits": [2], "name": "measure"}, {"qubits": [0], "clbits": [0], "name": "measure"}], "header": {"number_of_clbits": 3, "qubit_labels": [["main_qr", 0], ["main_qr", 1], ["main_qr", 2]], "clbit_labels": [["main_cr", 3]], "number_of_qubits": 3}}
p97
g53
tp98
Rp99
sa(dp100
g40
VOPENQASM 2.0;\u000ainclude "qelib1.inc";\u000aqreg err_qr[3];\u000acreg err_cr[3];\u000au3(1.570796326794897,0.0,0.0) err_qr[1];\u000acx err_qr[1],err_qr[2];\u000au3(-1.570796326794897,0.0,0.0) err_qr[1];\u000ameasure err_qr[1] -> err_cr[1];\u000au3(1.570796326794897,0.0,0.0) err_qr[2];\u000ameasure err_qr[2] -> err_cr[2];\u000au3(1.570796326794897,0.0,0.0) err_qr[0];\u000ameasure err_qr[0] -> err_cr[0];\u000a
p101
sg34
g96
sg48
g58
sg50
g51
(V{"operations": [{"params": [1.570796326794897, 0.0, 0.0], "qubits": [1], "texparams": ["1.57079633", "0.00000000", "0.00000000"], "name": "u3"}, {"params": [], "qubits": [1, 2], "texparams": [], "name": "cx"}, {"params": [-1.570796326794897, 0.0, 0.0], "qubits": [1], "texparams": ["-(1.57079633)", "0.00000000", "0.00000000"], "name": "u3"}, {"qubits": [1], "clbits": [1], "name": "measure"}, {"params": [1.570796326794897, 0.0, 0.0], "qubits": [2], "texparams": ["1.57079633", "0.00000000", "0.00000000"], "name": "u3"}, {"qubits": [2], "clbits": [2], "name": "measure"}, {"params": [1.570796326794897, 0.0, 0.0], "qubits": [0], "texparams": ["1.57079633", "0.00000000", "0.00000000"], "name": "u3"}, {"qubits": [0], "clbits": [0], "name": "measure"}], "header": {"number_of_clbits": 3, "qubit_labels": [["err_qr", 0], ["err_qr", 1], ["err_qr", 2]], "clbit_labels": [["err_cr", 3]], "number_of_qubits": 3}}
p102
g53
tp103
Rp104
sasg62
VDv1jJhqaWWKYpyOFD51BhCT5UIlqLg
p105
ssg62
g64
sg65
(lp106
L1L
aL2L
asVerr-counts
p107
(dp108
g75
V2018-03-08T20:16:35.651Z
p109
sg77
(dp110
g79
L19L
sg80
L18L
sg81
L18L
sg82
L11L
sg83
L226L
sg84
L274L
sg85
L253L
sg86
L205L
ssg87
F23.680956840515137
ssa(dp111
g2
(lp112
F0.0
aF0.17593999999999999
aF0.17593999999999999
aF0.82406
aF0.82406
aF1.0
asg4
g5
sg6
g7
sg8
L1024L
sVmain-counts
p113
(dp114
Vdate
p115
V2018-03-08T20:19:12.720Z
p116
sVcounts
p117
(dp118
V00001
p119
L44L
sV00110
p120
L179L
sV00000
p121
L740L
sV00111
p122
L9L
sV00011
p123
L2L
sV00101
p124
L3L
sV00100
p125
L25L
sV00010
p126
L22L
ssVtime
p127
F23.632113933563232
ssg24
(lp128
F0.05612038369673783
aF0.20492941456216784
aF0.2080421085149596
aF0.7919578914850404
aF0.7950705854378322
aF0.9438796163032621
asg26
L0L
sg27
(lp129
F24.8
asg29
I00
sg30
VCOMPLETED
p130
sg32
(dp131
g34
(dp132
g8
L1024L
sg36
L10L
sg6
g7
ssg37
(lp133
(dp134
g40
VOPENQASM 2.0;\u000ainclude "qelib1.inc";\u000aqreg main_qr[3];\u000acreg main_cr[3];\u000au3(0.865683308989187,0.0,0.0) main_qr[1];\u000acx main_qr[1],main_qr[2];\u000ameasure main_qr[1] -> main_cr[1];\u000ameasure main_qr[2] -> main_cr[2];\u000ameasure main_qr[0] -> main_cr[0];\u000a
p135
sg34
(dp136
g43
g44
sg45
Nsg46
Nsg47
Nssg48
g49
sg50
g51
(V{"operations": [{"params": [0.865683308989187, 0.0, 0.0], "qubits": [1], "texparams": ["0.86568331", "0.00000000", "0.00000000"], "name": "u3"}, {"params": [], "qubits": [1, 2], "texparams": [], "name": "cx"}, {"qubits": [1], "clbits": [1], "name": "measure"}, {"qubits": [2], "clbits": [2], "name": "measure"}, {"qubits": [0], "clbits": [0], "name": "measure"}], "header": {"number_of_clbits": 3, "qubit_labels": [["main_qr", 0], ["main_qr", 1], ["main_qr", 2]], "clbit_labels": [["main_cr", 3]], "number_of_qubits": 3}}
p137
g53
tp138
Rp139
sa(dp140
g40
VOPENQASM 2.0;\u000ainclude "qelib1.inc";\u000aqreg err_qr[3];\u000acreg err_cr[3];\u000au3(0.865683308989187,0.0,0.0) err_qr[1];\u000acx err_qr[1],err_qr[2];\u000au3(-1.570796326794897,0.0,0.0) err_qr[1];\u000ameasure err_qr[1] -> err_cr[1];\u000au3(1.570796326794897,0.0,0.0) err_qr[2];\u000ameasure err_qr[2] -> err_cr[2];\u000au3(1.570796326794897,0.0,0.0) err_qr[0];\u000ameasure err_qr[0] -> err_cr[0];\u000a
p141
sg34
g136
sg48
g58
sg50
g51
(V{"operations": [{"params": [0.865683308989187, 0.0, 0.0], "qubits": [1], "texparams": ["0.86568331", "0.00000000", "0.00000000"], "name": "u3"}, {"params": [], "qubits": [1, 2], "texparams": [], "name": "cx"}, {"params": [-1.570796326794897, 0.0, 0.0], "qubits": [1], "texparams": ["-(1.57079633)", "0.00000000", "0.00000000"], "name": "u3"}, {"qubits": [1], "clbits": [1], "name": "measure"}, {"params": [1.570796326794897, 0.0, 0.0], "qubits": [2], "texparams": ["1.57079633", "0.00000000", "0.00000000"], "name": "u3"}, {"qubits": [2], "clbits": [2], "name": "measure"}, {"params": [1.570796326794897, 0.0, 0.0], "qubits": [0], "texparams": ["1.57079633", "0.00000000", "0.00000000"], "name": "u3"}, {"qubits": [0], "clbits": [0], "name": "measure"}], "header": {"number_of_clbits": 3, "qubit_labels": [["err_qr", 0], ["err_qr", 1], ["err_qr", 2]], "clbit_labels": [["err_cr", 3]], "number_of_qubits": 3}}
p142
g53
tp143
Rp144
sasg62
VqqJAyQ61WGSOO9MZRhat0xEYeOJMSl
p145
ssg62
g64
sg65
(lp146
L1L
aL2L
asVerr-counts
p147
(dp148
g115
V2018-03-08T20:19:12.820Z
p149
sg117
(dp150
g119
L53L
sg120
L43L
sg121
L36L
sg122
L52L
sg123
L198L
sg124
L231L
sg125
L228L
sg126
L183L
ssg127
F23.632113933563232
ssa(dp151
g2
(lp152
F0.0
aF0.39092800000000005
aF0.39092800000000005
aF0.609072
aF0.609072
aF1.0
asg4
g5
sg6
g7
sg8
L1024L
sVmain-counts
p153
(dp154
Vdate
p155
V2018-03-08T20:21:33.630Z
p156
sVcounts
p157
(dp158
V00001
p159
L42L
sV00110
p160
L323L
sV00000
p161
L576L
sV00111
p162
L27L
sV00011
p163
L1L
sV00101
p164
L1L
sV00100
p165
L27L
sV00010
p166
L27L
ssVtime
p167
F23.73282790184021
ssg24
(lp168
F0.06869865391439606
aF0.3672269992100445
aF0.36842836099141174
aF0.6315716390085883
aF0.6327730007899555
aF0.9313013460856039
asg26
L0L
sg27
(lp169
F38.7
asg29
I00
sg30
VCOMPLETED
p170
sg32
(dp171
g34
(dp172
g8
L1024L
sg36
L10L
sg6
g7
ssg37
(lp173
(dp174
g40
VOPENQASM 2.0;\u000ainclude "qelib1.inc";\u000aqreg main_qr[3];\u000acreg main_cr[3];\u000au3(1.350884841043611,0.0,0.0) main_qr[1];\u000acx main_qr[1],main_qr[2];\u000ameasure main_qr[1] -> main_cr[1];\u000ameasure main_qr[2] -> main_cr[2];\u000ameasure main_qr[0] -> main_cr[0];\u000a
p175
sg34
(dp176
g43
g44
sg45
Nsg46
Nsg47
Nssg48
g49
sg50
g51
(V{"operations": [{"params": [1.350884841043611, 0.0, 0.0], "qubits": [1], "texparams": ["1.35088484", "0.00000000", "0.00000000"], "name": "u3"}, {"params": [], "qubits": [1, 2], "texparams": [], "name": "cx"}, {"qubits": [1], "clbits": [1], "name": "measure"}, {"qubits": [2], "clbits": [2], "name": "measure"}, {"qubits": [0], "clbits": [0], "name": "measure"}], "header": {"number_of_clbits": 3, "qubit_labels": [["main_qr", 0], ["main_qr", 1], ["main_qr", 2]], "clbit_labels": [["main_cr", 3]], "number_of_qubits": 3}}
p177
g53
tp178
Rp179
sa(dp180
g40
VOPENQASM 2.0;\u000ainclude "qelib1.inc";\u000aqreg err_qr[3];\u000acreg err_cr[3];\u000au3(1.350884841043611,0.0,0.0) err_qr[1];\u000acx err_qr[1],err_qr[2];\u000au3(-1.570796326794897,0.0,0.0) err_qr[1];\u000ameasure err_qr[1] -> err_cr[1];\u000au3(1.570796326794897,0.0,0.0) err_qr[2];\u000ameasure err_qr[2] -> err_cr[2];\u000au3(1.570796326794897,0.0,0.0) err_qr[0];\u000ameasure err_qr[0] -> err_cr[0];\u000a
p181
sg34
g176
sg48
g58
sg50
g51
(V{"operations": [{"params": [1.350884841043611, 0.0, 0.0], "qubits": [1], "texparams": ["1.35088484", "0.00000000", "0.00000000"], "name": "u3"}, {"params": [], "qubits": [1, 2], "texparams": [], "name": "cx"}, {"params": [-1.570796326794897, 0.0, 0.0], "qubits": [1], "texparams": ["-(1.57079633)", "0.00000000", "0.00000000"], "name": "u3"}, {"qubits": [1], "clbits": [1], "name": "measure"}, {"params": [1.570796326794897, 0.0, 0.0], "qubits": [2], "texparams": ["1.57079633", "0.00000000", "0.00000000"], "name": "u3"}, {"qubits": [2], "clbits": [2], "name": "measure"}, {"params": [1.570796326794897, 0.0, 0.0], "qubits": [0], "texparams": ["1.57079633", "0.00000000", "0.00000000"], "name": "u3"}, {"qubits": [0], "clbits": [0], "name": "measure"}], "header": {"number_of_clbits": 3, "qubit_labels": [["err_qr", 0], ["err_qr", 1], ["err_qr", 2]], "clbit_labels": [["err_cr", 3]], "number_of_qubits": 3}}
p182
g53
tp183
Rp184
sasg62
VzQwPaeOHpocLRWBB1KnZBafZNm0sQv
p185
ssg62
g64
sg65
(lp186
L1L
aL2L
asVerr-counts
p187
(dp188
g155
V2018-03-08T20:21:33.733Z
p189
sg157
(dp190
g159
L17L
sg160
L19L
sg161
L12L
sg162
L19L
sg163
L247L
sg164
L253L
sg165
L244L
sg166
L213L
ssg167
F23.73282790184021
ssa(dp191
g2
(lp192
F0.0
aF0.277682
aF0.277682
aF0.722318
aF0.722318
aF1.0
asg4
g5
sg6
g7
sg8
L1024L
sVmain-counts
p193
(dp194
Vdate
p195
V2018-03-08T20:23:54.479Z
p196
sVcounts
p197
(dp198
V00001
p199
L53L
sV00110
p200
L263L
sV00000
p201
L645L
sV00111
p202
L14L
sV00011
p203
L1L
sV00101
p204
L4L
sV00100
p205
L23L
sV00010
p206
L21L
ssVtime
p207
F23.836538076400757
ssg24
(lp208
F0.06938022832625572
aF0.2909836838077699
aF0.2956369423345332
aF0.7043630576654668
aF0.7090163161922302
aF0.9306197716737443
asg26
L0L
sg27
(lp209
F31.8
asg29
I00
sg30
VCOMPLETED
p210
sg32
(dp211
g34
(dp212
g8
L1024L
sg36
L10L
sg6
g7
ssg37
(lp213
(dp214
g40
VOPENQASM 2.0;\u000ainclude "qelib1.inc";\u000aqreg main_qr[3];\u000acreg main_cr[3];\u000au3(1.110029404268394,0.0,0.0) main_qr[1];\u000acx main_qr[1],main_qr[2];\u000ameasure main_qr[1] -> main_cr[1];\u000ameasure main_qr[2] -> main_cr[2];\u000ameasure main_qr[0] -> main_cr[0];\u000a
p215
sg34
(dp216
g43
g44
sg45
Nsg46
Nsg47
Nssg48
g49
sg50
g51
(V{"operations": [{"params": [1.110029404268394, 0.0, 0.0], "qubits": [1], "texparams": ["1.11002940", "0.00000000", "0.00000000"], "name": "u3"}, {"params": [], "qubits": [1, 2], "texparams": [], "name": "cx"}, {"qubits": [1], "clbits": [1], "name": "measure"}, {"qubits": [2], "clbits": [2], "name": "measure"}, {"qubits": [0], "clbits": [0], "name": "measure"}], "header": {"number_of_clbits": 3, "qubit_labels": [["main_qr", 0], ["main_qr", 1], ["main_qr", 2]], "clbit_labels": [["main_cr", 3]], "number_of_qubits": 3}}
p217
g53
tp218
Rp219
sa(dp220
g40
VOPENQASM 2.0;\u000ainclude "qelib1.inc";\u000aqreg err_qr[3];\u000acreg err_cr[3];\u000au3(1.110029404268394,0.0,0.0) err_qr[1];\u000acx err_qr[1],err_qr[2];\u000au3(-1.570796326794897,0.0,0.0) err_qr[1];\u000ameasure err_qr[1] -> err_cr[1];\u000au3(1.570796326794897,0.0,0.0) err_qr[2];\u000ameasure err_qr[2] -> err_cr[2];\u000au3(1.570796326794897,0.0,0.0) err_qr[0];\u000ameasure err_qr[0] -> err_cr[0];\u000a
p221
sg34
g216
sg48
g58
sg50
g51
(V{"operations": [{"params": [1.110029404268394, 0.0, 0.0], "qubits": [1], "texparams": ["1.11002940", "0.00000000", "0.00000000"], "name": "u3"}, {"params": [], "qubits": [1, 2], "texparams": [], "name": "cx"}, {"params": [-1.570796326794897, 0.0, 0.0], "qubits": [1], "texparams": ["-(1.57079633)", "0.00000000", "0.00000000"], "name": "u3"}, {"qubits": [1], "clbits": [1], "name": "measure"}, {"params": [1.570796326794897, 0.0, 0.0], "qubits": [2], "texparams": ["1.57079633", "0.00000000", "0.00000000"], "name": "u3"}, {"qubits": [2], "clbits": [2], "name": "measure"}, {"params": [1.570796326794897, 0.0, 0.0], "qubits": [0], "texparams": ["1.57079633", "0.00000000", "0.00000000"], "name": "u3"}, {"qubits": [0], "clbits": [0], "name": "measure"}], "header": {"number_of_clbits": 3, "qubit_labels": [["err_qr", 0], ["err_qr", 1], ["err_qr", 2]], "clbit_labels": [["err_cr", 3]], "number_of_qubits": 3}}
p222
g53
tp223
Rp224
sasg62
VvpafDZ9fSplZvXDSJNwlSF1NZPLPiG
p225
ssg62
g64
sg65
(lp226
L1L
aL2L
asVerr-counts
p227
(dp228
g195
V2018-03-08T20:23:54.531Z
p229
sg197
(dp230
g199
L35L
sg200
L35L
sg201
L20L
sg202
L22L
sg203
L232L
sg204
L252L
sg205
L226L
sg206
L202L
ssg207
F23.836538076400757
ssa(dp231
g2
(lp232
F0.0
aF0.06017600000000001
aF0.06017600000000001
aF0.939824
aF0.939824
aF1.0
asg4
g5
sg6
g7
sg8
L1024L
sVmain-counts
p233
(dp234
Vdate
p235
V2018-03-08T20:26:31.682Z
p236
sVcounts
p237
(dp238
V00001
p239
L45L
sV00110
p240
L79L
sV00000
p241
L853L
sV00111
p242
L5L
sV00101
p243
L2L
sV00100
p244
L18L
sV00010
p245
L22L
ssVtime
p246
F23.61499309539795
ssg24
(lp247
F0.05071332035346018
aF0.09833947572880342
aF0.1023615453238872
aF0.8976384546761128
aF0.9016605242711966
aF0.9492866796465398
asg26
L0L
sg27
(lp248
F14.2
asg29
I00
sg30
VCOMPLETED
p249
sg32
(dp250
g34
(dp251
g8
L1024L
sg36
L10L
sg6
g7
ssg37
(lp252
(dp253
g40
VOPENQASM 2.0;\u000ainclude "qelib1.inc";\u000aqreg main_qr[3];\u000acreg main_cr[3];\u000au3(0.49567350756639,0.0,0.0) main_qr[1];\u000acx main_qr[1],main_qr[2];\u000ameasure main_qr[1] -> main_cr[1];\u000ameasure main_qr[2] -> main_cr[2];\u000ameasure main_qr[0] -> main_cr[0];\u000a
p254
sg34
(dp255
g43
g44
sg45
Nsg46
Nsg47
Nssg48
g49
sg50
g51
(V{"operations": [{"params": [0.49567350756639, 0.0, 0.0], "qubits": [1], "texparams": ["0.49567351", "0.00000000", "0.00000000"], "name": "u3"}, {"params": [], "qubits": [1, 2], "texparams": [], "name": "cx"}, {"qubits": [1], "clbits": [1], "name": "measure"}, {"qubits": [2], "clbits": [2], "name": "measure"}, {"qubits": [0], "clbits": [0], "name": "measure"}], "header": {"number_of_clbits": 3, "qubit_labels": [["main_qr", 0], ["main_qr", 1], ["main_qr", 2]], "clbit_labels": [["main_cr", 3]], "number_of_qubits": 3}}
p256
g53
tp257
Rp258
sa(dp259
g40
VOPENQASM 2.0;\u000ainclude "qelib1.inc";\u000aqreg err_qr[3];\u000acreg err_cr[3];\u000au3(0.49567350756639,0.0,0.0) err_qr[1];\u000acx err_qr[1],err_qr[2];\u000au3(-1.570796326794897,0.0,0.0) err_qr[1];\u000ameasure err_qr[1] -> err_cr[1];\u000au3(1.570796326794897,0.0,0.0) err_qr[2];\u000ameasure err_qr[2] -> err_cr[2];\u000au3(1.570796326794897,0.0,0.0) err_qr[0];\u000ameasure err_qr[0] -> err_cr[0];\u000a
p260
sg34
g255
sg48
g58
sg50
g51
(V{"operations": [{"params": [0.49567350756639, 0.0, 0.0], "qubits": [1], "texparams": ["0.49567351", "0.00000000", "0.00000000"], "name": "u3"}, {"params": [], "qubits": [1, 2], "texparams": [], "name": "cx"}, {"params": [-1.570796326794897, 0.0, 0.0], "qubits": [1], "texparams": ["-(1.57079633)", "0.00000000", "0.00000000"], "name": "u3"}, {"qubits": [1], "clbits": [1], "name": "measure"}, {"params": [1.570796326794897, 0.0, 0.0], "qubits": [2], "texparams": ["1.57079633", "0.00000000", "0.00000000"], "name": "u3"}, {"qubits": [2], "clbits": [2], "name": "measure"}, {"params": [1.570796326794897, 0.0, 0.0], "qubits": [0], "texparams": ["1.57079633", "0.00000000", "0.00000000"], "name": "u3"}, {"qubits": [0], "clbits": [0], "name": "measure"}], "header": {"number_of_clbits": 3, "qubit_labels": [["err_qr", 0], ["err_qr", 1], ["err_qr", 2]], "clbit_labels": [["err_cr", 3]], "number_of_qubits": 3}}
p261
g53
tp262
Rp263
sasg62
VyMssWg7JiLug7JCqjwm9o5aN8kHwVT
p264
ssg62
g64
sg65
(lp265
L1L
aL2L
asVerr-counts
p266
(dp267
g235
V2018-03-08T20:26:31.805Z
p268
sg237
(dp269
g239
L57L
sg240
L79L
sg241
L79L
sg242
L78L
sV00011
p270
L162L
sg243
L207L
sg244
L200L
sg245
L162L
ssg246
F23.61499309539795
ssa(dp271
g2
(lp272
F0.0
aF0.11923100000000009
aF0.11923100000000009
aF0.8807689999999999
aF0.8807689999999999
aF1.0
asg4
g5
sg6
g7
sg8
L1024L
sVmain-counts
p273
(dp274
Vdate
p275
V2018-03-08T20:31:22.873Z
p276
sVcounts
p277
(dp278
V00001
p279
L48L
sV00110
p280
L118L
sV00000
p281
L793L
sV00011
p282
L2L
sV00111
p283
L9L
sV00100
p284
L29L
sV00010
p285
L25L
ssVtime
p286
F23.714350938796997
ssg24
(lp287
F0.05644492548728905
aF0.1476016338581113
aF0.1488174796524515
aF0.8511825203475484
aF0.8523983661418887
aF0.943555074512711
asg26
L0L
sg27
(lp288
F20.2
asg29
I00
sg30
VCOMPLETED
p289
sg32
(dp290
g34
(dp291
g8
L1024L
sg36
L10L
sg6
g7
ssg37
(lp292
(dp293
g40
VOPENQASM 2.0;\u000ainclude "qelib1.inc";\u000aqreg main_qr[3];\u000acreg main_cr[3];\u000au3(0.705113017805709,0.0,0.0) main_qr[1];\u000acx main_qr[1],main_qr[2];\u000ameasure main_qr[1] -> main_cr[1];\u000ameasure main_qr[2] -> main_cr[2];\u000ameasure main_qr[0] -> main_cr[0];\u000a
p294
sg34
(dp295
g43
g44
sg45
Nsg46
Nsg47
Nssg48
g49
sg50
g51
(V{"operations": [{"params": [0.705113017805709, 0.0, 0.0], "qubits": [1], "texparams": ["0.70511302", "0.00000000", "0.00000000"], "name": "u3"}, {"params": [], "qubits": [1, 2], "texparams": [], "name": "cx"}, {"qubits": [1], "clbits": [1], "name": "measure"}, {"qubits": [2], "clbits": [2], "name": "measure"}, {"qubits": [0], "clbits": [0], "name": "measure"}], "header": {"number_of_clbits": 3, "qubit_labels": [["main_qr", 0], ["main_qr", 1], ["main_qr", 2]], "clbit_labels": [["main_cr", 3]], "number_of_qubits": 3}}
p296
g53
tp297
Rp298
sa(dp299
g40
VOPENQASM 2.0;\u000ainclude "qelib1.inc";\u000aqreg err_qr[3];\u000acreg err_cr[3];\u000au3(0.705113017805709,0.0,0.0) err_qr[1];\u000acx err_qr[1],err_qr[2];\u000au3(-1.570796326794897,0.0,0.0) err_qr[1];\u000ameasure err_qr[1] -> err_cr[1];\u000au3(1.570796326794897,0.0,0.0) err_qr[2];\u000ameasure err_qr[2] -> err_cr[2];\u000au3(1.570796326794897,0.0,0.0) err_qr[0];\u000ameasure err_qr[0] -> err_cr[0];\u000a
p300
sg34
g295
sg48
g58
sg50
g51
(V{"operations": [{"params": [0.705113017805709, 0.0, 0.0], "qubits": [1], "texparams": ["0.70511302", "0.00000000", "0.00000000"], "name": "u3"}, {"params": [], "qubits": [1, 2], "texparams": [], "name": "cx"}, {"params": [-1.570796326794897, 0.0, 0.0], "qubits": [1], "texparams": ["-(1.57079633)", "0.00000000", "0.00000000"], "name": "u3"}, {"qubits": [1], "clbits": [1], "name": "measure"}, {"params": [1.570796326794897, 0.0, 0.0], "qubits": [2], "texparams": ["1.57079633", "0.00000000", "0.00000000"], "name": "u3"}, {"qubits": [2], "clbits": [2], "name": "measure"}, {"params": [1.570796326794897, 0.0, 0.0], "qubits": [0], "texparams": ["1.57079633", "0.00000000", "0.00000000"], "name": "u3"}, {"qubits": [0], "clbits": [0], "name": "measure"}], "header": {"number_of_clbits": 3, "qubit_labels": [["err_qr", 0], ["err_qr", 1], ["err_qr", 2]], "clbit_labels": [["err_cr", 3]], "number_of_qubits": 3}}
p301
g53
tp302
Rp303
sasg62
Vqe9xmFBxUzgPJchaXFXpJPZNVLbdht
p304
ssg62
g64
sg65
(lp305
L1L
aL2L
asVerr-counts
p306
(dp307
g275
V2018-03-08T20:31:22.953Z
p308
sg277
(dp309
g279
L51L
sg280
L57L
sg281
L52L
sg283
L71L
sg282
L191L
sV00101
p310
L232L
sg284
L211L
sg285
L159L
ssg286
F23.714350938796997
ssa(dp311
g2
(lp312
F0.0
aF0.440798
aF0.440798
aF0.559202
aF0.559202
aF1.0
asg4
g5
sg6
g7
sg8
L1024L
sVmain-counts
p313
(dp314
Vdate
p315
V2018-03-08T20:36:14.405Z
p316
sVcounts
p317
(dp318
V00001
p319
L23L
sV00110
p320
L424L
sV00000
p321
L500L
sV00111
p322
L17L
sV00011
p323
L6L
sV00101
p324
L2L
sV00100
p325
L23L
sV00010
p326
L29L
ssVtime
p327
F23.54447603225708
ssg24
(lp328
F0.045277222628716446
aF0.43333574935204683
aF0.43783659975453304
aF0.562163400245467
aF0.5666642506479531
aF0.9547227773712835
asg26
L0L
sg27
(lp329
F41.6
asg29
I00
sg30
VCOMPLETED
p330
sg32
(dp331
g34
(dp332
g8
L1024L
sg36
L10L
sg6
g7
ssg37
(lp333
(dp334
g40
VOPENQASM 2.0;\u000ainclude "qelib1.inc";\u000aqreg main_qr[3];\u000acreg main_cr[3];\u000au3(1.452113937659282,0.0,0.0) main_qr[1];\u000acx main_qr[1],main_qr[2];\u000ameasure main_qr[1] -> main_cr[1];\u000ameasure main_qr[2] -> main_cr[2];\u000ameasure main_qr[0] -> main_cr[0];\u000a
p335
sg34
(dp336
g43
g44
sg45
Nsg46
Nsg47
Nssg48
g49
sg50
g51
(V{"operations": [{"params": [1.452113937659282, 0.0, 0.0], "qubits": [1], "texparams": ["1.45211394", "0.00000000", "0.00000000"], "name": "u3"}, {"params": [], "qubits": [1, 2], "texparams": [], "name": "cx"}, {"qubits": [1], "clbits": [1], "name": "measure"}, {"qubits": [2], "clbits": [2], "name": "measure"}, {"qubits": [0], "clbits": [0], "name": "measure"}], "header": {"number_of_clbits": 3, "qubit_labels": [["main_qr", 0], ["main_qr", 1], ["main_qr", 2]], "clbit_labels": [["main_cr", 3]], "number_of_qubits": 3}}
p337
g53
tp338
Rp339
sa(dp340
g40
VOPENQASM 2.0;\u000ainclude "qelib1.inc";\u000aqreg err_qr[3];\u000acreg err_cr[3];\u000au3(1.452113937659282,0.0,0.0) err_qr[1];\u000acx err_qr[1],err_qr[2];\u000au3(-1.570796326794897,0.0,0.0) err_qr[1];\u000ameasure err_qr[1] -> err_cr[1];\u000au3(1.570796326794897,0.0,0.0) err_qr[2];\u000ameasure err_qr[2] -> err_cr[2];\u000au3(1.570796326794897,0.0,0.0) err_qr[0];\u000ameasure err_qr[0] -> err_cr[0];\u000a
p341
sg34
g336
sg48
g58
sg50
g51
(V{"operations": [{"params": [1.452113937659282, 0.0, 0.0], "qubits": [1], "texparams": ["1.45211394", "0.00000000", "0.00000000"], "name": "u3"}, {"params": [], "qubits": [1, 2], "texparams": [], "name": "cx"}, {"params": [-1.570796326794897, 0.0, 0.0], "qubits": [1], "texparams": ["-(1.57079633)", "0.00000000", "0.00000000"], "name": "u3"}, {"qubits": [1], "clbits": [1], "name": "measure"}, {"params": [1.570796326794897, 0.0, 0.0], "qubits": [2], "texparams": ["1.57079633", "0.00000000", "0.00000000"], "name": "u3"}, {"qubits": [2], "clbits": [2], "name": "measure"}, {"params": [1.570796326794897, 0.0, 0.0], "qubits": [0], "texparams": ["1.57079633", "0.00000000", "0.00000000"], "name": "u3"}, {"qubits": [0], "clbits": [0], "name": "measure"}], "header": {"number_of_clbits": 3, "qubit_labels": [["err_qr", 0], ["err_qr", 1], ["err_qr", 2]], "clbit_labels": [["err_cr", 3]], "number_of_qubits": 3}}
p342
g53
tp343
Rp344
sasg62
Vd6gFTcmXV58dcQ4LN8r1jNQ8WzQ6Vx
p345
ssg62
g64
sg65
(lp346
L1L
aL2L
asVerr-counts
p347
(dp348
g315
V2018-03-08T20:36:14.533Z
p349
sg317
(dp350
g319
L23L
sg320
L12L
sg321
L18L
sg322
L15L
sg323
L228L
sg324
L285L
sg325
L244L
sg326
L199L
ssg327
F23.54447603225708
ssa(dp351
g2
(lp352
F0.0
aF0.34383300000000006
aF0.34383300000000006
aF0.656167
aF0.656167
aF1.0
asg4
g5
sg6
g7
sg8
L1024L
sVmain-counts
p353
(dp354
Vdate
p355
V2018-03-08T20:40:14.737Z
p356
sVcounts
p357
(dp358
V00001
p359
L54L
sV00110
p360
L304L
sV00000
p361
L587L
sV00111
p362
L28L
sV00101
p363
L1L
sV00100
p364
L23L
sV00010
p365
L27L
ssVtime
p366
F23.4566650390625
ssg24
(lp367
F0.08102623384794984
aF0.34486481685694853
aF0.3482772573098744
aF0.6517227426901256
aF0.6551351831430515
aF0.9189737661520502
asg26
L0L
sg27
(lp368
F35.9
asg29
I00
sg30
VCOMPLETED
p369
sg32
(dp370
g34
(dp371
g8
L1024L
sg36
L10L
sg6
g7
ssg37
(lp372
(dp373
g40
VOPENQASM 2.0;\u000ainclude "qelib1.inc";\u000aqreg main_qr[3];\u000acreg main_cr[3];\u000au3(1.253146402931929,0.0,0.0) main_qr[1];\u000acx main_qr[1],main_qr[2];\u000ameasure main_qr[1] -> main_cr[1];\u000ameasure main_qr[2] -> main_cr[2];\u000ameasure main_qr[0] -> main_cr[0];\u000a
p374
sg34
(dp375
g43
g44
sg45
Nsg46
Nsg47
Nssg48
g49
sg50
g51
(V{"operations": [{"params": [1.253146402931929, 0.0, 0.0], "qubits": [1], "texparams": ["1.25314640", "0.00000000", "0.00000000"], "name": "u3"}, {"params": [], "qubits": [1, 2], "texparams": [], "name": "cx"}, {"qubits": [1], "clbits": [1], "name": "measure"}, {"qubits": [2], "clbits": [2], "name": "measure"}, {"qubits": [0], "clbits": [0], "name": "measure"}], "header": {"number_of_clbits": 3, "qubit_labels": [["main_qr", 0], ["main_qr", 1], ["main_qr", 2]], "clbit_labels": [["main_cr", 3]], "number_of_qubits": 3}}
p376
g53
tp377
Rp378
sa(dp379
g40
VOPENQASM 2.0;\u000ainclude "qelib1.inc";\u000aqreg err_qr[3];\u000acreg err_cr[3];\u000au3(1.253146402931929,0.0,0.0) err_qr[1];\u000acx err_qr[1],err_qr[2];\u000au3(-1.570796326794897,0.0,0.0) err_qr[1];\u000ameasure err_qr[1] -> err_cr[1];\u000au3(1.570796326794897,0.0,0.0) err_qr[2];\u000ameasure err_qr[2] -> err_cr[2];\u000au3(1.570796326794897,0.0,0.0) err_qr[0];\u000ameasure err_qr[0] -> err_cr[0];\u000a
p380
sg34
g375
sg48
g58
sg50
g51
(V{"operations": [{"params": [1.253146402931929, 0.0, 0.0], "qubits": [1], "texparams": ["1.25314640", "0.00000000", "0.00000000"], "name": "u3"}, {"params": [], "qubits": [1, 2], "texparams": [], "name": "cx"}, {"params": [-1.570796326794897, 0.0, 0.0], "qubits": [1], "texparams": ["-(1.57079633)", "0.00000000", "0.00000000"], "name": "u3"}, {"qubits": [1], "clbits": [1], "name": "measure"}, {"params": [1.570796326794897, 0.0, 0.0], "qubits": [2], "texparams": ["1.57079633", "0.00000000", "0.00000000"], "name": "u3"}, {"qubits": [2], "clbits": [2], "name": "measure"}, {"params": [1.570796326794897, 0.0, 0.0], "qubits": [0], "texparams": ["1.57079633", "0.00000000", "0.00000000"], "name": "u3"}, {"qubits": [0], "clbits": [0], "name": "measure"}], "header": {"number_of_clbits": 3, "qubit_labels": [["err_qr", 0], ["err_qr", 1], ["err_qr", 2]], "clbit_labels": [["err_cr", 3]], "number_of_qubits": 3}}
p381
g53
tp382
Rp383
sasg62
VhrreVs7quSMIZrhucq8QYdwLi081h8
p384
ssg62
g64
sg65
(lp385
L1L
aL2L
asVerr-counts
p386
(dp387
g355
V2018-03-08T20:40:14.833Z
p388
sg357
(dp389
g359
L24L
sg360
L26L
sg361
L16L
sg362
L17L
sV00011
p390
L220L
sg363
L256L
sg364
L243L
sg365
L222L
ssg366
F23.4566650390625
ssa(dp391
g2
(lp392
F0.0
aF0.23208700000000004
aF0.23208700000000004
aF0.767913
aF0.767913
aF1.0
asg4
g5
sg6
g7
sg8
L1024L
sVmain-counts
p393
(dp394
Vdate
p395
V2018-03-08T20:45:02.478Z
p396
sVcounts
p397
(dp398
V00001
p399
L45L
sV00110
p400
L221L
sV00000
p401
L708L
sV00011
p402
L4L
sV00111
p403
L8L
sV00100
p404
L15L
sV00010
p405
L23L
ssVtime
p406
F23.5668888092041
ssg24
(lp407
F0.05553423084978854
aF0.23755348387123712
aF0.24951219465810315
aF0.7504878053418969
aF0.7624465161287629
aF0.9444657691502114
asg26
L0L
sg27
(lp408
F28.8
asg29
I00
sg30
VCOMPLETED
p409
sg32
(dp410
g34
(dp411
g8
L1024L
sg36
L10L
sg6
g7
ssg37
(lp412
(dp413
g40
VOPENQASM 2.0;\u000ainclude "qelib1.inc";\u000aqreg main_qr[3];\u000acreg main_cr[3];\u000au3(1.005309649148734,0.0,0.0) main_qr[1];\u000acx main_qr[1],main_qr[2];\u000ameasure main_qr[1] -> main_cr[1];\u000ameasure main_qr[2] -> main_cr[2];\u000ameasure main_qr[0] -> main_cr[0];\u000a
p414
sg34
(dp415
g43
g44
sg45
Nsg46
Nsg47
Nssg48
g49
sg50
g51
(V{"operations": [{"params": [1.005309649148734, 0.0, 0.0], "qubits": [1], "texparams": ["1.00530965", "0.00000000", "0.00000000"], "name": "u3"}, {"params": [], "qubits": [1, 2], "texparams": [], "name": "cx"}, {"qubits": [1], "clbits": [1], "name": "measure"}, {"qubits": [2], "clbits": [2], "name": "measure"}, {"qubits": [0], "clbits": [0], "name": "measure"}], "header": {"number_of_clbits": 3, "qubit_labels": [["main_qr", 0], ["main_qr", 1], ["main_qr", 2]], "clbit_labels": [["main_cr", 3]], "number_of_qubits": 3}}
p416
g53
tp417
Rp418
sa(dp419
g40
VOPENQASM 2.0;\u000ainclude "qelib1.inc";\u000aqreg err_qr[3];\u000acreg err_cr[3];\u000au3(1.005309649148734,0.0,0.0) err_qr[1];\u000acx err_qr[1],err_qr[2];\u000au3(-1.570796326794897,0.0,0.0) err_qr[1];\u000ameasure err_qr[1] -> err_cr[1];\u000au3(1.570796326794897,0.0,0.0) err_qr[2];\u000ameasure err_qr[2] -> err_cr[2];\u000au3(1.570796326794897,0.0,0.0) err_qr[0];\u000ameasure err_qr[0] -> err_cr[0];\u000a
p420
sg34
g415
sg48
g58
sg50
g51
(V{"operations": [{"params": [1.005309649148734, 0.0, 0.0], "qubits": [1], "texparams": ["1.00530965", "0.00000000", "0.00000000"], "name": "u3"}, {"params": [], "qubits": [1, 2], "texparams": [], "name": "cx"}, {"params": [-1.570796326794897, 0.0, 0.0], "qubits": [1], "texparams": ["-(1.57079633)", "0.00000000", "0.00000000"], "name": "u3"}, {"qubits": [1], "clbits": [1], "name": "measure"}, {"params": [1.570796326794897, 0.0, 0.0], "qubits": [2], "texparams": ["1.57079633", "0.00000000", "0.00000000"], "name": "u3"}, {"qubits": [2], "clbits": [2], "name": "measure"}, {"params": [1.570796326794897, 0.0, 0.0], "qubits": [0], "texparams": ["1.57079633", "0.00000000", "0.00000000"], "name": "u3"}, {"qubits": [0], "clbits": [0], "name": "measure"}], "header": {"number_of_clbits": 3, "qubit_labels": [["err_qr", 0], ["err_qr", 1], ["err_qr", 2]], "clbit_labels": [["err_cr", 3]], "number_of_qubits": 3}}
p421
g53
tp422
Rp423
sasg62
VkQEm6P82b7ko8uSzpB4S3LtJwGjdQY
p424
ssg62
g64
sg65
(lp425
L1L
aL2L
asVerr-counts
p426
(dp427
g395
V2018-03-08T20:45:02.580Z
p428
sg397
(dp429
g399
L32L
sg400
L37L
sg401
L32L
sg403
L31L
sg402
L200L
sV00101
p430
L238L
sg404
L226L
sg405
L228L
ssg406
F23.5668888092041
ssa.