(lp0
(dp1
Vqobj
p2
(dp3
Vcircuits
p4
(lp5
(dp6
Vcompiled_circuit_qasm
p7
VOPENQASM 2.0;\u000ainclude "qelib1.inc";\u000aqreg main_qr[3];\u000acreg main_cr[3];\u000au3(0.0,0.0,0.0) main_qr[0];\u000acx main_qr[0],main_qr[2];\u000ameasure main_qr[2] -> main_cr[2];\u000au3(0.0,0.0,0.0) main_qr[0];\u000acx main_qr[0],main_qr[1];\u000ameasure main_qr[0] -> main_cr[0];\u000ameasure main_qr[1] -> main_cr[1];\u000a
p8
sVconfig
p9
(dp10
Vcoupling_map
p11
NsVseed
p12
NsVbasis_gates
p13
Vu1,u2,u3,cx,id
p14
sVlayout
p15
NssVcompiled_circuit
p16
c_codecs
encode
p17
(V{"header": {"number_of_clbits": 3, "number_of_qubits": 3, "clbit_labels": [["main_cr", 3]], "qubit_labels": [["main_qr", 0], ["main_qr", 1], ["main_qr", 2]]}, "operations": [{"texparams": ["0.00000000", "0.00000000", "0.00000000"], "params": [0.0, 0.0, 0.0], "name": "u3", "qubits": [0]}, {"texparams": [], "params": [], "name": "cx", "qubits": [0, 2]}, {"clbits": [2], "name": "measure", "qubits": [2]}, {"texparams": ["0.00000000", "0.00000000", "0.00000000"], "params": [0.0, 0.0, 0.0], "name": "u3", "qubits": [0]}, {"texparams": [], "params": [], "name": "cx", "qubits": [0, 1]}, {"clbits": [0], "name": "measure", "qubits": [0]}, {"clbits": [1], "name": "measure", "qubits": [1]}]}
p18
Vlatin1
p19
tp20
Rp21
sVname
p22
Vmain
p23
sa(dp24
g7
VOPENQASM 2.0;\u000ainclude "qelib1.inc";\u000aqreg err_qr[3];\u000acreg err_cr[3];\u000au3(0.0,0.0,0.0) err_qr[0];\u000acx err_qr[0],err_qr[2];\u000au3(1.570796326794897,0.0,0.0) err_qr[2];\u000ameasure err_qr[2] -> err_cr[2];\u000au3(0.0,0.0,0.0) err_qr[0];\u000acx err_qr[0],err_qr[1];\u000au3(1.570796326794897,0.0,0.0) err_qr[0];\u000ameasure err_qr[0] -> err_cr[0];\u000au3(-1.570796326794897,0.0,0.0) err_qr[1];\u000ameasure err_qr[1] -> err_cr[1];\u000a
p25
sg9
g10
sg16
g17
(V{"header": {"number_of_clbits": 3, "number_of_qubits": 3, "clbit_labels": [["err_cr", 3]], "qubit_labels": [["err_qr", 0], ["err_qr", 1], ["err_qr", 2]]}, "operations": [{"texparams": ["0.00000000", "0.00000000", "0.00000000"], "params": [0.0, 0.0, 0.0], "name": "u3", "qubits": [0]}, {"texparams": [], "params": [], "name": "cx", "qubits": [0, 2]}, {"texparams": ["1.57079633", "0.00000000", "0.00000000"], "params": [1.570796326794897, 0.0, 0.0], "name": "u3", "qubits": [2]}, {"clbits": [2], "name": "measure", "qubits": [2]}, {"texparams": ["0.00000000", "0.00000000", "0.00000000"], "params": [0.0, 0.0, 0.0], "name": "u3", "qubits": [0]}, {"texparams": [], "params": [], "name": "cx", "qubits": [0, 1]}, {"texparams": ["1.57079633", "0.00000000", "0.00000000"], "params": [1.570796326794897, 0.0, 0.0], "name": "u3", "qubits": [0]}, {"clbits": [0], "name": "measure", "qubits": [0]}, {"texparams": ["-(1.57079633)", "0.00000000", "0.00000000"], "params": [-1.570796326794897, 0.0, 0.0], "name": "u3", "qubits": [1]}, {"clbits": [1], "name": "measure", "qubits": [1]}]}
p26
g19
tp27
Rp28
sg22
Verr
p29
sasVid
p30
VCk6SN1HGFYM7pTODxL1eH36USdhfKk
p31
sg9
(dp32
Vshots
p33
L1024L
sVbackend
p34
Vibmqx2
p35
sVmax_credits
p36
L10L
sssg33
L1024L
sVorder
p37
(lp38
L0L
aL2L
aL0L
aL1L
asVideal
p39
(lp40
F0.0
aF0.0
aF0.0
aF1.0
aF1.0
aF1.0
asVmain-counts
p41
(dp42
Vdate
p43
V2018-03-08T21:27:36.256Z
p44
sVcounts
p45
(dp46
V00111
p47
L20L
sV00011
p48
L8L
sV00101
p49
L3L
sV00000
p50
L873L
sV00110
p51
L1L
sV00001
p52
L59L
sV00010
p53
L35L
sV00100
p54
L25L
ssVtime
p55
F23.562427043914795
ssg34
g35
sVcombined
p56
I00
sg30
Vnull
p57
sVexp-ON
p58
(lp59
F0.04478672708242345
aF0.054326789114626184
aF0.0866325021322346
aF0.9133674978677655
aF0.9456732108853738
aF0.9552132729175765
asVstatus
p60
VCOMPLETED
p61
sVerr-counts
p62
(dp63
g43
V2018-03-08T21:27:36.366Z
p64
sg45
(dp65
g47
L126L
sg48
L100L
sg49
L167L
sg50
L118L
sg51
L111L
sg52
L152L
sg53
L88L
sg54
L162L
ssg55
F23.562427043914795
ssVparameters
p66
(lp67
F0.0
aF0.0
asValgorithm
p68
Vry2p_face1_sparrow
p69
sVrun
p70
L0L
sa(dp71
g2
(dp72
g4
(lp73
(dp74
g7
VOPENQASM 2.0;\u000ainclude "qelib1.inc";\u000aqreg main_qr[3];\u000acreg main_cr[3];\u000au3(1.570796326794897,0.0,0.0) main_qr[0];\u000acx main_qr[0],main_qr[2];\u000ameasure main_qr[2] -> main_cr[2];\u000au3(1.570796326794897,0.0,0.0) main_qr[0];\u000acx main_qr[0],main_qr[1];\u000ameasure main_qr[0] -> main_cr[0];\u000ameasure main_qr[1] -> main_cr[1];\u000a
p75
sg9
(dp76
g11
Nsg12
Nsg13
g14
sg15
Nssg16
g17
(V{"header": {"number_of_clbits": 3, "number_of_qubits": 3, "clbit_labels": [["main_cr", 3]], "qubit_labels": [["main_qr", 0], ["main_qr", 1], ["main_qr", 2]]}, "operations": [{"texparams": ["1.57079633", "0.00000000", "0.00000000"], "params": [1.570796326794897, 0.0, 0.0], "name": "u3", "qubits": [0]}, {"texparams": [], "params": [], "name": "cx", "qubits": [0, 2]}, {"clbits": [2], "name": "measure", "qubits": [2]}, {"texparams": ["1.57079633", "0.00000000", "0.00000000"], "params": [1.570796326794897, 0.0, 0.0], "name": "u3", "qubits": [0]}, {"texparams": [], "params": [], "name": "cx", "qubits": [0, 1]}, {"clbits": [0], "name": "measure", "qubits": [0]}, {"clbits": [1], "name": "measure", "qubits": [1]}]}
p77
g19
tp78
Rp79
sg22
g23
sa(dp80
g7
VOPENQASM 2.0;\u000ainclude "qelib1.inc";\u000aqreg err_qr[3];\u000acreg err_cr[3];\u000au3(1.570796326794897,0.0,0.0) err_qr[0];\u000acx err_qr[0],err_qr[2];\u000au3(1.570796326794897,0.0,0.0) err_qr[2];\u000ameasure err_qr[2] -> err_cr[2];\u000au3(1.570796326794897,0.0,0.0) err_qr[0];\u000acx err_qr[0],err_qr[1];\u000au3(1.570796326794897,0.0,0.0) err_qr[0];\u000ameasure err_qr[0] -> err_cr[0];\u000au3(-1.570796326794897,0.0,0.0) err_qr[1];\u000ameasure err_qr[1] -> err_cr[1];\u000a
p81
sg9
g76
sg16
g17
(V{"header": {"number_of_clbits": 3, "number_of_qubits": 3, "clbit_labels": [["err_cr", 3]], "qubit_labels": [["err_qr", 0], ["err_qr", 1], ["err_qr", 2]]}, "operations": [{"texparams": ["1.57079633", "0.00000000", "0.00000000"], "params": [1.570796326794897, 0.0, 0.0], "name": "u3", "qubits": [0]}, {"texparams": [], "params": [], "name": "cx", "qubits": [0, 2]}, {"texparams": ["1.57079633", "0.00000000", "0.00000000"], "params": [1.570796326794897, 0.0, 0.0], "name": "u3", "qubits": [2]}, {"clbits": [2], "name": "measure", "qubits": [2]}, {"texparams": ["1.57079633", "0.00000000", "0.00000000"], "params": [1.570796326794897, 0.0, 0.0], "name": "u3", "qubits": [0]}, {"texparams": [], "params": [], "name": "cx", "qubits": [0, 1]}, {"texparams": ["1.57079633", "0.00000000", "0.00000000"], "params": [1.570796326794897, 0.0, 0.0], "name": "u3", "qubits": [0]}, {"clbits": [0], "name": "measure", "qubits": [0]}, {"texparams": ["-(1.57079633)", "0.00000000", "0.00000000"], "params": [-1.570796326794897, 0.0, 0.0], "name": "u3", "qubits": [1]}, {"clbits": [1], "name": "measure", "qubits": [1]}]}
p82
g19
tp83
Rp84
sg22
g29
sasg30
V8Bldc83aN95XkRazXeaPy4WmVmhaLc
p85
sg9
(dp86
g33
L1024L
sg34
g35
sg36
L10L
sssg33
L1024L
sg37
(lp87
L0L
aL2L
aL0L
aL1L
asg39
(lp88
F0.5
aF0.5
aF0.5
aF0.5
aF0.5
aF0.5
asVmain-counts
p89
(dp90
Vdate
p91
V2018-03-08T21:32:27.266Z
p92
sVcounts
p93
(dp94
V00111
p95
L230L
sV00011
p96
L289L
sV00101
p97
L22L
sV00000
p98
L182L
sV00110
p99
L23L
sV00001
p100
L39L
sV00010
p101
L38L
sV00100
p102
L201L
ssVtime
p103
F23.833257913589478
ssg34
g35
sg56
I00
sg30
g57
sg58
(lp104
F0.3761920548284656
aF0.4335291559560874
aF0.4592994804996588
aF0.5407005195003413
aF0.5664708440439127
aF0.6238079451715344
asg60
VCOMPLETED
p105
sVerr-counts
p106
(dp107
g91
V2018-03-08T21:32:27.387Z
p108
sg93
(dp109
g95
L107L
sg96
L83L
sg97
L146L
sg98
L133L
sg99
L119L
sg100
L179L
sg101
L96L
sg102
L161L
ssg103
F23.833257913589478
ssg66
(lp110
F45.0
aF45.0
asg68
g69
sg70
L0L
sa(dp111
g2
(dp112
g4
(lp113
(dp114
g7
VOPENQASM 2.0;\u000ainclude "qelib1.inc";\u000aqreg main_qr[3];\u000acreg main_cr[3];\u000au3(0.865683308989187,0.0,0.0) main_qr[0];\u000acx main_qr[0],main_qr[2];\u000ameasure main_qr[2] -> main_cr[2];\u000au3(0.865683308989187,0.0,0.0) main_qr[0];\u000acx main_qr[0],main_qr[1];\u000ameasure main_qr[0] -> main_cr[0];\u000ameasure main_qr[1] -> main_cr[1];\u000a
p115
sg9
(dp116
g11
Nsg12
Nsg13
g14
sg15
Nssg16
g17
(V{"header": {"number_of_clbits": 3, "number_of_qubits": 3, "clbit_labels": [["main_cr", 3]], "qubit_labels": [["main_qr", 0], ["main_qr", 1], ["main_qr", 2]]}, "operations": [{"texparams": ["0.86568331", "0.00000000", "0.00000000"], "params": [0.865683308989187, 0.0, 0.0], "name": "u3", "qubits": [0]}, {"texparams": [], "params": [], "name": "cx", "qubits": [0, 2]}, {"clbits": [2], "name": "measure", "qubits": [2]}, {"texparams": ["0.86568331", "0.00000000", "0.00000000"], "params": [0.865683308989187, 0.0, 0.0], "name": "u3", "qubits": [0]}, {"texparams": [], "params": [], "name": "cx", "qubits": [0, 1]}, {"clbits": [0], "name": "measure", "qubits": [0]}, {"clbits": [1], "name": "measure", "qubits": [1]}]}
p117
g19
tp118
Rp119
sg22
g23
sa(dp120
g7
VOPENQASM 2.0;\u000ainclude "qelib1.inc";\u000aqreg err_qr[3];\u000acreg err_cr[3];\u000au3(0.865683308989187,0.0,0.0) err_qr[0];\u000acx err_qr[0],err_qr[2];\u000au3(1.570796326794897,0.0,0.0) err_qr[2];\u000ameasure err_qr[2] -> err_cr[2];\u000au3(0.865683308989187,0.0,0.0) err_qr[0];\u000acx err_qr[0],err_qr[1];\u000au3(1.570796326794897,0.0,0.0) err_qr[0];\u000ameasure err_qr[0] -> err_cr[0];\u000au3(-1.570796326794897,0.0,0.0) err_qr[1];\u000ameasure err_qr[1] -> err_cr[1];\u000a
p121
sg9
g116
sg16
g17
(V{"header": {"number_of_clbits": 3, "number_of_qubits": 3, "clbit_labels": [["err_cr", 3]], "qubit_labels": [["err_qr", 0], ["err_qr", 1], ["err_qr", 2]]}, "operations": [{"texparams": ["0.86568331", "0.00000000", "0.00000000"], "params": [0.865683308989187, 0.0, 0.0], "name": "u3", "qubits": [0]}, {"texparams": [], "params": [], "name": "cx", "qubits": [0, 2]}, {"texparams": ["1.57079633", "0.00000000", "0.00000000"], "params": [1.570796326794897, 0.0, 0.0], "name": "u3", "qubits": [2]}, {"clbits": [2], "name": "measure", "qubits": [2]}, {"texparams": ["0.86568331", "0.00000000", "0.00000000"], "params": [0.865683308989187, 0.0, 0.0], "name": "u3", "qubits": [0]}, {"texparams": [], "params": [], "name": "cx", "qubits": [0, 1]}, {"texparams": ["1.57079633", "0.00000000", "0.00000000"], "params": [1.570796326794897, 0.0, 0.0], "name": "u3", "qubits": [0]}, {"clbits": [0], "name": "measure", "qubits": [0]}, {"texparams": ["-(1.57079633)", "0.00000000", "0.00000000"], "params": [-1.570796326794897, 0.0, 0.0], "name": "u3", "qubits": [1]}, {"clbits": [1], "name": "measure", "qubits": [1]}]}
p122
g19
tp123
Rp124
sg22
g29
sasg30
V9k5aCAYQ6inIt7HGP1AIXh1hLu38BG
p125
sg9
(dp126
g33
L1024L
sg34
g35
sg36
L10L
sssg33
L1024L
sg37
(lp127
L0L
aL2L
aL0L
aL1L
asg39
(lp128
F0.17593999999999999
aF0.28997000000000006
aF0.28997000000000006
aF0.7100299999999999
aF0.7100299999999999
aF0.82406
asVmain-counts
p129
(dp130
Vdate
p131
V2018-03-08T21:36:11.054Z
p132
sVcounts
p133
(dp134
V00111
p135
L132L
sV00011
p136
L161L
sV00101
p137
L9L
sV00000
p138
L573L
sV00110
p139
L15L
sV00001
p140
L57L
sV00010
p141
L40L
sV00100
p142
L37L
ssVtime
p143
F23.360189199447632
ssg34
g35
sg56
I00
sg30
g57
sg58
(lp144
F0.1877366007983692
aF0.3307642263872307
aF0.347740783669692
aF0.652259216330308
aF0.6692357736127693
aF0.8122633992016308
asg60
VCOMPLETED
p145
sVerr-counts
p146
(dp147
g131
V2018-03-08T21:36:11.167Z
p148
sg133
(dp149
g135
L38L
sg136
L99L
sg137
L250L
sg138
L127L
sg139
L210L
sg140
L155L
sg141
L109L
sg142
L36L
ssg143
F23.360189199447632
ssg66
(lp150
F24.8
aF24.8
asg68
g69
sg70
L0L
sa(dp151
g2
(dp152
g4
(lp153
(dp154
g7
VOPENQASM 2.0;\u000ainclude "qelib1.inc";\u000aqreg main_qr[3];\u000acreg main_cr[3];\u000au3(1.350884841043611,0.0,0.0) main_qr[0];\u000acx main_qr[0],main_qr[2];\u000ameasure main_qr[2] -> main_cr[2];\u000au3(1.350884841043611,0.0,0.0) main_qr[0];\u000acx main_qr[0],main_qr[1];\u000ameasure main_qr[0] -> main_cr[0];\u000ameasure main_qr[1] -> main_cr[1];\u000a
p155
sg9
(dp156
g11
Nsg12
Nsg13
g14
sg15
Nssg16
g17
(V{"header": {"number_of_clbits": 3, "number_of_qubits": 3, "clbit_labels": [["main_cr", 3]], "qubit_labels": [["main_qr", 0], ["main_qr", 1], ["main_qr", 2]]}, "operations": [{"texparams": ["1.35088484", "0.00000000", "0.00000000"], "params": [1.350884841043611, 0.0, 0.0], "name": "u3", "qubits": [0]}, {"texparams": [], "params": [], "name": "cx", "qubits": [0, 2]}, {"clbits": [2], "name": "measure", "qubits": [2]}, {"texparams": ["1.35088484", "0.00000000", "0.00000000"], "params": [1.350884841043611, 0.0, 0.0], "name": "u3", "qubits": [0]}, {"texparams": [], "params": [], "name": "cx", "qubits": [0, 1]}, {"clbits": [0], "name": "measure", "qubits": [0]}, {"clbits": [1], "name": "measure", "qubits": [1]}]}
p157
g19
tp158
Rp159
sg22
g23
sa(dp160
g7
VOPENQASM 2.0;\u000ainclude "qelib1.inc";\u000aqreg err_qr[3];\u000acreg err_cr[3];\u000au3(1.350884841043611,0.0,0.0) err_qr[0];\u000acx err_qr[0],err_qr[2];\u000au3(1.570796326794897,0.0,0.0) err_qr[2];\u000ameasure err_qr[2] -> err_cr[2];\u000au3(1.350884841043611,0.0,0.0) err_qr[0];\u000acx err_qr[0],err_qr[1];\u000au3(1.570796326794897,0.0,0.0) err_qr[0];\u000ameasure err_qr[0] -> err_cr[0];\u000au3(-1.570796326794897,0.0,0.0) err_qr[1];\u000ameasure err_qr[1] -> err_cr[1];\u000a
p161
sg9
g156
sg16
g17
(V{"header": {"number_of_clbits": 3, "number_of_qubits": 3, "clbit_labels": [["err_cr", 3]], "qubit_labels": [["err_qr", 0], ["err_qr", 1], ["err_qr", 2]]}, "operations": [{"texparams": ["1.35088484", "0.00000000", "0.00000000"], "params": [1.350884841043611, 0.0, 0.0], "name": "u3", "qubits": [0]}, {"texparams": [], "params": [], "name": "cx", "qubits": [0, 2]}, {"texparams": ["1.57079633", "0.00000000", "0.00000000"], "params": [1.570796326794897, 0.0, 0.0], "name": "u3", "qubits": [2]}, {"clbits": [2], "name": "measure", "qubits": [2]}, {"texparams": ["1.35088484", "0.00000000", "0.00000000"], "params": [1.350884841043611, 0.0, 0.0], "name": "u3", "qubits": [0]}, {"texparams": [], "params": [], "name": "cx", "qubits": [0, 1]}, {"texparams": ["1.57079633", "0.00000000", "0.00000000"], "params": [1.570796326794897, 0.0, 0.0], "name": "u3", "qubits": [0]}, {"clbits": [0], "name": "measure", "qubits": [0]}, {"texparams": ["-(1.57079633)", "0.00000000", "0.00000000"], "params": [-1.570796326794897, 0.0, 0.0], "name": "u3", "qubits": [1]}, {"clbits": [1], "name": "measure", "qubits": [1]}]}
p162
g19
tp163
Rp164
sg22
g29
sasg30
VSmBgfi5FDy8I5lulk58OLLbdyCxRZS
p165
sg9
(dp166
g33
L1024L
sg34
g35
sg36
L10L
sssg33
L1024L
sg37
(lp167
L0L
aL2L
aL0L
aL1L
asg39
(lp168
F0.39092839092839093
aF0.47620647620647627
aF0.47620647620647627
aF0.5237935237935237
aF0.5237935237935237
aF0.6090716090716091
asVmain-counts
p169
(dp170
Vdate
p171
V2018-03-08T21:38:31.999Z
p172
sVcounts
p173
(dp174
V00111
p175
L227L
sV00011
p176
L285L
sV00101
p177
L17L
sV00000
p178
L288L
sV00110
p179
L15L
sV00001
p180
L45L
sV00010
p181
L28L
sV00100
p182
L119L
ssVtime
p183
F23.871535062789917
ssg34
g35
sg56
I00
sg30
g57
sg58
(lp184
F0.36651065734654775
aF0.4302731639536178
aF0.43832947889122287
aF0.5616705211087771
aF0.5697268360463822
aF0.6334893426534522
asg60
VCOMPLETED
p185
sVerr-counts
p186
(dp187
g171
V2018-03-08T21:38:32.111Z
p188
sg173
(dp189
g175
L64L
sg176
L105L
sg177
L184L
sg178
L129L
sg179
L182L
sg180
L147L
sg181
L104L
sg182
L109L
ssg183
F23.871535062789917
ssg66
(lp190
F38.7
aF38.7
asg68
g69
sg70
L0L
sa(dp191
g2
(dp192
g4
(lp193
(dp194
g7
VOPENQASM 2.0;\u000ainclude "qelib1.inc";\u000aqreg main_qr[3];\u000acreg main_cr[3];\u000au3(1.110029404268394,0.0,0.0) main_qr[0];\u000acx main_qr[0],main_qr[2];\u000ameasure main_qr[2] -> main_cr[2];\u000au3(1.110029404268394,0.0,0.0) main_qr[0];\u000acx main_qr[0],main_qr[1];\u000ameasure main_qr[0] -> main_cr[0];\u000ameasure main_qr[1] -> main_cr[1];\u000a
p195
sg9
(dp196
g11
Nsg12
Nsg13
g14
sg15
Nssg16
g17
(V{"header": {"number_of_clbits": 3, "number_of_qubits": 3, "clbit_labels": [["main_cr", 3]], "qubit_labels": [["main_qr", 0], ["main_qr", 1], ["main_qr", 2]]}, "operations": [{"texparams": ["1.11002940", "0.00000000", "0.00000000"], "params": [1.110029404268394, 0.0, 0.0], "name": "u3", "qubits": [0]}, {"texparams": [], "params": [], "name": "cx", "qubits": [0, 2]}, {"clbits": [2], "name": "measure", "qubits": [2]}, {"texparams": ["1.11002940", "0.00000000", "0.00000000"], "params": [1.110029404268394, 0.0, 0.0], "name": "u3", "qubits": [0]}, {"texparams": [], "params": [], "name": "cx", "qubits": [0, 1]}, {"clbits": [0], "name": "measure", "qubits": [0]}, {"clbits": [1], "name": "measure", "qubits": [1]}]}
p197
g19
tp198
Rp199
sg22
g23
sa(dp200
g7
VOPENQASM 2.0;\u000ainclude "qelib1.inc";\u000aqreg err_qr[3];\u000acreg err_cr[3];\u000au3(1.110029404268394,0.0,0.0) err_qr[0];\u000acx err_qr[0],err_qr[2];\u000au3(1.570796326794897,0.0,0.0) err_qr[2];\u000ameasure err_qr[2] -> err_cr[2];\u000au3(1.110029404268394,0.0,0.0) err_qr[0];\u000acx err_qr[0],err_qr[1];\u000au3(1.570796326794897,0.0,0.0) err_qr[0];\u000ameasure err_qr[0] -> err_cr[0];\u000au3(-1.570796326794897,0.0,0.0) err_qr[1];\u000ameasure err_qr[1] -> err_cr[1];\u000a
p201
sg9
g196
sg16
g17
(V{"header": {"number_of_clbits": 3, "number_of_qubits": 3, "clbit_labels": [["err_cr", 3]], "qubit_labels": [["err_qr", 0], ["err_qr", 1], ["err_qr", 2]]}, "operations": [{"texparams": ["1.11002940", "0.00000000", "0.00000000"], "params": [1.110029404268394, 0.0, 0.0], "name": "u3", "qubits": [0]}, {"texparams": [], "params": [], "name": "cx", "qubits": [0, 2]}, {"texparams": ["1.57079633", "0.00000000", "0.00000000"], "params": [1.570796326794897, 0.0, 0.0], "name": "u3", "qubits": [2]}, {"clbits": [2], "name": "measure", "qubits": [2]}, {"texparams": ["1.11002940", "0.00000000", "0.00000000"], "params": [1.110029404268394, 0.0, 0.0], "name": "u3", "qubits": [0]}, {"texparams": [], "params": [], "name": "cx", "qubits": [0, 1]}, {"texparams": ["1.57079633", "0.00000000", "0.00000000"], "params": [1.570796326794897, 0.0, 0.0], "name": "u3", "qubits": [0]}, {"clbits": [0], "name": "measure", "qubits": [0]}, {"texparams": ["-(1.57079633)", "0.00000000", "0.00000000"], "params": [-1.570796326794897, 0.0, 0.0], "name": "u3", "qubits": [1]}, {"clbits": [1], "name": "measure", "qubits": [1]}]}
p202
g19
tp203
Rp204
sg22
g29
sasg30
VqOosSK45KLc8m2lfehPbmASFxkcnZl
p205
sg9
(dp206
g33
L1024L
sg34
g35
sg36
L10L
sssg33
L1024L
sg37
(lp207
L0L
aL2L
aL0L
aL1L
asg39
(lp208
F0.27768272231727764
aF0.40114959885040113
aF0.40114959885040113
aF0.5988504011495989
aF0.5988504011495989
aF0.7223172776827224
asVmain-counts
p209
(dp210
Vdate
p211
V2018-03-08T21:40:52.720Z
p212
sVcounts
p213
(dp214
V00111
p215
L165L
sV00011
p216
L251L
sV00101
p217
L18L
sV00000
p218
L440L
sV00110
p219
L16L
sV00001
p220
L44L
sV00010
p221
L27L
sV00100
p222
L63L
ssVtime
p223
F23.600366830825806
ssg34
g35
sg56
I00
sg30
g57
sg58
(lp224
F0.2542222856410934
aF0.4225492966449283
aF0.46656788521753184
aF0.5334321147824681
aF0.5774507033550716
aF0.7457777143589066
asg60
VCOMPLETED
p225
sVerr-counts
p226
(dp227
g211
V2018-03-08T21:40:52.836Z
p228
sg213
(dp229
g215
L48L
sg216
L84L
sg217
L221L
sg218
L133L
sg219
L218L
sg220
L163L
sg221
L103L
sg222
L54L
ssg223
F23.600366830825806
ssg66
(lp230
F31.8
aF31.8
asg68
g69
sg70
L0L
sa(dp231
g2
(dp232
g4
(lp233
(dp234
g7
VOPENQASM 2.0;\u000ainclude "qelib1.inc";\u000aqreg main_qr[3];\u000acreg main_cr[3];\u000au3(0.49567350756639,0.0,0.0) main_qr[0];\u000acx main_qr[0],main_qr[2];\u000ameasure main_qr[2] -> main_cr[2];\u000au3(0.49567350756639,0.0,0.0) main_qr[0];\u000acx main_qr[0],main_qr[1];\u000ameasure main_qr[0] -> main_cr[0];\u000ameasure main_qr[1] -> main_cr[1];\u000a
p235
sg9
(dp236
g11
Nsg12
Nsg13
g14
sg15
Nssg16
g17
(V{"header": {"number_of_clbits": 3, "number_of_qubits": 3, "clbit_labels": [["main_cr", 3]], "qubit_labels": [["main_qr", 0], ["main_qr", 1], ["main_qr", 2]]}, "operations": [{"texparams": ["0.49567351", "0.00000000", "0.00000000"], "params": [0.49567350756639, 0.0, 0.0], "name": "u3", "qubits": [0]}, {"texparams": [], "params": [], "name": "cx", "qubits": [0, 2]}, {"clbits": [2], "name": "measure", "qubits": [2]}, {"texparams": ["0.49567351", "0.00000000", "0.00000000"], "params": [0.49567350756639, 0.0, 0.0], "name": "u3", "qubits": [0]}, {"texparams": [], "params": [], "name": "cx", "qubits": [0, 1]}, {"clbits": [0], "name": "measure", "qubits": [0]}, {"clbits": [1], "name": "measure", "qubits": [1]}]}
p237
g19
tp238
Rp239
sg22
g23
sa(dp240
g7
VOPENQASM 2.0;\u000ainclude "qelib1.inc";\u000aqreg err_qr[3];\u000acreg err_cr[3];\u000au3(0.49567350756639,0.0,0.0) err_qr[0];\u000acx err_qr[0],err_qr[2];\u000au3(1.570796326794897,0.0,0.0) err_qr[2];\u000ameasure err_qr[2] -> err_cr[2];\u000au3(0.49567350756639,0.0,0.0) err_qr[0];\u000acx err_qr[0],err_qr[1];\u000au3(1.570796326794897,0.0,0.0) err_qr[0];\u000ameasure err_qr[0] -> err_cr[0];\u000au3(-1.570796326794897,0.0,0.0) err_qr[1];\u000ameasure err_qr[1] -> err_cr[1];\u000a
p241
sg9
g236
sg16
g17
(V{"header": {"number_of_clbits": 3, "number_of_qubits": 3, "clbit_labels": [["err_cr", 3]], "qubit_labels": [["err_qr", 0], ["err_qr", 1], ["err_qr", 2]]}, "operations": [{"texparams": ["0.49567351", "0.00000000", "0.00000000"], "params": [0.49567350756639, 0.0, 0.0], "name": "u3", "qubits": [0]}, {"texparams": [], "params": [], "name": "cx", "qubits": [0, 2]}, {"texparams": ["1.57079633", "0.00000000", "0.00000000"], "params": [1.570796326794897, 0.0, 0.0], "name": "u3", "qubits": [2]}, {"clbits": [2], "name": "measure", "qubits": [2]}, {"texparams": ["0.49567351", "0.00000000", "0.00000000"], "params": [0.49567350756639, 0.0, 0.0], "name": "u3", "qubits": [0]}, {"texparams": [], "params": [], "name": "cx", "qubits": [0, 1]}, {"texparams": ["1.57079633", "0.00000000", "0.00000000"], "params": [1.570796326794897, 0.0, 0.0], "name": "u3", "qubits": [0]}, {"clbits": [0], "name": "measure", "qubits": [0]}, {"texparams": ["-(1.57079633)", "0.00000000", "0.00000000"], "params": [-1.570796326794897, 0.0, 0.0], "name": "u3", "qubits": [1]}, {"clbits": [1], "name": "measure", "qubits": [1]}]}
p242
g19
tp243
Rp244
sg22
g29
sasg30
VKMWN0G9UyuEgdzk9a7V1aj9empcciK
p245
sg9
(dp246
g33
L1024L
sg34
g35
sg36
L10L
sssg33
L1024L
sg37
(lp247
L0L
aL2L
aL0L
aL1L
asg39
(lp248
F0.06017593982406011
aF0.11310988689011303
aF0.11310988689011303
aF0.886890113109887
aF0.886890113109887
aF0.9398240601759399
asVmain-counts
p249
(dp250
Vdate
p251
V2018-03-08T21:43:13.813Z
p252
sVcounts
p253
(dp254
V00111
p255
L70L
sV00011
p256
L90L
sV00101
p257
L4L
sV00000
p258
L758L
sV00110
p259
L3L
sV00001
p260
L51L
sV00010
p261
L32L
sV00100
p262
L16L
ssVtime
p263
F23.67815589904785
ssg34
g35
sg56
I00
sg30
g57
sg58
(lp264
F0.08846724656071382
aF0.18254508030651395
aF0.20587954242029588
aF0.7941204575797041
aF0.817454919693486
aF0.9115327534392862
asg60
VCOMPLETED
p265
sVerr-counts
p266
(dp267
g251
V2018-03-08T21:43:13.972Z
p268
sg253
(dp269
g255
L49L
sg256
L107L
sg257
L254L
sg258
L115L
sg259
L191L
sg260
L152L
sg261
L93L
sg262
L63L
ssg263
F23.67815589904785
ssg66
(lp270
F14.2
aF14.2
asg68
g69
sg70
L0L
sa(dp271
g2
(dp272
g4
(lp273
(dp274
g7
VOPENQASM 2.0;\u000ainclude "qelib1.inc";\u000aqreg main_qr[3];\u000acreg main_cr[3];\u000au3(0.705113017805709,0.0,0.0) main_qr[0];\u000acx main_qr[0],main_qr[2];\u000ameasure main_qr[2] -> main_cr[2];\u000au3(0.705113017805709,0.0,0.0) main_qr[0];\u000acx main_qr[0],main_qr[1];\u000ameasure main_qr[0] -> main_cr[0];\u000ameasure main_qr[1] -> main_cr[1];\u000a
p275
sg9
(dp276
g11
Nsg12
Nsg13
g14
sg15
Nssg16
g17
(V{"header": {"number_of_clbits": 3, "number_of_qubits": 3, "clbit_labels": [["main_cr", 3]], "qubit_labels": [["main_qr", 0], ["main_qr", 1], ["main_qr", 2]]}, "operations": [{"texparams": ["0.70511302", "0.00000000", "0.00000000"], "params": [0.705113017805709, 0.0, 0.0], "name": "u3", "qubits": [0]}, {"texparams": [], "params": [], "name": "cx", "qubits": [0, 2]}, {"clbits": [2], "name": "measure", "qubits": [2]}, {"texparams": ["0.70511302", "0.00000000", "0.00000000"], "params": [0.705113017805709, 0.0, 0.0], "name": "u3", "qubits": [0]}, {"texparams": [], "params": [], "name": "cx", "qubits": [0, 1]}, {"clbits": [0], "name": "measure", "qubits": [0]}, {"clbits": [1], "name": "measure", "qubits": [1]}]}
p277
g19
tp278
Rp279
sg22
g23
sa(dp280
g7
VOPENQASM 2.0;\u000ainclude "qelib1.inc";\u000aqreg err_qr[3];\u000acreg err_cr[3];\u000au3(0.705113017805709,0.0,0.0) err_qr[0];\u000acx err_qr[0],err_qr[2];\u000au3(1.570796326794897,0.0,0.0) err_qr[2];\u000ameasure err_qr[2] -> err_cr[2];\u000au3(0.705113017805709,0.0,0.0) err_qr[0];\u000acx err_qr[0],err_qr[1];\u000au3(1.570796326794897,0.0,0.0) err_qr[0];\u000ameasure err_qr[0] -> err_cr[0];\u000au3(-1.570796326794897,0.0,0.0) err_qr[1];\u000ameasure err_qr[1] -> err_cr[1];\u000a
p281
sg9
g276
sg16
g17
(V{"header": {"number_of_clbits": 3, "number_of_qubits": 3, "clbit_labels": [["err_cr", 3]], "qubit_labels": [["err_qr", 0], ["err_qr", 1], ["err_qr", 2]]}, "operations": [{"texparams": ["0.70511302", "0.00000000", "0.00000000"], "params": [0.705113017805709, 0.0, 0.0], "name": "u3", "qubits": [0]}, {"texparams": [], "params": [], "name": "cx", "qubits": [0, 2]}, {"texparams": ["1.57079633", "0.00000000", "0.00000000"], "params": [1.570796326794897, 0.0, 0.0], "name": "u3", "qubits": [2]}, {"clbits": [2], "name": "measure", "qubits": [2]}, {"texparams": ["0.70511302", "0.00000000", "0.00000000"], "params": [0.705113017805709, 0.0, 0.0], "name": "u3", "qubits": [0]}, {"texparams": [], "params": [], "name": "cx", "qubits": [0, 1]}, {"texparams": ["1.57079633", "0.00000000", "0.00000000"], "params": [1.570796326794897, 0.0, 0.0], "name": "u3", "qubits": [0]}, {"clbits": [0], "name": "measure", "qubits": [0]}, {"texparams": ["-(1.57079633)", "0.00000000", "0.00000000"], "params": [-1.570796326794897, 0.0, 0.0], "name": "u3", "qubits": [1]}, {"clbits": [1], "name": "measure", "qubits": [1]}]}
p282
g19
tp283
Rp284
sg22
g29
sasg30
VyVqb6TWHllLUu6bTb3J4ylw5GISIsf
p285
sg9
(dp286
g33
L1024L
sg34
g35
sg36
L10L
sssg33
L1024L
sg37
(lp287
L0L
aL2L
aL0L
aL1L
asg39
(lp288
F0.11923100000000009
aF0.21003000000000005
aF0.21003000000000005
aF0.78997
aF0.78997
aF0.8807689999999999
asVmain-counts
p289
(dp290
Vdate
p291
V2018-03-08T21:45:34.734Z
p292
sVcounts
p293
(dp294
V00111
p295
L107L
sV00011
p296
L123L
sV00101
p297
L9L
sV00000
p298
L656L
sV00110
p299
L14L
sV00001
p300
L69L
sV00010
p301
L32L
sV00100
p302
L14L
ssVtime
p303
F23.822942972183228
ssg34
g35
sg56
I00
sg30
g57
sg58
(lp304
F0.140517541116915
aF0.26120700444409495
aF0.2996261276495782
aF0.7003738723504218
aF0.738792995555905
aF0.8594824588830849
asg60
VCOMPLETED
p305
sVerr-counts
p306
(dp307
g291
V2018-03-08T21:45:34.846Z
p308
sg293
(dp309
g295
L31L
sg296
L105L
sg297
L246L
sg298
L131L
sg299
L197L
sg300
L152L
sg301
L115L
sg302
L47L
ssg303
F23.822942972183228
ssg66
(lp310
F20.2
aF20.2
asg68
g69
sg70
L0L
sa(dp311
g2
(dp312
g4
(lp313
(dp314
g7
VOPENQASM 2.0;\u000ainclude "qelib1.inc";\u000aqreg main_qr[3];\u000acreg main_cr[3];\u000au3(1.452113937659282,0.0,0.0) main_qr[0];\u000acx main_qr[0],main_qr[2];\u000ameasure main_qr[2] -> main_cr[2];\u000au3(1.452113937659282,0.0,0.0) main_qr[0];\u000acx main_qr[0],main_qr[1];\u000ameasure main_qr[0] -> main_cr[0];\u000ameasure main_qr[1] -> main_cr[1];\u000a
p315
sg9
(dp316
g11
Nsg12
Nsg13
g14
sg15
Nssg16
g17
(V{"header": {"number_of_clbits": 3, "number_of_qubits": 3, "clbit_labels": [["main_cr", 3]], "qubit_labels": [["main_qr", 0], ["main_qr", 1], ["main_qr", 2]]}, "operations": [{"texparams": ["1.45211394", "0.00000000", "0.00000000"], "params": [1.452113937659282, 0.0, 0.0], "name": "u3", "qubits": [0]}, {"texparams": [], "params": [], "name": "cx", "qubits": [0, 2]}, {"clbits": [2], "name": "measure", "qubits": [2]}, {"texparams": ["1.45211394", "0.00000000", "0.00000000"], "params": [1.452113937659282, 0.0, 0.0], "name": "u3", "qubits": [0]}, {"texparams": [], "params": [], "name": "cx", "qubits": [0, 1]}, {"clbits": [0], "name": "measure", "qubits": [0]}, {"clbits": [1], "name": "measure", "qubits": [1]}]}
p317
g19
tp318
Rp319
sg22
g23
sa(dp320
g7
VOPENQASM 2.0;\u000ainclude "qelib1.inc";\u000aqreg err_qr[3];\u000acreg err_cr[3];\u000au3(1.452113937659282,0.0,0.0) err_qr[0];\u000acx err_qr[0],err_qr[2];\u000au3(1.570796326794897,0.0,0.0) err_qr[2];\u000ameasure err_qr[2] -> err_cr[2];\u000au3(1.452113937659282,0.0,0.0) err_qr[0];\u000acx err_qr[0],err_qr[1];\u000au3(1.570796326794897,0.0,0.0) err_qr[0];\u000ameasure err_qr[0] -> err_cr[0];\u000au3(-1.570796326794897,0.0,0.0) err_qr[1];\u000ameasure err_qr[1] -> err_cr[1];\u000a
p321
sg9
g316
sg16
g17
(V{"header": {"number_of_clbits": 3, "number_of_qubits": 3, "clbit_labels": [["err_cr", 3]], "qubit_labels": [["err_qr", 0], ["err_qr", 1], ["err_qr", 2]]}, "operations": [{"texparams": ["1.45211394", "0.00000000", "0.00000000"], "params": [1.452113937659282, 0.0, 0.0], "name": "u3", "qubits": [0]}, {"texparams": [], "params": [], "name": "cx", "qubits": [0, 2]}, {"texparams": ["1.57079633", "0.00000000", "0.00000000"], "params": [1.570796326794897, 0.0, 0.0], "name": "u3", "qubits": [2]}, {"clbits": [2], "name": "measure", "qubits": [2]}, {"texparams": ["1.45211394", "0.00000000", "0.00000000"], "params": [1.452113937659282, 0.0, 0.0], "name": "u3", "qubits": [0]}, {"texparams": [], "params": [], "name": "cx", "qubits": [0, 1]}, {"texparams": ["1.57079633", "0.00000000", "0.00000000"], "params": [1.570796326794897, 0.0, 0.0], "name": "u3", "qubits": [0]}, {"clbits": [0], "name": "measure", "qubits": [0]}, {"texparams": ["-(1.57079633)", "0.00000000", "0.00000000"], "params": [-1.570796326794897, 0.0, 0.0], "name": "u3", "qubits": [1]}, {"clbits": [1], "name": "measure", "qubits": [1]}]}
p322
g19
tp323
Rp324
sg22
g29
sasg30
VszijdzBzrlZXrRJRa5VNlaQFvAkdDK
p325
sg9
(dp326
g33
L1024L
sg34
g35
sg36
L10L
sssg33
L1024L
sg37
(lp327
L0L
aL2L
aL0L
aL1L
asg39
(lp328
F0.440798
aF0.49299000000000004
aF0.49299000000000004
aF0.50701
aF0.50701
aF0.559202
asVmain-counts
p329
(dp330
Vdate
p331
V2018-03-08T21:47:55.314Z
p332
sVcounts
p333
(dp334
V00111
p335
L224L
sV00011
p336
L289L
sV00101
p337
L19L
sV00000
p338
L259L
sV00110
p339
L30L
sV00001
p340
L30L
sV00010
p341
L32L
sV00100
p342
L141L
ssVtime
p343
F23.414865016937256
ssg34
g35
sg56
I00
sg30
g57
sg58
(lp344
F0.3894929883600953
aF0.40318231124449916
aF0.4509283416937456
aF0.5490716583062544
aF0.5968176887555008
aF0.6105070116399047
asg60
VCOMPLETED
p345
sVerr-counts
p346
(dp347
g331
V2018-03-08T21:47:55.447Z
p348
sg333
(dp349
g335
L91L
sg336
L86L
sg337
L174L
sg338
L131L
sg339
L127L
sg340
L166L
sg341
L114L
sg342
L135L
ssg343
F23.414865016937256
ssg66
(lp350
F41.6
aF41.6
asg68
g69
sg70
L0L
sa(dp351
g2
(dp352
g4
(lp353
(dp354
g7
VOPENQASM 2.0;\u000ainclude "qelib1.inc";\u000aqreg main_qr[3];\u000acreg main_cr[3];\u000au3(1.253146402931929,0.0,0.0) main_qr[0];\u000acx main_qr[0],main_qr[2];\u000ameasure main_qr[2] -> main_cr[2];\u000au3(1.253146402931929,0.0,0.0) main_qr[0];\u000acx main_qr[0],main_qr[1];\u000ameasure main_qr[0] -> main_cr[0];\u000ameasure main_qr[1] -> main_cr[1];\u000a
p355
sg9
(dp356
g11
Nsg12
Nsg13
g14
sg15
Nssg16
g17
(V{"header": {"number_of_clbits": 3, "number_of_qubits": 3, "clbit_labels": [["main_cr", 3]], "qubit_labels": [["main_qr", 0], ["main_qr", 1], ["main_qr", 2]]}, "operations": [{"texparams": ["1.25314640", "0.00000000", "0.00000000"], "params": [1.253146402931929, 0.0, 0.0], "name": "u3", "qubits": [0]}, {"texparams": [], "params": [], "name": "cx", "qubits": [0, 2]}, {"clbits": [2], "name": "measure", "qubits": [2]}, {"texparams": ["1.25314640", "0.00000000", "0.00000000"], "params": [1.253146402931929, 0.0, 0.0], "name": "u3", "qubits": [0]}, {"texparams": [], "params": [], "name": "cx", "qubits": [0, 1]}, {"clbits": [0], "name": "measure", "qubits": [0]}, {"clbits": [1], "name": "measure", "qubits": [1]}]}
p357
g19
tp358
Rp359
sg22
g23
sa(dp360
g7
VOPENQASM 2.0;\u000ainclude "qelib1.inc";\u000aqreg err_qr[3];\u000acreg err_cr[3];\u000au3(1.253146402931929,0.0,0.0) err_qr[0];\u000acx err_qr[0],err_qr[2];\u000au3(1.570796326794897,0.0,0.0) err_qr[2];\u000ameasure err_qr[2] -> err_cr[2];\u000au3(1.253146402931929,0.0,0.0) err_qr[0];\u000acx err_qr[0],err_qr[1];\u000au3(1.570796326794897,0.0,0.0) err_qr[0];\u000ameasure err_qr[0] -> err_cr[0];\u000au3(-1.570796326794897,0.0,0.0) err_qr[1];\u000ameasure err_qr[1] -> err_cr[1];\u000a
p361
sg9
g356
sg16
g17
(V{"header": {"number_of_clbits": 3, "number_of_qubits": 3, "clbit_labels": [["err_cr", 3]], "qubit_labels": [["err_qr", 0], ["err_qr", 1], ["err_qr", 2]]}, "operations": [{"texparams": ["1.25314640", "0.00000000", "0.00000000"], "params": [1.253146402931929, 0.0, 0.0], "name": "u3", "qubits": [0]}, {"texparams": [], "params": [], "name": "cx", "qubits": [0, 2]}, {"texparams": ["1.57079633", "0.00000000", "0.00000000"], "params": [1.570796326794897, 0.0, 0.0], "name": "u3", "qubits": [2]}, {"clbits": [2], "name": "measure", "qubits": [2]}, {"texparams": ["1.25314640", "0.00000000", "0.00000000"], "params": [1.253146402931929, 0.0, 0.0], "name": "u3", "qubits": [0]}, {"texparams": [], "params": [], "name": "cx", "qubits": [0, 1]}, {"texparams": ["1.57079633", "0.00000000", "0.00000000"], "params": [1.570796326794897, 0.0, 0.0], "name": "u3", "qubits": [0]}, {"clbits": [0], "name": "measure", "qubits": [0]}, {"texparams": ["-(1.57079633)", "0.00000000", "0.00000000"], "params": [-1.570796326794897, 0.0, 0.0], "name": "u3", "qubits": [1]}, {"clbits": [1], "name": "measure", "qubits": [1]}]}
p362
g19
tp363
Rp364
sg22
g29
sasg30
VSmk0Z14iKyDwqfnd0fYC5jSk8OAF0c
p365
sg9
(dp366
g33
L1024L
sg34
g35
sg36
L10L
sssg33
L1024L
sg37
(lp367
L0L
aL2L
aL0L
aL1L
asg39
(lp368
F0.3438326561673438
aF0.4512235487764512
aF0.4512235487764512
aF0.5487764512235488
aF0.5487764512235488
aF0.6561673438326562
asVmain-counts
p369
(dp370
Vdate
p371
V2018-03-08T21:49:13.848Z
p372
sVcounts
p373
(dp374
V00111
p375
L199L
sV00011
p376
L259L
sV00101
p377
L12L
sV00000
p378
L375L
sV00110
p379
L17L
sV00001
p380
L33L
sV00010
p381
L31L
sV00100
p382
L98L
ssVtime
p383
F23.919005870819092
ssg34
g35
sg56
I00
sg30
g57
sg58
(lp384
F0.3182937576518055
aF0.38851778755601296
aF0.4599609375
aF0.5400390625
aF0.6114822124439869
aF0.6817062423481944
asg60
VCOMPLETED
p385
sVerr-counts
p386
(dp387
g371
V2018-03-08T21:49:13.957Z
p388
sg373
(dp389
g375
L60L
sg376
L90L
sg377
L218L
sg378
L134L
sg379
L149L
sg380
L184L
sg381
L99L
sg382
L90L
ssg383
F23.919005870819092
ssg66
(lp390
F35.9
aF35.9
asg68
g69
sg70
L0L
sa(dp391
g2
(dp392
g4
(lp393
(dp394
g7
VOPENQASM 2.0;\u000ainclude "qelib1.inc";\u000aqreg main_qr[3];\u000acreg main_cr[3];\u000au3(1.005309649148734,0.0,0.0) main_qr[0];\u000acx main_qr[0],main_qr[2];\u000ameasure main_qr[2] -> main_cr[2];\u000au3(1.005309649148734,0.0,0.0) main_qr[0];\u000acx main_qr[0],main_qr[1];\u000ameasure main_qr[0] -> main_cr[0];\u000ameasure main_qr[1] -> main_cr[1];\u000a
p395
sg9
(dp396
g11
Nsg12
Nsg13
g14
sg15
Nssg16
g17
(V{"header": {"number_of_clbits": 3, "number_of_qubits": 3, "clbit_labels": [["main_cr", 3]], "qubit_labels": [["main_qr", 0], ["main_qr", 1], ["main_qr", 2]]}, "operations": [{"texparams": ["1.00530965", "0.00000000", "0.00000000"], "params": [1.005309649148734, 0.0, 0.0], "name": "u3", "qubits": [0]}, {"texparams": [], "params": [], "name": "cx", "qubits": [0, 2]}, {"clbits": [2], "name": "measure", "qubits": [2]}, {"texparams": ["1.00530965", "0.00000000", "0.00000000"], "params": [1.005309649148734, 0.0, 0.0], "name": "u3", "qubits": [0]}, {"texparams": [], "params": [], "name": "cx", "qubits": [0, 1]}, {"clbits": [0], "name": "measure", "qubits": [0]}, {"clbits": [1], "name": "measure", "qubits": [1]}]}
p397
g19
tp398
Rp399
sg22
g23
sa(dp400
g7
VOPENQASM 2.0;\u000ainclude "qelib1.inc";\u000aqreg err_qr[3];\u000acreg err_cr[3];\u000au3(1.005309649148734,0.0,0.0) err_qr[0];\u000acx err_qr[0],err_qr[2];\u000au3(1.570796326794897,0.0,0.0) err_qr[2];\u000ameasure err_qr[2] -> err_cr[2];\u000au3(1.005309649148734,0.0,0.0) err_qr[0];\u000acx err_qr[0],err_qr[1];\u000au3(1.570796326794897,0.0,0.0) err_qr[0];\u000ameasure err_qr[0] -> err_cr[0];\u000au3(-1.570796326794897,0.0,0.0) err_qr[1];\u000ameasure err_qr[1] -> err_cr[1];\u000a
p401
sg9
g396
sg16
g17
(V{"header": {"number_of_clbits": 3, "number_of_qubits": 3, "clbit_labels": [["err_cr", 3]], "qubit_labels": [["err_qr", 0], ["err_qr", 1], ["err_qr", 2]]}, "operations": [{"texparams": ["1.00530965", "0.00000000", "0.00000000"], "params": [1.005309649148734, 0.0, 0.0], "name": "u3", "qubits": [0]}, {"texparams": [], "params": [], "name": "cx", "qubits": [0, 2]}, {"texparams": ["1.57079633", "0.00000000", "0.00000000"], "params": [1.570796326794897, 0.0, 0.0], "name": "u3", "qubits": [2]}, {"clbits": [2], "name": "measure", "qubits": [2]}, {"texparams": ["1.00530965", "0.00000000", "0.00000000"], "params": [1.005309649148734, 0.0, 0.0], "name": "u3", "qubits": [0]}, {"texparams": [], "params": [], "name": "cx", "qubits": [0, 1]}, {"texparams": ["1.57079633", "0.00000000", "0.00000000"], "params": [1.570796326794897, 0.0, 0.0], "name": "u3", "qubits": [0]}, {"clbits": [0], "name": "measure", "qubits": [0]}, {"texparams": ["-(1.57079633)", "0.00000000", "0.00000000"], "params": [-1.570796326794897, 0.0, 0.0], "name": "u3", "qubits": [1]}, {"clbits": [1], "name": "measure", "qubits": [1]}]}
p402
g19
tp403
Rp404
sg22
g29
sasg30
V6cbMZlu3Y24snDdIFYeDyXx8fP7kp0
p405
sg9
(dp406
g33
L1024L
sg34
g35
sg36
L10L
sssg33
L1024L
sg37
(lp407
L0L
aL2L
aL0L
aL1L
asg39
(lp408
F0.23208623208623214
aF0.35644435644435646
aF0.35644435644435646
aF0.6435556435556435
aF0.6435556435556435
aF0.7679137679137679
asVmain-counts
p409
(dp410
Vdate
p411
V2018-03-08T21:49:42.694Z
p412
sVcounts
p413
(dp414
V00111
p415
L170L
sV00011
p416
L212L
sV00101
p417
L15L
sV00000
p418
L483L
sV00110
p419
L13L
sV00001
p420
L51L
sV00010
p421
L35L
sV00100
p422
L45L
ssVtime
p423
F23.70638084411621
ssg34
g35
sg56
I00
sg30
g57
sg58
(lp424
F0.23412200410035192
aF0.3888047325098454
aF0.4247032948195264
aF0.5752967051804736
aF0.6111952674901546
aF0.7658779958996481
asg60
VCOMPLETED
p425
sVerr-counts
p426
(dp427
g411
V2018-03-08T21:49:42.828Z
p428
sg413
(dp429
g415
L37L
sg416
L85L
sg417
L269L
sg418
L119L
sg419
L209L
sg420
L164L
sg421
L102L
sg422
L39L
ssg423
F23.70638084411621
ssg66
(lp430
F28.8
aF28.8
asg68
g69
sg70
L0L
sa.