(lp0
(dp1
Vexp-ON
p2
(lp3
F0.05247751473596935
aF0.06700822156998376
aF0.07061223167069564
aF0.9293877683293044
aF0.9329917784300162
aF0.9475224852640307
asVparameters
p4
(lp5
F0.0
aF0.0
asVbackend
p6
Vibmqx2
p7
sVrun
p8
L0L
sVstatus
p9
VCOMPLETED
p10
sVideal
p11
(lp12
F0.0
aF0.0
aF0.0
aF1.0
aF1.0
aF1.0
asVshots
p13
L1024L
sVcombined
p14
I01
sVqobj
p15
(dp16
Vcircuits
p17
(lp18
(dp19
Vcompiled_circuit_qasm
p20
VOPENQASM 2.0;\u000ainclude "qelib1.inc";\u000aqreg main_qr[3];\u000acreg main_cr[3];\u000au3(0.0,0.0,0.0) main_qr[1];\u000acx main_qr[1],main_qr[2];\u000ameasure main_qr[2] -> main_cr[2];\u000au3(0.0,0.0,0.0) main_qr[0];\u000acx main_qr[0],main_qr[1];\u000ameasure main_qr[0] -> main_cr[0];\u000ameasure main_qr[1] -> main_cr[1];\u000a
p21
sVname
p22
Vmain
p23
sVconfig
p24
(dp25
Vlayout
p26
NsVcoupling_map
p27
NsVbasis_gates
p28
Vu1,u2,u3,cx,id
p29
sVseed
p30
NssVcompiled_circuit
p31
c_codecs
encode
p32
(V{"header": {"clbit_labels": [["main_cr", 3]], "number_of_clbits": 3, "number_of_qubits": 3, "qubit_labels": [["main_qr", 0], ["main_qr", 1], ["main_qr", 2]]}, "operations": [{"texparams": ["0.00000000", "0.00000000", "0.00000000"], "qubits": [1], "params": [0.0, 0.0, 0.0], "name": "u3"}, {"texparams": [], "qubits": [1, 2], "params": [], "name": "cx"}, {"qubits": [2], "clbits": [2], "name": "measure"}, {"texparams": ["0.00000000", "0.00000000", "0.00000000"], "qubits": [0], "params": [0.0, 0.0, 0.0], "name": "u3"}, {"texparams": [], "qubits": [0, 1], "params": [], "name": "cx"}, {"qubits": [0], "clbits": [0], "name": "measure"}, {"qubits": [1], "clbits": [1], "name": "measure"}]}
p33
Vlatin1
p34
tp35
Rp36
sa(dp37
g20
VOPENQASM 2.0;\u000ainclude "qelib1.inc";\u000aqreg err_qr[3];\u000acreg err_cr[3];\u000au3(0.0,0.0,0.0) err_qr[1];\u000acx err_qr[1],err_qr[2];\u000au3(1.570796326794897,0.0,0.0) err_qr[2];\u000ameasure err_qr[2] -> err_cr[2];\u000au3(0.0,0.0,0.0) err_qr[0];\u000acx err_qr[0],err_qr[1];\u000au3(1.570796326794897,0.0,0.0) err_qr[0];\u000ameasure err_qr[0] -> err_cr[0];\u000au3(-1.570796326794897,0.0,0.0) err_qr[1];\u000ameasure err_qr[1] -> err_cr[1];\u000a
p38
sg22
Verr
p39
sg24
g25
sg31
g32
(V{"header": {"clbit_labels": [["err_cr", 3]], "number_of_clbits": 3, "number_of_qubits": 3, "qubit_labels": [["err_qr", 0], ["err_qr", 1], ["err_qr", 2]]}, "operations": [{"texparams": ["0.00000000", "0.00000000", "0.00000000"], "qubits": [1], "params": [0.0, 0.0, 0.0], "name": "u3"}, {"texparams": [], "qubits": [1, 2], "params": [], "name": "cx"}, {"texparams": ["1.57079633", "0.00000000", "0.00000000"], "qubits": [2], "params": [1.570796326794897, 0.0, 0.0], "name": "u3"}, {"qubits": [2], "clbits": [2], "name": "measure"}, {"texparams": ["0.00000000", "0.00000000", "0.00000000"], "qubits": [0], "params": [0.0, 0.0, 0.0], "name": "u3"}, {"texparams": [], "qubits": [0, 1], "params": [], "name": "cx"}, {"texparams": ["1.57079633", "0.00000000", "0.00000000"], "qubits": [0], "params": [1.570796326794897, 0.0, 0.0], "name": "u3"}, {"qubits": [0], "clbits": [0], "name": "measure"}, {"texparams": ["-(1.57079633)", "0.00000000", "0.00000000"], "qubits": [1], "params": [-1.570796326794897, 0.0, 0.0], "name": "u3"}, {"qubits": [1], "clbits": [1], "name": "measure"}]}
p40
g34
tp41
Rp42
sasg24
(dp43
g13
L1024L
sg6
g7
sVmax_credits
p44
L10L
ssVid
p45
VK7RwdvQ34iF2TTIOFd0NCxa3k1Zh4l
p46
ssg45
Vnull
p47
sValgorithm
p48
Vry2p_face2_sparrow
p49
sVorder
p50
(lp51
L1L
aL2L
aL0L
aL1L
asVerr-counts
p52
(dp53
Vtime
p54
F23.80032181739807
sVcounts
p55
(dp56
V00100
p57
L134L
sV00101
p58
L181L
sV00000
p59
L131L
sV00010
p60
L99L
sV00001
p61
L153L
sV00110
p62
L113L
sV00111
p63
L118L
sV00011
p64
L95L
ssVdate
p65
V2018-03-08T22:00:48.074Z
p66
ssVmain-counts
p67
(dp68
g54
F23.80032181739807
sg55
(dp69
g57
L19L
sg58
L2L
sg59
L885L
sg60
L22L
sg61
L37L
sg62
L28L
sg63
L6L
sg64
L25L
ssg65
V2018-03-08T22:00:48.004Z
p70
ssa(dp71
g2
(lp72
F0.39616242577328253
aF0.4256272157630478
aF0.45610897450342924
aF0.5438910254965708
aF0.5743727842369523
aF0.6038375742267175
asg4
(lp73
F45.0
aF45.0
asg6
g7
sg8
L0L
sg9
VCOMPLETED
p74
sg11
(lp75
F0.5
aF0.5
aF0.5
aF0.5
aF0.5
aF0.5
asg13
L1024L
sg14
I01
sg15
(dp76
g17
(lp77
(dp78
g20
VOPENQASM 2.0;\u000ainclude "qelib1.inc";\u000aqreg main_qr[3];\u000acreg main_cr[3];\u000au3(1.570796326794897,0.0,0.0) main_qr[1];\u000acx main_qr[1],main_qr[2];\u000ameasure main_qr[2] -> main_cr[2];\u000au3(1.570796326794897,0.0,0.0) main_qr[0];\u000acx main_qr[0],main_qr[1];\u000ameasure main_qr[0] -> main_cr[0];\u000ameasure main_qr[1] -> main_cr[1];\u000a
p79
sg22
g23
sg24
(dp80
g26
Nsg27
Nsg28
g29
sg30
Nssg31
g32
(V{"header": {"clbit_labels": [["main_cr", 3]], "number_of_clbits": 3, "number_of_qubits": 3, "qubit_labels": [["main_qr", 0], ["main_qr", 1], ["main_qr", 2]]}, "operations": [{"texparams": ["1.57079633", "0.00000000", "0.00000000"], "qubits": [1], "params": [1.570796326794897, 0.0, 0.0], "name": "u3"}, {"texparams": [], "qubits": [1, 2], "params": [], "name": "cx"}, {"qubits": [2], "clbits": [2], "name": "measure"}, {"texparams": ["1.57079633", "0.00000000", "0.00000000"], "qubits": [0], "params": [1.570796326794897, 0.0, 0.0], "name": "u3"}, {"texparams": [], "qubits": [0, 1], "params": [], "name": "cx"}, {"qubits": [0], "clbits": [0], "name": "measure"}, {"qubits": [1], "clbits": [1], "name": "measure"}]}
p81
g34
tp82
Rp83
sa(dp84
g20
VOPENQASM 2.0;\u000ainclude "qelib1.inc";\u000aqreg err_qr[3];\u000acreg err_cr[3];\u000au3(1.570796326794897,0.0,0.0) err_qr[1];\u000acx err_qr[1],err_qr[2];\u000au3(1.570796326794897,0.0,0.0) err_qr[2];\u000ameasure err_qr[2] -> err_cr[2];\u000au3(1.570796326794897,0.0,0.0) err_qr[0];\u000acx err_qr[0],err_qr[1];\u000au3(1.570796326794897,0.0,0.0) err_qr[0];\u000ameasure err_qr[0] -> err_cr[0];\u000au3(-1.570796326794897,0.0,0.0) err_qr[1];\u000ameasure err_qr[1] -> err_cr[1];\u000a
p85
sg22
g39
sg24
g80
sg31
g32
(V{"header": {"clbit_labels": [["err_cr", 3]], "number_of_clbits": 3, "number_of_qubits": 3, "qubit_labels": [["err_qr", 0], ["err_qr", 1], ["err_qr", 2]]}, "operations": [{"texparams": ["1.57079633", "0.00000000", "0.00000000"], "qubits": [1], "params": [1.570796326794897, 0.0, 0.0], "name": "u3"}, {"texparams": [], "qubits": [1, 2], "params": [], "name": "cx"}, {"texparams": ["1.57079633", "0.00000000", "0.00000000"], "qubits": [2], "params": [1.570796326794897, 0.0, 0.0], "name": "u3"}, {"qubits": [2], "clbits": [2], "name": "measure"}, {"texparams": ["1.57079633", "0.00000000", "0.00000000"], "qubits": [0], "params": [1.570796326794897, 0.0, 0.0], "name": "u3"}, {"texparams": [], "qubits": [0, 1], "params": [], "name": "cx"}, {"texparams": ["1.57079633", "0.00000000", "0.00000000"], "qubits": [0], "params": [1.570796326794897, 0.0, 0.0], "name": "u3"}, {"qubits": [0], "clbits": [0], "name": "measure"}, {"texparams": ["-(1.57079633)", "0.00000000", "0.00000000"], "qubits": [1], "params": [-1.570796326794897, 0.0, 0.0], "name": "u3"}, {"qubits": [1], "clbits": [1], "name": "measure"}]}
p86
g34
tp87
Rp88
sasg24
(dp89
g13
L1024L
sg6
g7
sg44
L10L
ssg45
VIANMyjo0BPhzeFdKgauNUDtO7Ui245
p90
ssg45
g47
sg48
g49
sg50
(lp91
L1L
aL2L
aL0L
aL1L
asVerr-counts
p92
(dp93
Vtime
p94
F23.643126010894775
sVcounts
p95
(dp96
V00100
p97
L34L
sV00101
p98
L431L
sV00000
p99
L18L
sV00010
p100
L361L
sV00001
p101
L53L
sV00110
p102
L44L
sV00111
p103
L33L
sV00011
p104
L50L
ssVdate
p105
V2018-03-08T22:05:24.473Z
p106
ssVmain-counts
p107
(dp108
g94
F23.643126010894775
sg95
(dp109
g97
L20L
sg98
L251L
sg99
L227L
sg100
L29L
sg101
L52L
sg102
L145L
sg103
L26L
sg104
L274L
ssg105
V2018-03-08T22:05:24.459Z
p110
ssa(dp111
g2
(lp112
F0.20053427906089463
aF0.24964548451675259
aF0.302734375
aF0.697265625
aF0.7503545154832474
aF0.7994657209391054
asg4
(lp113
F24.8
aF24.8
asg6
g7
sg8
L0L
sg9
VCOMPLETED
p114
sg11
(lp115
F0.17593999999999999
aF0.17593999999999999
aF0.28997000000000006
aF0.7100299999999999
aF0.82406
aF0.82406
asg13
L1024L
sg14
I01
sg15
(dp116
g17
(lp117
(dp118
g20
VOPENQASM 2.0;\u000ainclude "qelib1.inc";\u000aqreg main_qr[3];\u000acreg main_cr[3];\u000au3(0.865683308989187,0.0,0.0) main_qr[1];\u000acx main_qr[1],main_qr[2];\u000ameasure main_qr[2] -> main_cr[2];\u000au3(0.865683308989187,0.0,0.0) main_qr[0];\u000acx main_qr[0],main_qr[1];\u000ameasure main_qr[0] -> main_cr[0];\u000ameasure main_qr[1] -> main_cr[1];\u000a
p119
sg22
g23
sg24
(dp120
g26
Nsg27
Nsg28
g29
sg30
Nssg31
g32
(V{"header": {"clbit_labels": [["main_cr", 3]], "number_of_clbits": 3, "number_of_qubits": 3, "qubit_labels": [["main_qr", 0], ["main_qr", 1], ["main_qr", 2]]}, "operations": [{"texparams": ["0.86568331", "0.00000000", "0.00000000"], "qubits": [1], "params": [0.865683308989187, 0.0, 0.0], "name": "u3"}, {"texparams": [], "qubits": [1, 2], "params": [], "name": "cx"}, {"qubits": [2], "clbits": [2], "name": "measure"}, {"texparams": ["0.86568331", "0.00000000", "0.00000000"], "qubits": [0], "params": [0.865683308989187, 0.0, 0.0], "name": "u3"}, {"texparams": [], "qubits": [0, 1], "params": [], "name": "cx"}, {"qubits": [0], "clbits": [0], "name": "measure"}, {"qubits": [1], "clbits": [1], "name": "measure"}]}
p121
g34
tp122
Rp123
sa(dp124
g20
VOPENQASM 2.0;\u000ainclude "qelib1.inc";\u000aqreg err_qr[3];\u000acreg err_cr[3];\u000au3(0.865683308989187,0.0,0.0) err_qr[1];\u000acx err_qr[1],err_qr[2];\u000au3(1.570796326794897,0.0,0.0) err_qr[2];\u000ameasure err_qr[2] -> err_cr[2];\u000au3(0.865683308989187,0.0,0.0) err_qr[0];\u000acx err_qr[0],err_qr[1];\u000au3(1.570796326794897,0.0,0.0) err_qr[0];\u000ameasure err_qr[0] -> err_cr[0];\u000au3(-1.570796326794897,0.0,0.0) err_qr[1];\u000ameasure err_qr[1] -> err_cr[1];\u000a
p125
sg22
g39
sg24
g120
sg31
g32
(V{"header": {"clbit_labels": [["err_cr", 3]], "number_of_clbits": 3, "number_of_qubits": 3, "qubit_labels": [["err_qr", 0], ["err_qr", 1], ["err_qr", 2]]}, "operations": [{"texparams": ["0.86568331", "0.00000000", "0.00000000"], "qubits": [1], "params": [0.865683308989187, 0.0, 0.0], "name": "u3"}, {"texparams": [], "qubits": [1, 2], "params": [], "name": "cx"}, {"texparams": ["1.57079633", "0.00000000", "0.00000000"], "qubits": [2], "params": [1.570796326794897, 0.0, 0.0], "name": "u3"}, {"qubits": [2], "clbits": [2], "name": "measure"}, {"texparams": ["0.86568331", "0.00000000", "0.00000000"], "qubits": [0], "params": [0.865683308989187, 0.0, 0.0], "name": "u3"}, {"texparams": [], "qubits": [0, 1], "params": [], "name": "cx"}, {"texparams": ["1.57079633", "0.00000000", "0.00000000"], "qubits": [0], "params": [1.570796326794897, 0.0, 0.0], "name": "u3"}, {"qubits": [0], "clbits": [0], "name": "measure"}, {"texparams": ["-(1.57079633)", "0.00000000", "0.00000000"], "qubits": [1], "params": [-1.570796326794897, 0.0, 0.0], "name": "u3"}, {"qubits": [1], "clbits": [1], "name": "measure"}]}
p126
g34
tp127
Rp128
sasg24
(dp129
g13
L1024L
sg6
g7
sg44
L10L
ssg45
VzlHM0S6DlBkXKMJH2HfnhStm5FA0Wz
p130
ssg45
g47
sg48
g49
sg50
(lp131
L1L
aL2L
aL0L
aL1L
asVerr-counts
p132
(dp133
Vtime
p134
F23.882803916931152
sVcounts
p135
(dp136
V00100
p137
L56L
sV00101
p138
L368L
sV00000
p139
L24L
sV00010
p140
L297L
sV00001
p141
L104L
sV00110
p142
L74L
sV00111
p143
L34L
sV00011
p144
L67L
ssVdate
p145
V2018-03-08T22:09:08.609Z
p146
ssVmain-counts
p147
(dp148
g134
F23.882803916931152
sg135
(dp149
g137
L21L
sg138
L47L
sg139
L587L
sg140
L30L
sg141
L55L
sg142
L123L
sg143
L15L
sg144
L146L
ssg145
V2018-03-08T22:09:08.481Z
p150
ssa(dp151
g2
(lp152
F0.3230265041733716
aF0.4176612441475338
aF0.431640625
aF0.568359375
aF0.5823387558524662
aF0.6769734958266284
asg4
(lp153
F38.7
aF38.7
asg6
g7
sg8
L0L
sg9
VCOMPLETED
p154
sg11
(lp155
F0.39092839092839093
aF0.39092839092839093
aF0.47620647620647627
aF0.5237935237935237
aF0.6090716090716091
aF0.6090716090716091
asg13
L1024L
sg14
I01
sg15
(dp156
g17
(lp157
(dp158
g20
VOPENQASM 2.0;\u000ainclude "qelib1.inc";\u000aqreg main_qr[3];\u000acreg main_cr[3];\u000au3(1.350884841043611,0.0,0.0) main_qr[1];\u000acx main_qr[1],main_qr[2];\u000ameasure main_qr[2] -> main_cr[2];\u000au3(1.350884841043611,0.0,0.0) main_qr[0];\u000acx main_qr[0],main_qr[1];\u000ameasure main_qr[0] -> main_cr[0];\u000ameasure main_qr[1] -> main_cr[1];\u000a
p159
sg22
g23
sg24
(dp160
g26
Nsg27
Nsg28
g29
sg30
Nssg31
g32
(V{"header": {"clbit_labels": [["main_cr", 3]], "number_of_clbits": 3, "number_of_qubits": 3, "qubit_labels": [["main_qr", 0], ["main_qr", 1], ["main_qr", 2]]}, "operations": [{"texparams": ["1.35088484", "0.00000000", "0.00000000"], "qubits": [1], "params": [1.350884841043611, 0.0, 0.0], "name": "u3"}, {"texparams": [], "qubits": [1, 2], "params": [], "name": "cx"}, {"qubits": [2], "clbits": [2], "name": "measure"}, {"texparams": ["1.35088484", "0.00000000", "0.00000000"], "qubits": [0], "params": [1.350884841043611, 0.0, 0.0], "name": "u3"}, {"texparams": [], "qubits": [0, 1], "params": [], "name": "cx"}, {"qubits": [0], "clbits": [0], "name": "measure"}, {"qubits": [1], "clbits": [1], "name": "measure"}]}
p161
g34
tp162
Rp163
sa(dp164
g20
VOPENQASM 2.0;\u000ainclude "qelib1.inc";\u000aqreg err_qr[3];\u000acreg err_cr[3];\u000au3(1.350884841043611,0.0,0.0) err_qr[1];\u000acx err_qr[1],err_qr[2];\u000au3(1.570796326794897,0.0,0.0) err_qr[2];\u000ameasure err_qr[2] -> err_cr[2];\u000au3(1.350884841043611,0.0,0.0) err_qr[0];\u000acx err_qr[0],err_qr[1];\u000au3(1.570796326794897,0.0,0.0) err_qr[0];\u000ameasure err_qr[0] -> err_cr[0];\u000au3(-1.570796326794897,0.0,0.0) err_qr[1];\u000ameasure err_qr[1] -> err_cr[1];\u000a
p165
sg22
g39
sg24
g160
sg31
g32
(V{"header": {"clbit_labels": [["err_cr", 3]], "number_of_clbits": 3, "number_of_qubits": 3, "qubit_labels": [["err_qr", 0], ["err_qr", 1], ["err_qr", 2]]}, "operations": [{"texparams": ["1.35088484", "0.00000000", "0.00000000"], "qubits": [1], "params": [1.350884841043611, 0.0, 0.0], "name": "u3"}, {"texparams": [], "qubits": [1, 2], "params": [], "name": "cx"}, {"texparams": ["1.57079633", "0.00000000", "0.00000000"], "qubits": [2], "params": [1.570796326794897, 0.0, 0.0], "name": "u3"}, {"qubits": [2], "clbits": [2], "name": "measure"}, {"texparams": ["1.35088484", "0.00000000", "0.00000000"], "qubits": [0], "params": [1.350884841043611, 0.0, 0.0], "name": "u3"}, {"texparams": [], "qubits": [0, 1], "params": [], "name": "cx"}, {"texparams": ["1.57079633", "0.00000000", "0.00000000"], "qubits": [0], "params": [1.570796326794897, 0.0, 0.0], "name": "u3"}, {"qubits": [0], "clbits": [0], "name": "measure"}, {"texparams": ["-(1.57079633)", "0.00000000", "0.00000000"], "qubits": [1], "params": [-1.570796326794897, 0.0, 0.0], "name": "u3"}, {"qubits": [1], "clbits": [1], "name": "measure"}]}
p166
g34
tp167
Rp168
sasg24
(dp169
g13
L1024L
sg6
g7
sg44
L10L
ssg45
VcKM5ZYKSmvfoDsxa7UAFBmksc8wEBs
p170
ssg45
g47
sg48
g49
sg50
(lp171
L1L
aL2L
aL0L
aL1L
asVerr-counts
p172
(dp173
Vtime
p174
F23.930202960968018
sVcounts
p175
(dp176
V00100
p177
L39L
sV00101
p178
L449L
sV00000
p179
L11L
sV00010
p180
L347L
sV00001
p181
L55L
sV00110
p182
L45L
sV00111
p183
L39L
sV00011
p184
L39L
ssVdate
p185
V2018-03-08T22:11:29.678Z
p186
ssVmain-counts
p187
(dp188
g174
F23.930202960968018
sg175
(dp189
g177
L18L
sg178
L156L
sg179
L353L
sg180
L37L
sg181
L41L
sg182
L151L
sg183
L16L
sg184
L252L
ssg185
V2018-03-08T22:11:29.535Z
p190
ssa(dp191
g2
(lp192
F0.2511834499110951
aF0.30117897391111004
aF0.38511374086052547
aF0.6148862591394746
aF0.69882102608889
aF0.7488165500889049
asg4
(lp193
F31.8
aF31.8
asg6
g7
sg8
L0L
sg9
VCOMPLETED
p194
sg11
(lp195
F0.27768272231727764
aF0.27768272231727764
aF0.40114959885040113
aF0.5988504011495989
aF0.7223172776827224
aF0.7223172776827224
asg13
L1024L
sg14
I01
sg15
(dp196
g17
(lp197
(dp198
g20
VOPENQASM 2.0;\u000ainclude "qelib1.inc";\u000aqreg main_qr[3];\u000acreg main_cr[3];\u000au3(1.110029404268394,0.0,0.0) main_qr[1];\u000acx main_qr[1],main_qr[2];\u000ameasure main_qr[2] -> main_cr[2];\u000au3(1.110029404268394,0.0,0.0) main_qr[0];\u000acx main_qr[0],main_qr[1];\u000ameasure main_qr[0] -> main_cr[0];\u000ameasure main_qr[1] -> main_cr[1];\u000a
p199
sg22
g23
sg24
(dp200
g26
Nsg27
Nsg28
g29
sg30
Nssg31
g32
(V{"header": {"clbit_labels": [["main_cr", 3]], "number_of_clbits": 3, "number_of_qubits": 3, "qubit_labels": [["main_qr", 0], ["main_qr", 1], ["main_qr", 2]]}, "operations": [{"texparams": ["1.11002940", "0.00000000", "0.00000000"], "qubits": [1], "params": [1.110029404268394, 0.0, 0.0], "name": "u3"}, {"texparams": [], "qubits": [1, 2], "params": [], "name": "cx"}, {"qubits": [2], "clbits": [2], "name": "measure"}, {"texparams": ["1.11002940", "0.00000000", "0.00000000"], "qubits": [0], "params": [1.110029404268394, 0.0, 0.0], "name": "u3"}, {"texparams": [], "qubits": [0, 1], "params": [], "name": "cx"}, {"qubits": [0], "clbits": [0], "name": "measure"}, {"qubits": [1], "clbits": [1], "name": "measure"}]}
p201
g34
tp202
Rp203
sa(dp204
g20
VOPENQASM 2.0;\u000ainclude "qelib1.inc";\u000aqreg err_qr[3];\u000acreg err_cr[3];\u000au3(1.110029404268394,0.0,0.0) err_qr[1];\u000acx err_qr[1],err_qr[2];\u000au3(1.570796326794897,0.0,0.0) err_qr[2];\u000ameasure err_qr[2] -> err_cr[2];\u000au3(1.110029404268394,0.0,0.0) err_qr[0];\u000acx err_qr[0],err_qr[1];\u000au3(1.570796326794897,0.0,0.0) err_qr[0];\u000ameasure err_qr[0] -> err_cr[0];\u000au3(-1.570796326794897,0.0,0.0) err_qr[1];\u000ameasure err_qr[1] -> err_cr[1];\u000a
p205
sg22
g39
sg24
g200
sg31
g32
(V{"header": {"clbit_labels": [["err_cr", 3]], "number_of_clbits": 3, "number_of_qubits": 3, "qubit_labels": [["err_qr", 0], ["err_qr", 1], ["err_qr", 2]]}, "operations": [{"texparams": ["1.11002940", "0.00000000", "0.00000000"], "qubits": [1], "params": [1.110029404268394, 0.0, 0.0], "name": "u3"}, {"texparams": [], "qubits": [1, 2], "params": [], "name": "cx"}, {"texparams": ["1.57079633", "0.00000000", "0.00000000"], "qubits": [2], "params": [1.570796326794897, 0.0, 0.0], "name": "u3"}, {"qubits": [2], "clbits": [2], "name": "measure"}, {"texparams": ["1.11002940", "0.00000000", "0.00000000"], "qubits": [0], "params": [1.110029404268394, 0.0, 0.0], "name": "u3"}, {"texparams": [], "qubits": [0, 1], "params": [], "name": "cx"}, {"texparams": ["1.57079633", "0.00000000", "0.00000000"], "qubits": [0], "params": [1.570796326794897, 0.0, 0.0], "name": "u3"}, {"qubits": [0], "clbits": [0], "name": "measure"}, {"texparams": ["-(1.57079633)", "0.00000000", "0.00000000"], "qubits": [1], "params": [-1.570796326794897, 0.0, 0.0], "name": "u3"}, {"qubits": [1], "clbits": [1], "name": "measure"}]}
p206
g34
tp207
Rp208
sasg24
(dp209
g13
L1024L
sg6
g7
sg44
L10L
ssg45
V3tftcK07mgycCG4xuTKoJ5wYEPL67L
p210
ssg45
g47
sg48
g49
sg50
(lp211
L1L
aL2L
aL0L
aL1L
asVerr-counts
p212
(dp213
Vtime
p214
F23.621128797531128
sVcounts
p215
(dp216
V00100
p217
L46L
sV00101
p218
L435L
sV00000
p219
L19L
sV00010
p220
L307L
sV00001
p221
L80L
sV00110
p222
L55L
sV00111
p223
L30L
sV00011
p224
L52L
ssVdate
p225
V2018-03-08T22:13:50.405Z
p226
ssVmain-counts
p227
(dp228
g214
F23.621128797531128
sg215
(dp229
g217
L22L
sg218
L77L
sg219
L483L
sg220
L40L
sg221
L26L
sg222
L152L
sg223
L12L
sg224
L212L
ssg225
V2018-03-08T22:13:50.324Z
p230
ssa(dp231
g2
(lp232
F0.08337847636311499
aF0.11439752332287692
aF0.1549747885365329
aF0.8450252114634671
aF0.8856024766771231
aF0.916621523636885
asg4
(lp233
F14.2
aF14.2
asg6
g7
sg8
L0L
sg9
VCOMPLETED
p234
sg11
(lp235
F0.06017593982406011
aF0.06017593982406011
aF0.11310988689011303
aF0.886890113109887
aF0.9398240601759399
aF0.9398240601759399
asg13
L1024L
sg14
I01
sg15
(dp236
g17
(lp237
(dp238
g20
VOPENQASM 2.0;\u000ainclude "qelib1.inc";\u000aqreg main_qr[3];\u000acreg main_cr[3];\u000au3(0.49567350756639,0.0,0.0) main_qr[1];\u000acx main_qr[1],main_qr[2];\u000ameasure main_qr[2] -> main_cr[2];\u000au3(0.49567350756639,0.0,0.0) main_qr[0];\u000acx main_qr[0],main_qr[1];\u000ameasure main_qr[0] -> main_cr[0];\u000ameasure main_qr[1] -> main_cr[1];\u000a
p239
sg22
g23
sg24
(dp240
g26
Nsg27
Nsg28
g29
sg30
Nssg31
g32
(V{"header": {"clbit_labels": [["main_cr", 3]], "number_of_clbits": 3, "number_of_qubits": 3, "qubit_labels": [["main_qr", 0], ["main_qr", 1], ["main_qr", 2]]}, "operations": [{"texparams": ["0.49567351", "0.00000000", "0.00000000"], "qubits": [1], "params": [0.49567350756639, 0.0, 0.0], "name": "u3"}, {"texparams": [], "qubits": [1, 2], "params": [], "name": "cx"}, {"qubits": [2], "clbits": [2], "name": "measure"}, {"texparams": ["0.49567351", "0.00000000", "0.00000000"], "qubits": [0], "params": [0.49567350756639, 0.0, 0.0], "name": "u3"}, {"texparams": [], "qubits": [0, 1], "params": [], "name": "cx"}, {"qubits": [0], "clbits": [0], "name": "measure"}, {"qubits": [1], "clbits": [1], "name": "measure"}]}
p241
g34
tp242
Rp243
sa(dp244
g20
VOPENQASM 2.0;\u000ainclude "qelib1.inc";\u000aqreg err_qr[3];\u000acreg err_cr[3];\u000au3(0.49567350756639,0.0,0.0) err_qr[1];\u000acx err_qr[1],err_qr[2];\u000au3(1.570796326794897,0.0,0.0) err_qr[2];\u000ameasure err_qr[2] -> err_cr[2];\u000au3(0.49567350756639,0.0,0.0) err_qr[0];\u000acx err_qr[0],err_qr[1];\u000au3(1.570796326794897,0.0,0.0) err_qr[0];\u000ameasure err_qr[0] -> err_cr[0];\u000au3(-1.570796326794897,0.0,0.0) err_qr[1];\u000ameasure err_qr[1] -> err_cr[1];\u000a
p245
sg22
g39
sg24
g240
sg31
g32
(V{"header": {"clbit_labels": [["err_cr", 3]], "number_of_clbits": 3, "number_of_qubits": 3, "qubit_labels": [["err_qr", 0], ["err_qr", 1], ["err_qr", 2]]}, "operations": [{"texparams": ["0.49567351", "0.00000000", "0.00000000"], "qubits": [1], "params": [0.49567350756639, 0.0, 0.0], "name": "u3"}, {"texparams": [], "qubits": [1, 2], "params": [], "name": "cx"}, {"texparams": ["1.57079633", "0.00000000", "0.00000000"], "qubits": [2], "params": [1.570796326794897, 0.0, 0.0], "name": "u3"}, {"qubits": [2], "clbits": [2], "name": "measure"}, {"texparams": ["0.49567351", "0.00000000", "0.00000000"], "qubits": [0], "params": [0.49567350756639, 0.0, 0.0], "name": "u3"}, {"texparams": [], "qubits": [0, 1], "params": [], "name": "cx"}, {"texparams": ["1.57079633", "0.00000000", "0.00000000"], "qubits": [0], "params": [1.570796326794897, 0.0, 0.0], "name": "u3"}, {"qubits": [0], "clbits": [0], "name": "measure"}, {"texparams": ["-(1.57079633)", "0.00000000", "0.00000000"], "qubits": [1], "params": [-1.570796326794897, 0.0, 0.0], "name": "u3"}, {"qubits": [1], "clbits": [1], "name": "measure"}]}
p246
g34
tp247
Rp248
sasg24
(dp249
g13
L1024L
sg6
g7
sg44
L10L
ssg45
VYOJaRD50XdxLnOLEAiNKxIhy21YSds
p250
ssg45
g47
sg48
g49
sg50
(lp251
L1L
aL2L
aL0L
aL1L
asVerr-counts
p252
(dp253
Vtime
p254
F23.64711022377014
sVcounts
p255
(dp256
V00100
p257
L114L
sV00101
p258
L283L
sV00000
p259
L58L
sV00010
p260
L232L
sV00001
p261
L118L
sV00110
p262
L82L
sV00111
p263
L56L
sV00011
p264
L81L
ssVdate
p265
V2018-03-08T22:16:11.316Z
p266
ssVmain-counts
p267
(dp268
g254
F23.64711022377014
sg255
(dp269
g257
L19L
sg258
L5L
sg259
L796L
sg260
L35L
sg261
L40L
sg262
L56L
sg263
L6L
sg264
L67L
ssg265
V2018-03-08T22:16:11.247Z
p270
ssa(dp271
g2
(lp272
F0.14896279478408447
aF0.1769068390172455
aF0.24522197436554427
aF0.7547780256344557
aF0.8230931609827545
aF0.8510372052159155
asg4
(lp273
F20.2
aF20.2
asg6
g7
sg8
L0L
sg9
VCOMPLETED
p274
sg11
(lp275
F0.11923100000000009
aF0.11923100000000009
aF0.21003000000000005
aF0.78997
aF0.8807689999999999
aF0.8807689999999999
asg13
L1024L
sg14
I01
sg15
(dp276
g17
(lp277
(dp278
g20
VOPENQASM 2.0;\u000ainclude "qelib1.inc";\u000aqreg main_qr[3];\u000acreg main_cr[3];\u000au3(0.705113017805709,0.0,0.0) main_qr[1];\u000acx main_qr[1],main_qr[2];\u000ameasure main_qr[2] -> main_cr[2];\u000au3(0.705113017805709,0.0,0.0) main_qr[0];\u000acx main_qr[0],main_qr[1];\u000ameasure main_qr[0] -> main_cr[0];\u000ameasure main_qr[1] -> main_cr[1];\u000a
p279
sg22
g23
sg24
(dp280
g26
Nsg27
Nsg28
g29
sg30
Nssg31
g32
(V{"header": {"clbit_labels": [["main_cr", 3]], "number_of_clbits": 3, "number_of_qubits": 3, "qubit_labels": [["main_qr", 0], ["main_qr", 1], ["main_qr", 2]]}, "operations": [{"texparams": ["0.70511302", "0.00000000", "0.00000000"], "qubits": [1], "params": [0.705113017805709, 0.0, 0.0], "name": "u3"}, {"texparams": [], "qubits": [1, 2], "params": [], "name": "cx"}, {"qubits": [2], "clbits": [2], "name": "measure"}, {"texparams": ["0.70511302", "0.00000000", "0.00000000"], "qubits": [0], "params": [0.705113017805709, 0.0, 0.0], "name": "u3"}, {"texparams": [], "qubits": [0, 1], "params": [], "name": "cx"}, {"qubits": [0], "clbits": [0], "name": "measure"}, {"qubits": [1], "clbits": [1], "name": "measure"}]}
p281
g34
tp282
Rp283
sa(dp284
g20
VOPENQASM 2.0;\u000ainclude "qelib1.inc";\u000aqreg err_qr[3];\u000acreg err_cr[3];\u000au3(0.705113017805709,0.0,0.0) err_qr[1];\u000acx err_qr[1],err_qr[2];\u000au3(1.570796326794897,0.0,0.0) err_qr[2];\u000ameasure err_qr[2] -> err_cr[2];\u000au3(0.705113017805709,0.0,0.0) err_qr[0];\u000acx err_qr[0],err_qr[1];\u000au3(1.570796326794897,0.0,0.0) err_qr[0];\u000ameasure err_qr[0] -> err_cr[0];\u000au3(-1.570796326794897,0.0,0.0) err_qr[1];\u000ameasure err_qr[1] -> err_cr[1];\u000a
p285
sg22
g39
sg24
g280
sg31
g32
(V{"header": {"clbit_labels": [["err_cr", 3]], "number_of_clbits": 3, "number_of_qubits": 3, "qubit_labels": [["err_qr", 0], ["err_qr", 1], ["err_qr", 2]]}, "operations": [{"texparams": ["0.70511302", "0.00000000", "0.00000000"], "qubits": [1], "params": [0.705113017805709, 0.0, 0.0], "name": "u3"}, {"texparams": [], "qubits": [1, 2], "params": [], "name": "cx"}, {"texparams": ["1.57079633", "0.00000000", "0.00000000"], "qubits": [2], "params": [1.570796326794897, 0.0, 0.0], "name": "u3"}, {"qubits": [2], "clbits": [2], "name": "measure"}, {"texparams": ["0.70511302", "0.00000000", "0.00000000"], "qubits": [0], "params": [0.705113017805709, 0.0, 0.0], "name": "u3"}, {"texparams": [], "qubits": [0, 1], "params": [], "name": "cx"}, {"texparams": ["1.57079633", "0.00000000", "0.00000000"], "qubits": [0], "params": [1.570796326794897, 0.0, 0.0], "name": "u3"}, {"qubits": [0], "clbits": [0], "name": "measure"}, {"texparams": ["-(1.57079633)", "0.00000000", "0.00000000"], "qubits": [1], "params": [-1.570796326794897, 0.0, 0.0], "name": "u3"}, {"qubits": [1], "clbits": [1], "name": "measure"}]}
p286
g34
tp287
Rp288
sasg24
(dp289
g13
L1024L
sg6
g7
sg44
L10L
ssg45
V212qosta4ffV8UgCT900onyqz9ekSe
p290
ssg45
g47
sg48
g49
sg50
(lp291
L1L
aL2L
aL0L
aL1L
asVerr-counts
p292
(dp293
Vtime
p294
F23.7123019695282
sVcounts
p295
(dp296
V00100
p297
L81L
sV00101
p298
L366L
sV00000
p299
L36L
sV00010
p300
L251L
sV00001
p301
L110L
sV00110
p302
L68L
sV00111
p303
L39L
sV00011
p304
L73L
ssVdate
p305
V2018-03-08T22:18:32.442Z
p306
ssVmain-counts
p307
(dp308
g294
F23.7123019695282
sg295
(dp309
g297
L13L
sg298
L30L
sg299
L679L
sg300
L39L
sg301
L38L
sg302
L103L
sg303
L9L
sg304
L113L
ssg305
V2018-03-08T22:18:32.337Z
p310
ssa(dp311
g2
(lp312
F0.34923570164914186
aF0.42432428216383056
aF0.4300887643394709
aF0.569911235660529
aF0.5756757178361694
aF0.6507642983508581
asg4
(lp313
F41.6
aF41.6
asg6
g7
sg8
L0L
sg9
VCOMPLETED
p314
sg11
(lp315
F0.440798
aF0.440798
aF0.49299000000000004
aF0.50701
aF0.559202
aF0.559202
asg13
L1024L
sg14
I01
sg15
(dp316
g17
(lp317
(dp318
g20
VOPENQASM 2.0;\u000ainclude "qelib1.inc";\u000aqreg main_qr[3];\u000acreg main_cr[3];\u000au3(1.452113937659282,0.0,0.0) main_qr[1];\u000acx main_qr[1],main_qr[2];\u000ameasure main_qr[2] -> main_cr[2];\u000au3(1.452113937659282,0.0,0.0) main_qr[0];\u000acx main_qr[0],main_qr[1];\u000ameasure main_qr[0] -> main_cr[0];\u000ameasure main_qr[1] -> main_cr[1];\u000a
p319
sg22
g23
sg24
(dp320
g26
Nsg27
Nsg28
g29
sg30
Nssg31
g32
(V{"header": {"clbit_labels": [["main_cr", 3]], "number_of_clbits": 3, "number_of_qubits": 3, "qubit_labels": [["main_qr", 0], ["main_qr", 1], ["main_qr", 2]]}, "operations": [{"texparams": ["1.45211394", "0.00000000", "0.00000000"], "qubits": [1], "params": [1.452113937659282, 0.0, 0.0], "name": "u3"}, {"texparams": [], "qubits": [1, 2], "params": [], "name": "cx"}, {"qubits": [2], "clbits": [2], "name": "measure"}, {"texparams": ["1.45211394", "0.00000000", "0.00000000"], "qubits": [0], "params": [1.452113937659282, 0.0, 0.0], "name": "u3"}, {"texparams": [], "qubits": [0, 1], "params": [], "name": "cx"}, {"qubits": [0], "clbits": [0], "name": "measure"}, {"qubits": [1], "clbits": [1], "name": "measure"}]}
p321
g34
tp322
Rp323
sa(dp324
g20
VOPENQASM 2.0;\u000ainclude "qelib1.inc";\u000aqreg err_qr[3];\u000acreg err_cr[3];\u000au3(1.452113937659282,0.0,0.0) err_qr[1];\u000acx err_qr[1],err_qr[2];\u000au3(1.570796326794897,0.0,0.0) err_qr[2];\u000ameasure err_qr[2] -> err_cr[2];\u000au3(1.452113937659282,0.0,0.0) err_qr[0];\u000acx err_qr[0],err_qr[1];\u000au3(1.570796326794897,0.0,0.0) err_qr[0];\u000ameasure err_qr[0] -> err_cr[0];\u000au3(-1.570796326794897,0.0,0.0) err_qr[1];\u000ameasure err_qr[1] -> err_cr[1];\u000a
p325
sg22
g39
sg24
g320
sg31
g32
(V{"header": {"clbit_labels": [["err_cr", 3]], "number_of_clbits": 3, "number_of_qubits": 3, "qubit_labels": [["err_qr", 0], ["err_qr", 1], ["err_qr", 2]]}, "operations": [{"texparams": ["1.45211394", "0.00000000", "0.00000000"], "qubits": [1], "params": [1.452113937659282, 0.0, 0.0], "name": "u3"}, {"texparams": [], "qubits": [1, 2], "params": [], "name": "cx"}, {"texparams": ["1.57079633", "0.00000000", "0.00000000"], "qubits": [2], "params": [1.570796326794897, 0.0, 0.0], "name": "u3"}, {"qubits": [2], "clbits": [2], "name": "measure"}, {"texparams": ["1.45211394", "0.00000000", "0.00000000"], "qubits": [0], "params": [1.452113937659282, 0.0, 0.0], "name": "u3"}, {"texparams": [], "qubits": [0, 1], "params": [], "name": "cx"}, {"texparams": ["1.57079633", "0.00000000", "0.00000000"], "qubits": [0], "params": [1.570796326794897, 0.0, 0.0], "name": "u3"}, {"qubits": [0], "clbits": [0], "name": "measure"}, {"texparams": ["-(1.57079633)", "0.00000000", "0.00000000"], "qubits": [1], "params": [-1.570796326794897, 0.0, 0.0], "name": "u3"}, {"qubits": [1], "clbits": [1], "name": "measure"}]}
p326
g34
tp327
Rp328
sasg24
(dp329
g13
L1024L
sg6
g7
sg44
L10L
ssg45
VebpZXEARAYBVHtfXcGtaSIOr6YiN1d
p330
ssg45
g47
sg48
g49
sg50
(lp331
L1L
aL2L
aL0L
aL1L
asVerr-counts
p332
(dp333
Vtime
p334
F23.41508913040161
sVcounts
p335
(dp336
V00100
p337
L41L
sV00101
p338
L457L
sV00000
p339
L14L
sV00010
p340
L356L
sV00001
p341
L47L
sV00110
p342
L27L
sV00111
p343
L40L
sV00011
p344
L42L
ssVdate
p345
V2018-03-08T22:19:00.997Z
p346
ssVmain-counts
p347
(dp348
g334
F23.41508913040161
sg335
(dp349
g337
L19L
sg338
L175L
sg339
L319L
sg340
L39L
sg341
L53L
sg342
L158L
sg343
L15L
sg344
L246L
ssg345
V2018-03-08T22:19:00.895Z
p350
ssa(dp351
g2
(lp352
F0.2960643804077458
aF0.3921351463165306
aF0.42036972604728046
aF0.5796302739527193
aF0.6078648536834693
aF0.7039356195922541
asg4
(lp353
F35.9
aF35.9
asg6
g7
sg8
L0L
sg9
VCOMPLETED
p354
sg11
(lp355
F0.3438326561673438
aF0.3438326561673438
aF0.4512235487764512
aF0.5487764512235488
aF0.6561673438326562
aF0.6561673438326562
asg13
L1024L
sg14
I01
sg15
(dp356
g17
(lp357
(dp358
g20
VOPENQASM 2.0;\u000ainclude "qelib1.inc";\u000aqreg main_qr[3];\u000acreg main_cr[3];\u000au3(1.253146402931929,0.0,0.0) main_qr[1];\u000acx main_qr[1],main_qr[2];\u000ameasure main_qr[2] -> main_cr[2];\u000au3(1.253146402931929,0.0,0.0) main_qr[0];\u000acx main_qr[0],main_qr[1];\u000ameasure main_qr[0] -> main_cr[0];\u000ameasure main_qr[1] -> main_cr[1];\u000a
p359
sg22
g23
sg24
(dp360
g26
Nsg27
Nsg28
g29
sg30
Nssg31
g32
(V{"header": {"clbit_labels": [["main_cr", 3]], "number_of_clbits": 3, "number_of_qubits": 3, "qubit_labels": [["main_qr", 0], ["main_qr", 1], ["main_qr", 2]]}, "operations": [{"texparams": ["1.25314640", "0.00000000", "0.00000000"], "qubits": [1], "params": [1.253146402931929, 0.0, 0.0], "name": "u3"}, {"texparams": [], "qubits": [1, 2], "params": [], "name": "cx"}, {"qubits": [2], "clbits": [2], "name": "measure"}, {"texparams": ["1.25314640", "0.00000000", "0.00000000"], "qubits": [0], "params": [1.253146402931929, 0.0, 0.0], "name": "u3"}, {"texparams": [], "qubits": [0, 1], "params": [], "name": "cx"}, {"qubits": [0], "clbits": [0], "name": "measure"}, {"qubits": [1], "clbits": [1], "name": "measure"}]}
p361
g34
tp362
Rp363
sa(dp364
g20
VOPENQASM 2.0;\u000ainclude "qelib1.inc";\u000aqreg err_qr[3];\u000acreg err_cr[3];\u000au3(1.253146402931929,0.0,0.0) err_qr[1];\u000acx err_qr[1],err_qr[2];\u000au3(1.570796326794897,0.0,0.0) err_qr[2];\u000ameasure err_qr[2] -> err_cr[2];\u000au3(1.253146402931929,0.0,0.0) err_qr[0];\u000acx err_qr[0],err_qr[1];\u000au3(1.570796326794897,0.0,0.0) err_qr[0];\u000ameasure err_qr[0] -> err_cr[0];\u000au3(-1.570796326794897,0.0,0.0) err_qr[1];\u000ameasure err_qr[1] -> err_cr[1];\u000a
p365
sg22
g39
sg24
g360
sg31
g32
(V{"header": {"clbit_labels": [["err_cr", 3]], "number_of_clbits": 3, "number_of_qubits": 3, "qubit_labels": [["err_qr", 0], ["err_qr", 1], ["err_qr", 2]]}, "operations": [{"texparams": ["1.25314640", "0.00000000", "0.00000000"], "qubits": [1], "params": [1.253146402931929, 0.0, 0.0], "name": "u3"}, {"texparams": [], "qubits": [1, 2], "params": [], "name": "cx"}, {"texparams": ["1.57079633", "0.00000000", "0.00000000"], "qubits": [2], "params": [1.570796326794897, 0.0, 0.0], "name": "u3"}, {"qubits": [2], "clbits": [2], "name": "measure"}, {"texparams": ["1.25314640", "0.00000000", "0.00000000"], "qubits": [0], "params": [1.253146402931929, 0.0, 0.0], "name": "u3"}, {"texparams": [], "qubits": [0, 1], "params": [], "name": "cx"}, {"texparams": ["1.57079633", "0.00000000", "0.00000000"], "qubits": [0], "params": [1.570796326794897, 0.0, 0.0], "name": "u3"}, {"qubits": [0], "clbits": [0], "name": "measure"}, {"texparams": ["-(1.57079633)", "0.00000000", "0.00000000"], "qubits": [1], "params": [-1.570796326794897, 0.0, 0.0], "name": "u3"}, {"qubits": [1], "clbits": [1], "name": "measure"}]}
p366
g34
tp367
Rp368
sasg24
(dp369
g13
L1024L
sg6
g7
sg44
L10L
ssg45
VhuU6HHSsNm1YRvD5shcMFl6UB2wP7i
p370
ssg45
g47
sg48
g49
sg50
(lp371
L1L
aL2L
aL0L
aL1L
asVerr-counts
p372
(dp373
Vtime
p374
F23.682220935821533
sVcounts
p375
(dp376
V00100
p377
L54L
sV00101
p378
L446L
sV00000
p379
L15L
sV00010
p380
L330L
sV00001
p381
L65L
sV00110
p382
L39L
sV00111
p383
L22L
sV00011
p384
L53L
ssVdate
p385
V2018-03-08T22:19:34.733Z
p386
ssVmain-counts
p387
(dp388
g374
F23.682220935821533
sg375
(dp389
g377
L25L
sg378
L118L
sg379
L372L
sg380
L54L
sg381
L42L
sg382
L143L
sg383
L23L
sg384
L247L
ssg385
V2018-03-08T22:19:34.568Z
p390
ssa(dp391
g2
(lp392
F0.23649093568239618
aF0.29149761700791305
aF0.34626970619014846
aF0.6537302938098516
aF0.708502382992087
aF0.7635090643176039
asg4
(lp393
F28.8
aF28.8
asg6
g7
sg8
L0L
sg9
VCOMPLETED
p394
sg11
(lp395
F0.23208623208623214
aF0.23208623208623214
aF0.35644435644435646
aF0.6435556435556435
aF0.7679137679137679
aF0.7679137679137679
asg13
L1024L
sg14
I01
sg15
(dp396
g17
(lp397
(dp398
g20
VOPENQASM 2.0;\u000ainclude "qelib1.inc";\u000aqreg main_qr[3];\u000acreg main_cr[3];\u000au3(1.005309649148734,0.0,0.0) main_qr[1];\u000acx main_qr[1],main_qr[2];\u000ameasure main_qr[2] -> main_cr[2];\u000au3(1.005309649148734,0.0,0.0) main_qr[0];\u000acx main_qr[0],main_qr[1];\u000ameasure main_qr[0] -> main_cr[0];\u000ameasure main_qr[1] -> main_cr[1];\u000a
p399
sg22
g23
sg24
(dp400
g26
Nsg27
Nsg28
g29
sg30
Nssg31
g32
(V{"header": {"clbit_labels": [["main_cr", 3]], "number_of_clbits": 3, "number_of_qubits": 3, "qubit_labels": [["main_qr", 0], ["main_qr", 1], ["main_qr", 2]]}, "operations": [{"texparams": ["1.00530965", "0.00000000", "0.00000000"], "qubits": [1], "params": [1.005309649148734, 0.0, 0.0], "name": "u3"}, {"texparams": [], "qubits": [1, 2], "params": [], "name": "cx"}, {"qubits": [2], "clbits": [2], "name": "measure"}, {"texparams": ["1.00530965", "0.00000000", "0.00000000"], "qubits": [0], "params": [1.005309649148734, 0.0, 0.0], "name": "u3"}, {"texparams": [], "qubits": [0, 1], "params": [], "name": "cx"}, {"qubits": [0], "clbits": [0], "name": "measure"}, {"qubits": [1], "clbits": [1], "name": "measure"}]}
p401
g34
tp402
Rp403
sa(dp404
g20
VOPENQASM 2.0;\u000ainclude "qelib1.inc";\u000aqreg err_qr[3];\u000acreg err_cr[3];\u000au3(1.005309649148734,0.0,0.0) err_qr[1];\u000acx err_qr[1],err_qr[2];\u000au3(1.570796326794897,0.0,0.0) err_qr[2];\u000ameasure err_qr[2] -> err_cr[2];\u000au3(1.005309649148734,0.0,0.0) err_qr[0];\u000acx err_qr[0],err_qr[1];\u000au3(1.570796326794897,0.0,0.0) err_qr[0];\u000ameasure err_qr[0] -> err_cr[0];\u000au3(-1.570796326794897,0.0,0.0) err_qr[1];\u000ameasure err_qr[1] -> err_cr[1];\u000a
p405
sg22
g39
sg24
g400
sg31
g32
(V{"header": {"clbit_labels": [["err_cr", 3]], "number_of_clbits": 3, "number_of_qubits": 3, "qubit_labels": [["err_qr", 0], ["err_qr", 1], ["err_qr", 2]]}, "operations": [{"texparams": ["1.00530965", "0.00000000", "0.00000000"], "qubits": [1], "params": [1.005309649148734, 0.0, 0.0], "name": "u3"}, {"texparams": [], "qubits": [1, 2], "params": [], "name": "cx"}, {"texparams": ["1.57079633", "0.00000000", "0.00000000"], "qubits": [2], "params": [1.570796326794897, 0.0, 0.0], "name": "u3"}, {"qubits": [2], "clbits": [2], "name": "measure"}, {"texparams": ["1.00530965", "0.00000000", "0.00000000"], "qubits": [0], "params": [1.005309649148734, 0.0, 0.0], "name": "u3"}, {"texparams": [], "qubits": [0, 1], "params": [], "name": "cx"}, {"texparams": ["1.57079633", "0.00000000", "0.00000000"], "qubits": [0], "params": [1.570796326794897, 0.0, 0.0], "name": "u3"}, {"qubits": [0], "clbits": [0], "name": "measure"}, {"texparams": ["-(1.57079633)", "0.00000000", "0.00000000"], "qubits": [1], "params": [-1.570796326794897, 0.0, 0.0], "name": "u3"}, {"qubits": [1], "clbits": [1], "name": "measure"}]}
p406
g34
tp407
Rp408
sasg24
(dp409
g13
L1024L
sg6
g7
sg44
L10L
ssg45
VfXA23UwpHQ2Rw15c1eO3Hl5Y3NeZfK
p410
ssg45
g47
sg48
g49
sg50
(lp411
L1L
aL2L
aL0L
aL1L
asVerr-counts
p412
(dp413
Vtime
p414
F26.75916600227356
sVcounts
p415
(dp416
V00100
p417
L70L
sV00101
p418
L401L
sV00000
p419
L28L
sV00010
p420
L298L
sV00001
p421
L83L
sV00110
p422
L53L
sV00111
p423
L27L
sV00011
p424
L64L
ssVdate
p425
V2018-03-08T22:20:11.511Z
p426
ssVmain-counts
p427
(dp428
g414
F26.75916600227356
sg415
(dp429
g417
L22L
sg418
L63L
sg419
L510L
sg420
L40L
sg421
L58L
sg422
L144L
sg423
L16L
sg424
L171L
ssg425
V2018-03-08T22:20:11.433Z
p430
ssa.