(lp0
(dp1
Vorder
p2
(lp3
L3L
aL4L
aL3L
aL2L
aL4L
aL2L
asVstatus
p4
VCOMPLETED
p5
sVerr-counts
p6
(dp7
Vcounts
p8
(dp9
V01100
p10
L125L
sV10000
p11
L123L
sV10100
p12
L137L
sV11000
p13
L129L
sV00000
p14
L114L
sV11100
p15
L136L
sV00100
p16
L134L
sV01000
p17
L126L
sssVshots
p18
L1024L
sVbackend
p19
Vlocal_qasm_simulator
p20
sVparameters
p21
(lp22
F0.0
aF0.0
asVmain-counts
p23
(dp24
g8
(dp25
V00000
p26
L1024L
sssVqobj
p27
(dp28
Vid
p29
V8nryT3Ff3F6XWUUTpdMD3eWrI8LePn
p30
sVcircuits
p31
(lp32
(dp33
Vcompiled_circuit
p34
c_codecs
encode
p35
(V{"operations": [{"qubits": [4], "name": "u3", "params": [0.0, 0.0, 0.0], "texparams": ["0.00000000", "0.00000000", "0.00000000"]}, {"qubits": [3], "name": "u3", "params": [0.0, 0.0, 0.0], "texparams": ["0.00000000", "0.00000000", "0.00000000"]}, {"qubits": [3, 4], "name": "cx", "params": [], "texparams": []}, {"clbits": [3], "name": "measure", "qubits": [3]}, {"clbits": [4], "name": "measure", "qubits": [4]}, {"clbits": [2], "name": "measure", "qubits": [2]}], "header": {"number_of_clbits": 5, "qubit_labels": [["main_qr", 0], ["main_qr", 1], ["main_qr", 2], ["main_qr", 3], ["main_qr", 4]], "number_of_qubits": 5, "clbit_labels": [["main_cr", 5]]}}
p36
Vlatin1
p37
tp38
Rp39
sVname
p40
Vmain
p41
sVcompiled_circuit_qasm
p42
VOPENQASM 2.0;\u000ainclude "qelib1.inc";\u000aqreg main_qr[5];\u000acreg main_cr[5];\u000au3(0.0,0.0,0.0) main_qr[4];\u000au3(0.0,0.0,0.0) main_qr[3];\u000acx main_qr[3],main_qr[4];\u000ameasure main_qr[3] -> main_cr[3];\u000ameasure main_qr[4] -> main_cr[4];\u000ameasure main_qr[2] -> main_cr[2];\u000a
p43
sVconfig
p44
(dp45
Vcoupling_map
p46
NsVseed
p47
NsVlayout
p48
NsVbasis_gates
p49
Vu1,u2,u3,cx,id
p50
ssa(dp51
g34
g35
(V{"operations": [{"qubits": [4], "name": "u3", "params": [0.0, 0.0, 0.0], "texparams": ["0.00000000", "0.00000000", "0.00000000"]}, {"qubits": [3], "name": "u3", "params": [0.0, 0.0, 0.0], "texparams": ["0.00000000", "0.00000000", "0.00000000"]}, {"qubits": [3, 4], "name": "cx", "params": [], "texparams": []}, {"qubits": [3], "name": "u3", "params": [-1.570796326794897, 0.0, 0.0], "texparams": ["-(1.57079633)", "0.00000000", "0.00000000"]}, {"clbits": [3], "name": "measure", "qubits": [3]}, {"qubits": [4], "name": "u3", "params": [1.570796326794897, 0.0, 0.0], "texparams": ["1.57079633", "0.00000000", "0.00000000"]}, {"clbits": [4], "name": "measure", "qubits": [4]}, {"qubits": [2], "name": "u3", "params": [1.570796326794897, 0.0, 0.0], "texparams": ["1.57079633", "0.00000000", "0.00000000"]}, {"clbits": [2], "name": "measure", "qubits": [2]}], "header": {"number_of_clbits": 5, "qubit_labels": [["err_qr", 0], ["err_qr", 1], ["err_qr", 2], ["err_qr", 3], ["err_qr", 4]], "number_of_qubits": 5, "clbit_labels": [["err_cr", 5]]}}
p52
g37
tp53
Rp54
sg40
Verr
p55
sg42
VOPENQASM 2.0;\u000ainclude "qelib1.inc";\u000aqreg err_qr[5];\u000acreg err_cr[5];\u000au3(0.0,0.0,0.0) err_qr[4];\u000au3(0.0,0.0,0.0) err_qr[3];\u000acx err_qr[3],err_qr[4];\u000au3(-1.570796326794897,0.0,0.0) err_qr[3];\u000ameasure err_qr[3] -> err_cr[3];\u000au3(1.570796326794897,0.0,0.0) err_qr[4];\u000ameasure err_qr[4] -> err_cr[4];\u000au3(1.570796326794897,0.0,0.0) err_qr[2];\u000ameasure err_qr[2] -> err_cr[2];\u000a
p56
sg44
g45
sasg44
(dp57
g18
L1024L
sg19
g20
sVmax_credits
p58
L10L
sssVexp-ON
p59
(lp60
F-0.00038132431832675265
aF-0.00016114499176428555
aF-1.5258556238961773e-05
aF1.000015258556239
aF1.0001611449917642
aF1.0003813243183268
asVcombined
p61
I00
sg29
Vnull
p62
sValgorithm
p63
Vry2p
p64
sVrun
p65
L0L
sa(dp66
g2
(lp67
L3L
aL4L
aL3L
aL2L
aL4L
aL2L
asg4
g5
sVerr-counts
p68
(dp69
g8
(dp70
V01000
p71
L266L
sV10000
p72
L257L
sV10100
p73
L240L
sV01100
p74
L261L
sssg18
L1024L
sg19
g20
sg21
(lp75
F45.0
aF0.0
asVmain-counts
p76
(dp77
g8
(dp78
V00000
p79
L499L
sV11000
p80
L525L
sssg27
(dp81
g29
VOnxShQAuzMqCnjp0UDgSBje3Ma2KHh
p82
sg31
(lp83
(dp84
g34
g35
(V{"operations": [{"qubits": [4], "name": "u3", "params": [0.0, 0.0, 0.0], "texparams": ["0.00000000", "0.00000000", "0.00000000"]}, {"qubits": [3], "name": "u3", "params": [1.570796326794897, 0.0, 0.0], "texparams": ["1.57079633", "0.00000000", "0.00000000"]}, {"qubits": [3, 4], "name": "cx", "params": [], "texparams": []}, {"clbits": [3], "name": "measure", "qubits": [3]}, {"clbits": [4], "name": "measure", "qubits": [4]}, {"clbits": [2], "name": "measure", "qubits": [2]}], "header": {"number_of_clbits": 5, "qubit_labels": [["main_qr", 0], ["main_qr", 1], ["main_qr", 2], ["main_qr", 3], ["main_qr", 4]], "number_of_qubits": 5, "clbit_labels": [["main_cr", 5]]}}
p85
g37
tp86
Rp87
sg40
g41
sg42
VOPENQASM 2.0;\u000ainclude "qelib1.inc";\u000aqreg main_qr[5];\u000acreg main_cr[5];\u000au3(0.0,0.0,0.0) main_qr[4];\u000au3(1.570796326794897,0.0,0.0) main_qr[3];\u000acx main_qr[3],main_qr[4];\u000ameasure main_qr[3] -> main_cr[3];\u000ameasure main_qr[4] -> main_cr[4];\u000ameasure main_qr[2] -> main_cr[2];\u000a
p88
sg44
(dp89
g46
Nsg47
Nsg48
Nsg49
g50
ssa(dp90
g34
g35
(V{"operations": [{"qubits": [4], "name": "u3", "params": [0.0, 0.0, 0.0], "texparams": ["0.00000000", "0.00000000", "0.00000000"]}, {"qubits": [3], "name": "u3", "params": [1.570796326794897, 0.0, 0.0], "texparams": ["1.57079633", "0.00000000", "0.00000000"]}, {"qubits": [3, 4], "name": "cx", "params": [], "texparams": []}, {"qubits": [3], "name": "u3", "params": [-1.570796326794897, 0.0, 0.0], "texparams": ["-(1.57079633)", "0.00000000", "0.00000000"]}, {"clbits": [3], "name": "measure", "qubits": [3]}, {"qubits": [4], "name": "u3", "params": [1.570796326794897, 0.0, 0.0], "texparams": ["1.57079633", "0.00000000", "0.00000000"]}, {"clbits": [4], "name": "measure", "qubits": [4]}, {"qubits": [2], "name": "u3", "params": [1.570796326794897, 0.0, 0.0], "texparams": ["1.57079633", "0.00000000", "0.00000000"]}, {"clbits": [2], "name": "measure", "qubits": [2]}], "header": {"number_of_clbits": 5, "qubit_labels": [["err_qr", 0], ["err_qr", 1], ["err_qr", 2], ["err_qr", 3], ["err_qr", 4]], "number_of_qubits": 5, "clbit_labels": [["err_cr", 5]]}}
p91
g37
tp92
Rp93
sg40
g55
sg42
VOPENQASM 2.0;\u000ainclude "qelib1.inc";\u000aqreg err_qr[5];\u000acreg err_cr[5];\u000au3(0.0,0.0,0.0) err_qr[4];\u000au3(1.570796326794897,0.0,0.0) err_qr[3];\u000acx err_qr[3],err_qr[4];\u000au3(-1.570796326794897,0.0,0.0) err_qr[3];\u000ameasure err_qr[3] -> err_cr[3];\u000au3(1.570796326794897,0.0,0.0) err_qr[4];\u000ameasure err_qr[4] -> err_cr[4];\u000au3(1.570796326794897,0.0,0.0) err_qr[2];\u000ameasure err_qr[2] -> err_cr[2];\u000a
p94
sg44
g89
sasg44
(dp95
g18
L1024L
sg19
g20
sg58
L10L
sssg59
(lp96
F-0.00011538127944550978
aF0.4806157878503133
aF0.4806157878503133
aF0.5193842121496868
aF0.5193842121496868
aF1.0001153812794454
asg61
I00
sg29
g62
sg63
g64
sg65
L0L
sa(dp97
g2
(lp98
L3L
aL4L
aL3L
aL2L
aL4L
aL2L
asg4
g5
sVerr-counts
p99
(dp100
g8
(dp101
V10000
p102
L473L
sV01100
p103
L40L
sV10100
p104
L455L
sV11000
p105
L1L
sV01000
p106
L55L
sssg18
L1024L
sg19
g20
sg21
(lp107
F42.4
aF26.9
asVmain-counts
p108
(dp109
g8
(dp110
V10000
p111
L124L
sV00000
p112
L441L
sV11000
p113
L372L
sV01000
p114
L87L
sssg27
(dp115
g29
VLiqw7RTw3MU3hiAiZfvZc9ivrG9tNp
p116
sg31
(lp117
(dp118
g34
g35
(V{"operations": [{"qubits": [4], "name": "u3", "params": [0.938987137572949, 0.0, 0.0], "texparams": ["0.93898714", "0.00000000", "0.00000000"]}, {"qubits": [3], "name": "u3", "params": [1.480039205691191, 0.0, 0.0], "texparams": ["1.48003921", "0.00000000", "0.00000000"]}, {"qubits": [3, 4], "name": "cx", "params": [], "texparams": []}, {"clbits": [3], "name": "measure", "qubits": [3]}, {"clbits": [4], "name": "measure", "qubits": [4]}, {"clbits": [2], "name": "measure", "qubits": [2]}], "header": {"number_of_clbits": 5, "qubit_labels": [["main_qr", 0], ["main_qr", 1], ["main_qr", 2], ["main_qr", 3], ["main_qr", 4]], "number_of_qubits": 5, "clbit_labels": [["main_cr", 5]]}}
p119
g37
tp120
Rp121
sg40
g41
sg42
VOPENQASM 2.0;\u000ainclude "qelib1.inc";\u000aqreg main_qr[5];\u000acreg main_cr[5];\u000au3(0.938987137572949,0.0,0.0) main_qr[4];\u000au3(1.480039205691191,0.0,0.0) main_qr[3];\u000acx main_qr[3],main_qr[4];\u000ameasure main_qr[3] -> main_cr[3];\u000ameasure main_qr[4] -> main_cr[4];\u000ameasure main_qr[2] -> main_cr[2];\u000a
p122
sg44
(dp123
g46
Nsg47
Nsg48
Nsg49
g50
ssa(dp124
g34
g35
(V{"operations": [{"qubits": [4], "name": "u3", "params": [0.938987137572949, 0.0, 0.0], "texparams": ["0.93898714", "0.00000000", "0.00000000"]}, {"qubits": [3], "name": "u3", "params": [1.480039205691191, 0.0, 0.0], "texparams": ["1.48003921", "0.00000000", "0.00000000"]}, {"qubits": [3, 4], "name": "cx", "params": [], "texparams": []}, {"qubits": [3], "name": "u3", "params": [-1.570796326794897, 0.0, 0.0], "texparams": ["-(1.57079633)", "0.00000000", "0.00000000"]}, {"clbits": [3], "name": "measure", "qubits": [3]}, {"qubits": [4], "name": "u3", "params": [1.570796326794897, 0.0, 0.0], "texparams": ["1.57079633", "0.00000000", "0.00000000"]}, {"clbits": [4], "name": "measure", "qubits": [4]}, {"qubits": [2], "name": "u3", "params": [1.570796326794897, 0.0, 0.0], "texparams": ["1.57079633", "0.00000000", "0.00000000"]}, {"clbits": [2], "name": "measure", "qubits": [2]}], "header": {"number_of_clbits": 5, "qubit_labels": [["err_qr", 0], ["err_qr", 1], ["err_qr", 2], ["err_qr", 3], ["err_qr", 4]], "number_of_qubits": 5, "clbit_labels": [["err_cr", 5]]}}
p125
g37
tp126
Rp127
sg40
g55
sg42
VOPENQASM 2.0;\u000ainclude "qelib1.inc";\u000aqreg err_qr[5];\u000acreg err_cr[5];\u000au3(0.938987137572949,0.0,0.0) err_qr[4];\u000au3(1.480039205691191,0.0,0.0) err_qr[3];\u000acx err_qr[3],err_qr[4];\u000au3(-1.570796326794897,0.0,0.0) err_qr[3];\u000ameasure err_qr[3] -> err_cr[3];\u000au3(1.570796326794897,0.0,0.0) err_qr[4];\u000ameasure err_qr[4] -> err_cr[4];\u000au3(1.570796326794897,0.0,0.0) err_qr[2];\u000ameasure err_qr[2] -> err_cr[2];\u000a
p128
sg44
g123
sasg44
(dp129
g18
L1024L
sg19
g20
sg58
L10L
sssg59
(lp130
F-0.0002755359573775982
aF0.09046619961865765
aF0.09247378755401953
aF0.9075262124459804
aF0.9095338003813422
aF1.0002755359573776
asg61
I00
sg29
g62
sg63
g64
sg65
L0L
sa(dp131
g2
(lp132
L3L
aL4L
aL3L
aL2L
aL4L
aL2L
asg4
g5
sVerr-counts
p133
(dp134
g8
(dp135
V00000
p136
L1L
sV01100
p137
L256L
sV10100
p138
L269L
sV10000
p139
L262L
sV00100
p140
L3L
sV01000
p141
L233L
sssg18
L1024L
sg19
g20
sg21
(lp142
F41.2
aF1.4
asVmain-counts
p143
(dp144
g8
(dp145
V00000
p146
L579L
sV11000
p147
L445L
sssg27
(dp148
g29
VpRa2RqSrv7poxBSrCB3k8RAs0Z0Aaa
p149
sg31
(lp150
(dp151
g34
g35
(V{"operations": [{"qubits": [4], "name": "u3", "params": [0.048869219055841, 0.0, 0.0], "texparams": ["0.04886922", "0.00000000", "0.00000000"]}, {"qubits": [3], "name": "u3", "params": [1.438151303643328, 0.0, 0.0], "texparams": ["1.43815130", "0.00000000", "0.00000000"]}, {"qubits": [3, 4], "name": "cx", "params": [], "texparams": []}, {"clbits": [3], "name": "measure", "qubits": [3]}, {"clbits": [4], "name": "measure", "qubits": [4]}, {"clbits": [2], "name": "measure", "qubits": [2]}], "header": {"number_of_clbits": 5, "qubit_labels": [["main_qr", 0], ["main_qr", 1], ["main_qr", 2], ["main_qr", 3], ["main_qr", 4]], "number_of_qubits": 5, "clbit_labels": [["main_cr", 5]]}}
p152
g37
tp153
Rp154
sg40
g41
sg42
VOPENQASM 2.0;\u000ainclude "qelib1.inc";\u000aqreg main_qr[5];\u000acreg main_cr[5];\u000au3(0.048869219055841,0.0,0.0) main_qr[4];\u000au3(1.438151303643328,0.0,0.0) main_qr[3];\u000acx main_qr[3],main_qr[4];\u000ameasure main_qr[3] -> main_cr[3];\u000ameasure main_qr[4] -> main_cr[4];\u000ameasure main_qr[2] -> main_cr[2];\u000a
p155
sg44
(dp156
g46
Nsg47
Nsg48
Nsg49
g50
ssa(dp157
g34
g35
(V{"operations": [{"qubits": [4], "name": "u3", "params": [0.048869219055841, 0.0, 0.0], "texparams": ["0.04886922", "0.00000000", "0.00000000"]}, {"qubits": [3], "name": "u3", "params": [1.438151303643328, 0.0, 0.0], "texparams": ["1.43815130", "0.00000000", "0.00000000"]}, {"qubits": [3, 4], "name": "cx", "params": [], "texparams": []}, {"qubits": [3], "name": "u3", "params": [-1.570796326794897, 0.0, 0.0], "texparams": ["-(1.57079633)", "0.00000000", "0.00000000"]}, {"clbits": [3], "name": "measure", "qubits": [3]}, {"qubits": [4], "name": "u3", "params": [1.570796326794897, 0.0, 0.0], "texparams": ["1.57079633", "0.00000000", "0.00000000"]}, {"clbits": [4], "name": "measure", "qubits": [4]}, {"qubits": [2], "name": "u3", "params": [1.570796326794897, 0.0, 0.0], "texparams": ["1.57079633", "0.00000000", "0.00000000"]}, {"clbits": [2], "name": "measure", "qubits": [2]}], "header": {"number_of_clbits": 5, "qubit_labels": [["err_qr", 0], ["err_qr", 1], ["err_qr", 2], ["err_qr", 3], ["err_qr", 4]], "number_of_qubits": 5, "clbit_labels": [["err_cr", 5]]}}
p158
g37
tp159
Rp160
sg40
g55
sg42
VOPENQASM 2.0;\u000ainclude "qelib1.inc";\u000aqreg err_qr[5];\u000acreg err_cr[5];\u000au3(0.048869219055841,0.0,0.0) err_qr[4];\u000au3(1.438151303643328,0.0,0.0) err_qr[3];\u000acx err_qr[3],err_qr[4];\u000au3(-1.570796326794897,0.0,0.0) err_qr[3];\u000ameasure err_qr[3] -> err_cr[3];\u000au3(1.570796326794897,0.0,0.0) err_qr[4];\u000ameasure err_qr[4] -> err_cr[4];\u000au3(1.570796326794897,0.0,0.0) err_qr[2];\u000ameasure err_qr[2] -> err_cr[2];\u000a
p161
sg44
g156
sasg44
(dp162
g18
L1024L
sg19
g20
sg58
L10L
sssg59
(lp163
F-0.00024408104944130364
aF0.43082241895146545
aF0.43199029161531194
aF0.5680097083846881
aF0.5691775810485346
aF1.0002440810494413
asg61
I00
sg29
g62
sg63
g64
sg65
L0L
sa(dp164
g2
(lp165
L3L
aL4L
aL3L
aL2L
aL4L
aL2L
asg4
g5
sVerr-counts
p166
(dp167
g8
(dp168
V01100
p169
L83L
sV10000
p170
L306L
sV10100
p171
L283L
sV11000
p172
L93L
sV00000
p173
L27L
sV11100
p174
L110L
sV00100
p175
L29L
sV01000
p176
L93L
sssg18
L1024L
sg19
g20
sg21
(lp177
F15.0
aF15.3
asVmain-counts
p178
(dp179
g8
(dp180
V10000
p181
L56L
sV00000
p182
L896L
sV11000
p183
L70L
sV01000
p184
L2L
sssg27
(dp185
g29
VDwRHo93qEUMRy4FxdJc3gx3ze5Vhkw
p186
sg31
(lp187
(dp188
g34
g35
(V{"operations": [{"qubits": [4], "name": "u3", "params": [0.534070751110265, 0.0, 0.0], "texparams": ["0.53407075", "0.00000000", "0.00000000"]}, {"qubits": [3], "name": "u3", "params": [0.523598775598299, 0.0, 0.0], "texparams": ["0.52359878", "0.00000000", "0.00000000"]}, {"qubits": [3, 4], "name": "cx", "params": [], "texparams": []}, {"clbits": [3], "name": "measure", "qubits": [3]}, {"clbits": [4], "name": "measure", "qubits": [4]}, {"clbits": [2], "name": "measure", "qubits": [2]}], "header": {"number_of_clbits": 5, "qubit_labels": [["main_qr", 0], ["main_qr", 1], ["main_qr", 2], ["main_qr", 3], ["main_qr", 4]], "number_of_qubits": 5, "clbit_labels": [["main_cr", 5]]}}
p189
g37
tp190
Rp191
sg40
g41
sg42
VOPENQASM 2.0;\u000ainclude "qelib1.inc";\u000aqreg main_qr[5];\u000acreg main_cr[5];\u000au3(0.534070751110265,0.0,0.0) main_qr[4];\u000au3(0.523598775598299,0.0,0.0) main_qr[3];\u000acx main_qr[3],main_qr[4];\u000ameasure main_qr[3] -> main_cr[3];\u000ameasure main_qr[4] -> main_cr[4];\u000ameasure main_qr[2] -> main_cr[2];\u000a
p192
sg44
(dp193
g46
Nsg47
Nsg48
Nsg49
g50
ssa(dp194
g34
g35
(V{"operations": [{"qubits": [4], "name": "u3", "params": [0.534070751110265, 0.0, 0.0], "texparams": ["0.53407075", "0.00000000", "0.00000000"]}, {"qubits": [3], "name": "u3", "params": [0.523598775598299, 0.0, 0.0], "texparams": ["0.52359878", "0.00000000", "0.00000000"]}, {"qubits": [3, 4], "name": "cx", "params": [], "texparams": []}, {"qubits": [3], "name": "u3", "params": [-1.570796326794897, 0.0, 0.0], "texparams": ["-(1.57079633)", "0.00000000", "0.00000000"]}, {"clbits": [3], "name": "measure", "qubits": [3]}, {"qubits": [4], "name": "u3", "params": [1.570796326794897, 0.0, 0.0], "texparams": ["1.57079633", "0.00000000", "0.00000000"]}, {"clbits": [4], "name": "measure", "qubits": [4]}, {"qubits": [2], "name": "u3", "params": [1.570796326794897, 0.0, 0.0], "texparams": ["1.57079633", "0.00000000", "0.00000000"]}, {"clbits": [2], "name": "measure", "qubits": [2]}], "header": {"number_of_clbits": 5, "qubit_labels": [["err_qr", 0], ["err_qr", 1], ["err_qr", 2], ["err_qr", 3], ["err_qr", 4]], "number_of_qubits": 5, "clbit_labels": [["err_cr", 5]]}}
p195
g37
tp196
Rp197
sg40
g55
sg42
VOPENQASM 2.0;\u000ainclude "qelib1.inc";\u000aqreg err_qr[5];\u000acreg err_cr[5];\u000au3(0.534070751110265,0.0,0.0) err_qr[4];\u000au3(0.523598775598299,0.0,0.0) err_qr[3];\u000acx err_qr[3],err_qr[4];\u000au3(-1.570796326794897,0.0,0.0) err_qr[3];\u000ameasure err_qr[3] -> err_cr[3];\u000au3(1.570796326794897,0.0,0.0) err_qr[4];\u000ameasure err_qr[4] -> err_cr[4];\u000au3(1.570796326794897,0.0,0.0) err_qr[2];\u000ameasure err_qr[2] -> err_cr[2];\u000a
p198
sg44
g193
sasg44
(dp199
g18
L1024L
sg19
g20
sg58
L10L
sssg59
(lp200
F-4.6727858011191937e-05
aF0.03431585290723539
aF0.051111491972494205
aF0.9488885080275058
aF0.9656841470927646
aF1.0000467278580112
asg61
I00
sg29
g62
sg63
g64
sg65
L0L
sa(dp201
g2
(lp202
L3L
aL4L
aL3L
aL2L
aL4L
aL2L
asg4
g5
sVerr-counts
p203
(dp204
g8
(dp205
V00000
p206
L1L
sV10100
p207
L443L
sV11000
p208
L5L
sV01100
p209
L93L
sV10000
p210
L394L
sV11100
p211
L6L
sV01000
p212
L82L
sssg18
L1024L
sg19
g20
sg21
(lp213
F37.0
aF20.5
asVmain-counts
p214
(dp215
g8
(dp216
V10000
p217
L93L
sV00000
p218
L548L
sV11000
p219
L336L
sV01000
p220
L47L
sssg27
(dp221
g29
VELso6gohU0clxQ01788T25L57dMwUS
p222
sg31
(lp223
(dp224
g34
g35
(V{"operations": [{"qubits": [4], "name": "u3", "params": [0.715584993317675, 0.0, 0.0], "texparams": ["0.71558499", "0.00000000", "0.00000000"]}, {"qubits": [3], "name": "u3", "params": [1.291543646475804, 0.0, 0.0], "texparams": ["1.29154365", "0.00000000", "0.00000000"]}, {"qubits": [3, 4], "name": "cx", "params": [], "texparams": []}, {"clbits": [3], "name": "measure", "qubits": [3]}, {"clbits": [4], "name": "measure", "qubits": [4]}, {"clbits": [2], "name": "measure", "qubits": [2]}], "header": {"number_of_clbits": 5, "qubit_labels": [["main_qr", 0], ["main_qr", 1], ["main_qr", 2], ["main_qr", 3], ["main_qr", 4]], "number_of_qubits": 5, "clbit_labels": [["main_cr", 5]]}}
p225
g37
tp226
Rp227
sg40
g41
sg42
VOPENQASM 2.0;\u000ainclude "qelib1.inc";\u000aqreg main_qr[5];\u000acreg main_cr[5];\u000au3(0.715584993317675,0.0,0.0) main_qr[4];\u000au3(1.291543646475804,0.0,0.0) main_qr[3];\u000acx main_qr[3],main_qr[4];\u000ameasure main_qr[3] -> main_cr[3];\u000ameasure main_qr[4] -> main_cr[4];\u000ameasure main_qr[2] -> main_cr[2];\u000a
p228
sg44
(dp229
g46
Nsg47
Nsg48
Nsg49
g50
ssa(dp230
g34
g35
(V{"operations": [{"qubits": [4], "name": "u3", "params": [0.715584993317675, 0.0, 0.0], "texparams": ["0.71558499", "0.00000000", "0.00000000"]}, {"qubits": [3], "name": "u3", "params": [1.291543646475804, 0.0, 0.0], "texparams": ["1.29154365", "0.00000000", "0.00000000"]}, {"qubits": [3, 4], "name": "cx", "params": [], "texparams": []}, {"qubits": [3], "name": "u3", "params": [-1.570796326794897, 0.0, 0.0], "texparams": ["-(1.57079633)", "0.00000000", "0.00000000"]}, {"clbits": [3], "name": "measure", "qubits": [3]}, {"qubits": [4], "name": "u3", "params": [1.570796326794897, 0.0, 0.0], "texparams": ["1.57079633", "0.00000000", "0.00000000"]}, {"clbits": [4], "name": "measure", "qubits": [4]}, {"qubits": [2], "name": "u3", "params": [1.570796326794897, 0.0, 0.0], "texparams": ["1.57079633", "0.00000000", "0.00000000"]}, {"clbits": [2], "name": "measure", "qubits": [2]}], "header": {"number_of_clbits": 5, "qubit_labels": [["err_qr", 0], ["err_qr", 1], ["err_qr", 2], ["err_qr", 3], ["err_qr", 4]], "number_of_qubits": 5, "clbit_labels": [["err_cr", 5]]}}
p231
g37
tp232
Rp233
sg40
g55
sg42
VOPENQASM 2.0;\u000ainclude "qelib1.inc";\u000aqreg err_qr[5];\u000acreg err_cr[5];\u000au3(0.715584993317675,0.0,0.0) err_qr[4];\u000au3(1.291543646475804,0.0,0.0) err_qr[3];\u000acx err_qr[3],err_qr[4];\u000au3(-1.570796326794897,0.0,0.0) err_qr[3];\u000ameasure err_qr[3] -> err_cr[3];\u000au3(1.570796326794897,0.0,0.0) err_qr[4];\u000ameasure err_qr[4] -> err_cr[4];\u000au3(1.570796326794897,0.0,0.0) err_qr[2];\u000ameasure err_qr[2] -> err_cr[2];\u000a
p234
sg44
g229
sasg44
(dp235
g18
L1024L
sg19
g20
sg58
L10L
sssg59
(lp236
F-0.0008575714559635416
aF0.15762186701001618
aF0.16201201502017465
aF0.8379879849798254
aF0.8423781329899838
aF1.0008575714559635
asg61
I00
sg29
g62
sg63
g64
sg65
L0L
sa(dp237
g2
(lp238
L3L
aL4L
aL3L
aL2L
aL4L
aL2L
asg4
g5
sVerr-counts
p239
(dp240
g8
(dp241
V00000
p242
L3L
sV10100
p243
L316L
sV01100
p244
L178L
sV10000
p245
L328L
sV11100
p246
L1L
sV01000
p247
L198L
sssg18
L1024L
sg19
g20
sg21
(lp248
F40.3
aF6.2
asVmain-counts
p249
(dp250
g8
(dp251
V10000
p252
L8L
sV00000
p253
L607L
sV11000
p254
L405L
sV01000
p255
L4L
sssg27
(dp256
g29
VudfdwQTdeD1w4zFTDjAJuZYo6CQZyg
p257
sg31
(lp258
(dp259
g34
g35
(V{"operations": [{"qubits": [4], "name": "u3", "params": [0.216420827247297, 0.0, 0.0], "texparams": ["0.21642083", "0.00000000", "0.00000000"]}, {"qubits": [3], "name": "u3", "params": [1.40673537710743, 0.0, 0.0], "texparams": ["1.40673538", "0.00000000", "0.00000000"]}, {"qubits": [3, 4], "name": "cx", "params": [], "texparams": []}, {"clbits": [3], "name": "measure", "qubits": [3]}, {"clbits": [4], "name": "measure", "qubits": [4]}, {"clbits": [2], "name": "measure", "qubits": [2]}], "header": {"number_of_clbits": 5, "qubit_labels": [["main_qr", 0], ["main_qr", 1], ["main_qr", 2], ["main_qr", 3], ["main_qr", 4]], "number_of_qubits": 5, "clbit_labels": [["main_cr", 5]]}}
p260
g37
tp261
Rp262
sg40
g41
sg42
VOPENQASM 2.0;\u000ainclude "qelib1.inc";\u000aqreg main_qr[5];\u000acreg main_cr[5];\u000au3(0.216420827247297,0.0,0.0) main_qr[4];\u000au3(1.40673537710743,0.0,0.0) main_qr[3];\u000acx main_qr[3],main_qr[4];\u000ameasure main_qr[3] -> main_cr[3];\u000ameasure main_qr[4] -> main_cr[4];\u000ameasure main_qr[2] -> main_cr[2];\u000a
p263
sg44
(dp264
g46
Nsg47
Nsg48
Nsg49
g50
ssa(dp265
g34
g35
(V{"operations": [{"qubits": [4], "name": "u3", "params": [0.216420827247297, 0.0, 0.0], "texparams": ["0.21642083", "0.00000000", "0.00000000"]}, {"qubits": [3], "name": "u3", "params": [1.40673537710743, 0.0, 0.0], "texparams": ["1.40673538", "0.00000000", "0.00000000"]}, {"qubits": [3, 4], "name": "cx", "params": [], "texparams": []}, {"qubits": [3], "name": "u3", "params": [-1.570796326794897, 0.0, 0.0], "texparams": ["-(1.57079633)", "0.00000000", "0.00000000"]}, {"clbits": [3], "name": "measure", "qubits": [3]}, {"qubits": [4], "name": "u3", "params": [1.570796326794897, 0.0, 0.0], "texparams": ["1.57079633", "0.00000000", "0.00000000"]}, {"clbits": [4], "name": "measure", "qubits": [4]}, {"qubits": [2], "name": "u3", "params": [1.570796326794897, 0.0, 0.0], "texparams": ["1.57079633", "0.00000000", "0.00000000"]}, {"clbits": [2], "name": "measure", "qubits": [2]}], "header": {"number_of_clbits": 5, "qubit_labels": [["err_qr", 0], ["err_qr", 1], ["err_qr", 2], ["err_qr", 3], ["err_qr", 4]], "number_of_qubits": 5, "clbit_labels": [["err_cr", 5]]}}
p266
g37
tp267
Rp268
sg40
g55
sg42
VOPENQASM 2.0;\u000ainclude "qelib1.inc";\u000aqreg err_qr[5];\u000acreg err_cr[5];\u000au3(0.216420827247297,0.0,0.0) err_qr[4];\u000au3(1.40673537710743,0.0,0.0) err_qr[3];\u000acx err_qr[3],err_qr[4];\u000au3(-1.570796326794897,0.0,0.0) err_qr[3];\u000ameasure err_qr[3] -> err_cr[3];\u000au3(1.570796326794897,0.0,0.0) err_qr[4];\u000ameasure err_qr[4] -> err_cr[4];\u000au3(1.570796326794897,0.0,0.0) err_qr[2];\u000ameasure err_qr[2] -> err_cr[2];\u000a
p269
sg44
g264
sasg44
(dp270
g18
L1024L
sg19
g20
sg58
L10L
sssg59
(lp271
F-0.00027553595737759824
aF0.3341740513693414
aF0.3380848773029282
aF0.6619151226970718
aF0.6658259486306586
aF1.0002755359573776
asg61
I00
sg29
g62
sg63
g64
sg65
L0L
sa(dp272
g2
(lp273
L3L
aL4L
aL3L
aL2L
aL4L
aL2L
asg4
g5
sVerr-counts
p274
(dp275
g8
(dp276
V00000
p277
L1L
sV10100
p278
L381L
sV11000
p279
L6L
sV01100
p280
L127L
sV10000
p281
L361L
sV11100
p282
L8L
sV00100
p283
L2L
sV01000
p284
L138L
sssg18
L1024L
sg19
g20
sg21
(lp285
F38.4
aF14.8
asVmain-counts
p286
(dp287
g8
(dp288
V10000
p289
L50L
sV00000
p290
L607L
sV11000
p291
L349L
sV01000
p292
L18L
sssg27
(dp293
g29
V3jRP7MFZaqly9ZS5vQJQJWQHjpgQ3R
p294
sg31
(lp295
(dp296
g34
g35
(V{"operations": [{"qubits": [4], "name": "u3", "params": [0.516617458590321, 0.0, 0.0], "texparams": ["0.51661746", "0.00000000", "0.00000000"]}, {"qubits": [3], "name": "u3", "params": [1.340412865531645, 0.0, 0.0], "texparams": ["1.34041287", "0.00000000", "0.00000000"]}, {"qubits": [3, 4], "name": "cx", "params": [], "texparams": []}, {"clbits": [3], "name": "measure", "qubits": [3]}, {"clbits": [4], "name": "measure", "qubits": [4]}, {"clbits": [2], "name": "measure", "qubits": [2]}], "header": {"number_of_clbits": 5, "qubit_labels": [["main_qr", 0], ["main_qr", 1], ["main_qr", 2], ["main_qr", 3], ["main_qr", 4]], "number_of_qubits": 5, "clbit_labels": [["main_cr", 5]]}}
p297
g37
tp298
Rp299
sg40
g41
sg42
VOPENQASM 2.0;\u000ainclude "qelib1.inc";\u000aqreg main_qr[5];\u000acreg main_cr[5];\u000au3(0.516617458590321,0.0,0.0) main_qr[4];\u000au3(1.340412865531645,0.0,0.0) main_qr[3];\u000acx main_qr[3],main_qr[4];\u000ameasure main_qr[3] -> main_cr[3];\u000ameasure main_qr[4] -> main_cr[4];\u000ameasure main_qr[2] -> main_cr[2];\u000a
p300
sg44
(dp301
g46
Nsg47
Nsg48
Nsg49
g50
ssa(dp302
g34
g35
(V{"operations": [{"qubits": [4], "name": "u3", "params": [0.516617458590321, 0.0, 0.0], "texparams": ["0.51661746", "0.00000000", "0.00000000"]}, {"qubits": [3], "name": "u3", "params": [1.340412865531645, 0.0, 0.0], "texparams": ["1.34041287", "0.00000000", "0.00000000"]}, {"qubits": [3, 4], "name": "cx", "params": [], "texparams": []}, {"qubits": [3], "name": "u3", "params": [-1.570796326794897, 0.0, 0.0], "texparams": ["-(1.57079633)", "0.00000000", "0.00000000"]}, {"clbits": [3], "name": "measure", "qubits": [3]}, {"qubits": [4], "name": "u3", "params": [1.570796326794897, 0.0, 0.0], "texparams": ["1.57079633", "0.00000000", "0.00000000"]}, {"clbits": [4], "name": "measure", "qubits": [4]}, {"qubits": [2], "name": "u3", "params": [1.570796326794897, 0.0, 0.0], "texparams": ["1.57079633", "0.00000000", "0.00000000"]}, {"clbits": [2], "name": "measure", "qubits": [2]}], "header": {"number_of_clbits": 5, "qubit_labels": [["err_qr", 0], ["err_qr", 1], ["err_qr", 2], ["err_qr", 3], ["err_qr", 4]], "number_of_qubits": 5, "clbit_labels": [["err_cr", 5]]}}
p303
g37
tp304
Rp305
sg40
g55
sg42
VOPENQASM 2.0;\u000ainclude "qelib1.inc";\u000aqreg err_qr[5];\u000acreg err_cr[5];\u000au3(0.516617458590321,0.0,0.0) err_qr[4];\u000au3(1.340412865531645,0.0,0.0) err_qr[3];\u000acx err_qr[3],err_qr[4];\u000au3(-1.570796326794897,0.0,0.0) err_qr[3];\u000ameasure err_qr[3] -> err_cr[3];\u000au3(1.570796326794897,0.0,0.0) err_qr[4];\u000ameasure err_qr[4] -> err_cr[4];\u000au3(1.570796326794897,0.0,0.0) err_qr[2];\u000ameasure err_qr[2] -> err_cr[2];\u000a
p306
sg44
g301
sasg44
(dp307
g18
L1024L
sg19
g20
sg58
L10L
sssg59
(lp308
F-3.433109676641982e-05
aF0.23199808309301162
aF0.23740635680246577
aF0.7625936431975342
aF0.7680019169069884
aF1.0000343310967663
asg61
I00
sg29
g62
sg63
g64
sg65
L0L
sa(dp309
g2
(lp310
L3L
aL4L
aL3L
aL2L
aL4L
aL2L
asg4
g5
sVerr-counts
p311
(dp312
g8
(dp313
V01100
p314
L200L
sV10000
p315
L294L
sV10100
p316
L282L
sV11000
p317
L6L
sV00000
p318
L6L
sV11100
p319
L16L
sV00100
p320
L4L
sV01000
p321
L216L
sssg18
L1024L
sg19
g20
sg21
(lp322
F35.1
aF4.6
asVmain-counts
p323
(dp324
g8
(dp325
V10000
p326
L4L
sV00000
p327
L668L
sV11000
p328
L351L
sV01000
p329
L1L
sssg27
(dp330
g29
VoQNlx2MDVYucrfedEkjahitIf3UMJR
p331
sg31
(lp332
(dp333
g34
g35
(V{"operations": [{"qubits": [4], "name": "u3", "params": [0.160570291183478, 0.0, 0.0], "texparams": ["0.16057029", "0.00000000", "0.00000000"]}, {"qubits": [3], "name": "u3", "params": [1.225221134900019, 0.0, 0.0], "texparams": ["1.22522113", "0.00000000", "0.00000000"]}, {"qubits": [3, 4], "name": "cx", "params": [], "texparams": []}, {"clbits": [3], "name": "measure", "qubits": [3]}, {"clbits": [4], "name": "measure", "qubits": [4]}, {"clbits": [2], "name": "measure", "qubits": [2]}], "header": {"number_of_clbits": 5, "qubit_labels": [["main_qr", 0], ["main_qr", 1], ["main_qr", 2], ["main_qr", 3], ["main_qr", 4]], "number_of_qubits": 5, "clbit_labels": [["main_cr", 5]]}}
p334
g37
tp335
Rp336
sg40
g41
sg42
VOPENQASM 2.0;\u000ainclude "qelib1.inc";\u000aqreg main_qr[5];\u000acreg main_cr[5];\u000au3(0.160570291183478,0.0,0.0) main_qr[4];\u000au3(1.225221134900019,0.0,0.0) main_qr[3];\u000acx main_qr[3],main_qr[4];\u000ameasure main_qr[3] -> main_cr[3];\u000ameasure main_qr[4] -> main_cr[4];\u000ameasure main_qr[2] -> main_cr[2];\u000a
p337
sg44
(dp338
g46
Nsg47
Nsg48
Nsg49
g50
ssa(dp339
g34
g35
(V{"operations": [{"qubits": [4], "name": "u3", "params": [0.160570291183478, 0.0, 0.0], "texparams": ["0.16057029", "0.00000000", "0.00000000"]}, {"qubits": [3], "name": "u3", "params": [1.225221134900019, 0.0, 0.0], "texparams": ["1.22522113", "0.00000000", "0.00000000"]}, {"qubits": [3, 4], "name": "cx", "params": [], "texparams": []}, {"qubits": [3], "name": "u3", "params": [-1.570796326794897, 0.0, 0.0], "texparams": ["-(1.57079633)", "0.00000000", "0.00000000"]}, {"clbits": [3], "name": "measure", "qubits": [3]}, {"qubits": [4], "name": "u3", "params": [1.570796326794897, 0.0, 0.0], "texparams": ["1.57079633", "0.00000000", "0.00000000"]}, {"clbits": [4], "name": "measure", "qubits": [4]}, {"qubits": [2], "name": "u3", "params": [1.570796326794897, 0.0, 0.0], "texparams": ["1.57079633", "0.00000000", "0.00000000"]}, {"clbits": [2], "name": "measure", "qubits": [2]}], "header": {"number_of_clbits": 5, "qubit_labels": [["err_qr", 0], ["err_qr", 1], ["err_qr", 2], ["err_qr", 3], ["err_qr", 4]], "number_of_qubits": 5, "clbit_labels": [["err_cr", 5]]}}
p340
g37
tp341
Rp342
sg40
g55
sg42
VOPENQASM 2.0;\u000ainclude "qelib1.inc";\u000aqreg err_qr[5];\u000acreg err_cr[5];\u000au3(0.160570291183478,0.0,0.0) err_qr[4];\u000au3(1.225221134900019,0.0,0.0) err_qr[3];\u000acx err_qr[3],err_qr[4];\u000au3(-1.570796326794897,0.0,0.0) err_qr[3];\u000ameasure err_qr[3] -> err_cr[3];\u000au3(1.570796326794897,0.0,0.0) err_qr[4];\u000ameasure err_qr[4] -> err_cr[4];\u000au3(1.570796326794897,0.0,0.0) err_qr[2];\u000ameasure err_qr[2] -> err_cr[2];\u000a
p343
sg44
g338
sasg44
(dp344
g18
L1024L
sg19
g20
sg58
L10L
sssg59
(lp345
F-9.535833842791726e-05
aF0.3251844015276718
aF0.3278477910201538
aF0.6721522089798462
aF0.6748155984723282
aF1.000095358338428
asg61
I00
sg29
g62
sg63
g64
sg65
L0L
sa.