(lp0
(dp1
Vexp-ON
p2
(lp3
F-0.0004203936427202848
aF-0.00030889506235607696
aF-8.582995179849993e-06
aF1.00000858299518
aF1.0003088950623562
aF1.0004203936427203
asVid
p4
Vnull
p5
sValgorithm
p6
Vry4p
p7
sVmain-counts
p8
(dp9
Vcounts
p10
(dp11
V00000
p12
L1024L
sssVparameters
p13
(lp14
F0.0
aF0.0
aF0.0
aF0.0
asVcombined
p15
I00
sVstatus
p16
VCOMPLETED
p17
sVerr-counts
p18
(dp19
g10
(dp20
V01000
p21
L135L
sV11000
p22
L118L
sV01100
p23
L127L
sV11100
p24
L111L
sV10100
p25
L140L
sV00000
p26
L131L
sV00100
p27
L137L
sV10000
p28
L125L
sssVqobj
p29
(dp30
Vcircuits
p31
(lp32
(dp33
Vcompiled_circuit_qasm
p34
VOPENQASM 2.0;\u000ainclude "qelib1.inc";\u000aqreg main_qr[5];\u000acreg main_cr[5];\u000au3(0.0,0.0,0.0) main_qr[4];\u000au3(0.0,0.0,0.0) main_qr[3];\u000acx main_qr[3],main_qr[4];\u000au3(0.0,0.0,0.0) main_qr[3];\u000ameasure main_qr[4] -> main_cr[4];\u000au3(0.0,0.0,0.0) main_qr[2];\u000acx main_qr[3],main_qr[2];\u000ameasure main_qr[2] -> main_cr[2];\u000ameasure main_qr[3] -> main_cr[3];\u000a
p35
sVname
p36
Vmain
p37
sVcompiled_circuit
p38
c_codecs
encode
p39
(V{"header": {"number_of_clbits": 5, "qubit_labels": [["main_qr", 0], ["main_qr", 1], ["main_qr", 2], ["main_qr", 3], ["main_qr", 4]], "number_of_qubits": 5, "clbit_labels": [["main_cr", 5]]}, "operations": [{"name": "u3", "texparams": ["0.00000000", "0.00000000", "0.00000000"], "qubits": [4], "params": [0.0, 0.0, 0.0]}, {"name": "u3", "texparams": ["0.00000000", "0.00000000", "0.00000000"], "qubits": [3], "params": [0.0, 0.0, 0.0]}, {"name": "cx", "texparams": [], "qubits": [3, 4], "params": []}, {"name": "u3", "texparams": ["0.00000000", "0.00000000", "0.00000000"], "qubits": [3], "params": [0.0, 0.0, 0.0]}, {"name": "measure", "clbits": [4], "qubits": [4]}, {"name": "u3", "texparams": ["0.00000000", "0.00000000", "0.00000000"], "qubits": [2], "params": [0.0, 0.0, 0.0]}, {"name": "cx", "texparams": [], "qubits": [3, 2], "params": []}, {"name": "measure", "clbits": [2], "qubits": [2]}, {"name": "measure", "clbits": [3], "qubits": [3]}]}
p40
Vlatin1
p41
tp42
Rp43
sVconfig
p44
(dp45
Vlayout
p46
NsVbasis_gates
p47
Vu1,u2,u3,cx,id
p48
sVcoupling_map
p49
NsVseed
p50
Nssa(dp51
g34
VOPENQASM 2.0;\u000ainclude "qelib1.inc";\u000aqreg err_qr[5];\u000acreg err_cr[5];\u000au3(0.0,0.0,0.0) err_qr[4];\u000au3(0.0,0.0,0.0) err_qr[3];\u000acx err_qr[3],err_qr[4];\u000au3(0.0,0.0,0.0) err_qr[3];\u000au3(1.570796326794897,0.0,0.0) err_qr[4];\u000ameasure err_qr[4] -> err_cr[4];\u000au3(0.0,0.0,0.0) err_qr[2];\u000acx err_qr[3],err_qr[2];\u000au3(1.570796326794897,0.0,0.0) err_qr[2];\u000ameasure err_qr[2] -> err_cr[2];\u000au3(-1.570796326794897,0.0,0.0) err_qr[3];\u000ameasure err_qr[3] -> err_cr[3];\u000a
p52
sg36
Verr
p53
sg38
g39
(V{"header": {"number_of_clbits": 5, "qubit_labels": [["err_qr", 0], ["err_qr", 1], ["err_qr", 2], ["err_qr", 3], ["err_qr", 4]], "number_of_qubits": 5, "clbit_labels": [["err_cr", 5]]}, "operations": [{"name": "u3", "texparams": ["0.00000000", "0.00000000", "0.00000000"], "qubits": [4], "params": [0.0, 0.0, 0.0]}, {"name": "u3", "texparams": ["0.00000000", "0.00000000", "0.00000000"], "qubits": [3], "params": [0.0, 0.0, 0.0]}, {"name": "cx", "texparams": [], "qubits": [3, 4], "params": []}, {"name": "u3", "texparams": ["0.00000000", "0.00000000", "0.00000000"], "qubits": [3], "params": [0.0, 0.0, 0.0]}, {"name": "u3", "texparams": ["1.57079633", "0.00000000", "0.00000000"], "qubits": [4], "params": [1.570796326794897, 0.0, 0.0]}, {"name": "measure", "clbits": [4], "qubits": [4]}, {"name": "u3", "texparams": ["0.00000000", "0.00000000", "0.00000000"], "qubits": [2], "params": [0.0, 0.0, 0.0]}, {"name": "cx", "texparams": [], "qubits": [3, 2], "params": []}, {"name": "u3", "texparams": ["1.57079633", "0.00000000", "0.00000000"], "qubits": [2], "params": [1.570796326794897, 0.0, 0.0]}, {"name": "measure", "clbits": [2], "qubits": [2]}, {"name": "u3", "texparams": ["-(1.57079633)", "0.00000000", "0.00000000"], "qubits": [3], "params": [-1.570796326794897, 0.0, 0.0]}, {"name": "measure", "clbits": [3], "qubits": [3]}]}
p54
g41
tp55
Rp56
sg44
g45
sasg4
VgBpaV7p9jYsFAYc5MGiTD0yHwcuNTK
p57
sg44
(dp58
Vbackend
p59
Vlocal_qasm_simulator
p60
sVshots
p61
L1024L
sVmax_credits
p62
L10L
sssVorder
p63
(lp64
L3L
aL4L
aL3L
aL2L
aL4L
aL2L
asg59
g60
sg61
L1024L
sVrun
p65
L0L
sa(dp66
g2
(lp67
F0.00094216422371729
aF0.09480304750343937
aF0.10048924802656085
aF0.8995107519734391
aF0.9051969524965606
aF0.9990578357762825
asg4
g5
sg6
g7
sVmain-counts
p68
(dp69
g10
(dp70
V01000
p71
L4L
sV11000
p72
L7L
sV01100
p73
L446L
sV11100
p74
L456L
sV10100
p75
L1L
sV00000
p76
L67L
sV00100
p77
L1L
sV10000
p78
L42L
sssg13
(lp79
F41.6
aF43.4
aF28.5
aF8.4
asg15
I00
sg16
g17
sVerr-counts
p80
(dp81
g10
(dp82
V10000
p83
L58L
sV11000
p84
L318L
sV01100
p85
L1L
sV10100
p86
L535L
sV11100
p87
L112L
sssg29
(dp88
g31
(lp89
(dp90
g34
VOPENQASM 2.0;\u000ainclude "qelib1.inc";\u000aqreg main_qr[5];\u000acreg main_cr[5];\u000au3(1.514945790731078,0.0,0.0) main_qr[4];\u000au3(1.452113937659282,0.0,0.0) main_qr[3];\u000acx main_qr[3],main_qr[4];\u000au3(0.994837673636768,0.0,0.0) main_qr[3];\u000ameasure main_qr[4] -> main_cr[4];\u000au3(0.293215314335047,0.0,0.0) main_qr[2];\u000acx main_qr[3],main_qr[2];\u000ameasure main_qr[2] -> main_cr[2];\u000ameasure main_qr[3] -> main_cr[3];\u000a
p91
sg36
g37
sg38
g39
(V{"header": {"number_of_clbits": 5, "qubit_labels": [["main_qr", 0], ["main_qr", 1], ["main_qr", 2], ["main_qr", 3], ["main_qr", 4]], "number_of_qubits": 5, "clbit_labels": [["main_cr", 5]]}, "operations": [{"name": "u3", "texparams": ["1.51494579", "0.00000000", "0.00000000"], "qubits": [4], "params": [1.514945790731078, 0.0, 0.0]}, {"name": "u3", "texparams": ["1.45211394", "0.00000000", "0.00000000"], "qubits": [3], "params": [1.452113937659282, 0.0, 0.0]}, {"name": "cx", "texparams": [], "qubits": [3, 4], "params": []}, {"name": "u3", "texparams": ["0.99483767", "0.00000000", "0.00000000"], "qubits": [3], "params": [0.994837673636768, 0.0, 0.0]}, {"name": "measure", "clbits": [4], "qubits": [4]}, {"name": "u3", "texparams": ["0.29321531", "0.00000000", "0.00000000"], "qubits": [2], "params": [0.293215314335047, 0.0, 0.0]}, {"name": "cx", "texparams": [], "qubits": [3, 2], "params": []}, {"name": "measure", "clbits": [2], "qubits": [2]}, {"name": "measure", "clbits": [3], "qubits": [3]}]}
p92
g41
tp93
Rp94
sg44
(dp95
g46
Nsg47
g48
sg49
Nsg50
Nssa(dp96
g34
VOPENQASM 2.0;\u000ainclude "qelib1.inc";\u000aqreg err_qr[5];\u000acreg err_cr[5];\u000au3(1.514945790731078,0.0,0.0) err_qr[4];\u000au3(1.452113937659282,0.0,0.0) err_qr[3];\u000acx err_qr[3],err_qr[4];\u000au3(0.994837673636768,0.0,0.0) err_qr[3];\u000au3(1.570796326794897,0.0,0.0) err_qr[4];\u000ameasure err_qr[4] -> err_cr[4];\u000au3(0.293215314335047,0.0,0.0) err_qr[2];\u000acx err_qr[3],err_qr[2];\u000au3(1.570796326794897,0.0,0.0) err_qr[2];\u000ameasure err_qr[2] -> err_cr[2];\u000au3(-1.570796326794897,0.0,0.0) err_qr[3];\u000ameasure err_qr[3] -> err_cr[3];\u000a
p97
sg36
g53
sg38
g39
(V{"header": {"number_of_clbits": 5, "qubit_labels": [["err_qr", 0], ["err_qr", 1], ["err_qr", 2], ["err_qr", 3], ["err_qr", 4]], "number_of_qubits": 5, "clbit_labels": [["err_cr", 5]]}, "operations": [{"name": "u3", "texparams": ["1.51494579", "0.00000000", "0.00000000"], "qubits": [4], "params": [1.514945790731078, 0.0, 0.0]}, {"name": "u3", "texparams": ["1.45211394", "0.00000000", "0.00000000"], "qubits": [3], "params": [1.452113937659282, 0.0, 0.0]}, {"name": "cx", "texparams": [], "qubits": [3, 4], "params": []}, {"name": "u3", "texparams": ["0.99483767", "0.00000000", "0.00000000"], "qubits": [3], "params": [0.994837673636768, 0.0, 0.0]}, {"name": "u3", "texparams": ["1.57079633", "0.00000000", "0.00000000"], "qubits": [4], "params": [1.570796326794897, 0.0, 0.0]}, {"name": "measure", "clbits": [4], "qubits": [4]}, {"name": "u3", "texparams": ["0.29321531", "0.00000000", "0.00000000"], "qubits": [2], "params": [0.293215314335047, 0.0, 0.0]}, {"name": "cx", "texparams": [], "qubits": [3, 2], "params": []}, {"name": "u3", "texparams": ["1.57079633", "0.00000000", "0.00000000"], "qubits": [2], "params": [1.570796326794897, 0.0, 0.0]}, {"name": "measure", "clbits": [2], "qubits": [2]}, {"name": "u3", "texparams": ["-(1.57079633)", "0.00000000", "0.00000000"], "qubits": [3], "params": [-1.570796326794897, 0.0, 0.0]}, {"name": "measure", "clbits": [3], "qubits": [3]}]}
p98
g41
tp99
Rp100
sg44
g95
sasg4
V2nykxYfz6Vqqn2VAP5sCM8U2A4eM3u
p101
sg44
(dp102
g59
g60
sg61
L1024L
sg62
L10L
sssg63
(lp103
L3L
aL4L
aL3L
aL2L
aL4L
aL2L
asg59
g60
sg61
L1024L
sg65
L0L
sa(dp104
g2
(lp105
F0.004239892890452901
aF0.3554390602707282
aF0.3589348792715477
aF0.6410651207284521
aF0.6445609397292718
aF0.9957601071095469
asg4
g5
sg6
g7
sVmain-counts
p106
(dp107
g10
(dp108
V01000
p109
L7L
sV11000
p110
L5L
sV01100
p111
L209L
sV11100
p112
L226L
sV10100
p113
L7L
sV00000
p114
L334L
sV00100
p115
L3L
sV10000
p116
L233L
sssg13
(lp117
F30.0
aF40.6
aF11.7
aF7.1
asg15
I00
sg16
g17
sVerr-counts
p118
(dp119
g10
(dp120
V01000
p121
L1L
sV11000
p122
L376L
sV01100
p123
L3L
sV11100
p124
L3L
sV00000
p125
L2L
sV10100
p126
L638L
sV10000
p127
L1L
sssg29
(dp128
g31
(lp129
(dp130
g34
VOPENQASM 2.0;\u000ainclude "qelib1.inc";\u000aqreg main_qr[5];\u000acreg main_cr[5];\u000au3(1.417207352619396,0.0,0.0) main_qr[4];\u000au3(1.047197551196598,0.0,0.0) main_qr[3];\u000acx main_qr[3],main_qr[4];\u000au3(0.408407044966673,0.0,0.0) main_qr[3];\u000ameasure main_qr[4] -> main_cr[4];\u000au3(0.247836753783195,0.0,0.0) main_qr[2];\u000acx main_qr[3],main_qr[2];\u000ameasure main_qr[2] -> main_cr[2];\u000ameasure main_qr[3] -> main_cr[3];\u000a
p131
sg36
g37
sg38
g39
(V{"header": {"number_of_clbits": 5, "qubit_labels": [["main_qr", 0], ["main_qr", 1], ["main_qr", 2], ["main_qr", 3], ["main_qr", 4]], "number_of_qubits": 5, "clbit_labels": [["main_cr", 5]]}, "operations": [{"name": "u3", "texparams": ["1.41720735", "0.00000000", "0.00000000"], "qubits": [4], "params": [1.417207352619396, 0.0, 0.0]}, {"name": "u3", "texparams": ["1.04719755", "0.00000000", "0.00000000"], "qubits": [3], "params": [1.047197551196598, 0.0, 0.0]}, {"name": "cx", "texparams": [], "qubits": [3, 4], "params": []}, {"name": "u3", "texparams": ["0.40840704", "0.00000000", "0.00000000"], "qubits": [3], "params": [0.408407044966673, 0.0, 0.0]}, {"name": "measure", "clbits": [4], "qubits": [4]}, {"name": "u3", "texparams": ["0.24783675", "0.00000000", "0.00000000"], "qubits": [2], "params": [0.247836753783195, 0.0, 0.0]}, {"name": "cx", "texparams": [], "qubits": [3, 2], "params": []}, {"name": "measure", "clbits": [2], "qubits": [2]}, {"name": "measure", "clbits": [3], "qubits": [3]}]}
p132
g41
tp133
Rp134
sg44
(dp135
g46
Nsg47
g48
sg49
Nsg50
Nssa(dp136
g34
VOPENQASM 2.0;\u000ainclude "qelib1.inc";\u000aqreg err_qr[5];\u000acreg err_cr[5];\u000au3(1.417207352619396,0.0,0.0) err_qr[4];\u000au3(1.047197551196598,0.0,0.0) err_qr[3];\u000acx err_qr[3],err_qr[4];\u000au3(0.408407044966673,0.0,0.0) err_qr[3];\u000au3(1.570796326794897,0.0,0.0) err_qr[4];\u000ameasure err_qr[4] -> err_cr[4];\u000au3(0.247836753783195,0.0,0.0) err_qr[2];\u000acx err_qr[3],err_qr[2];\u000au3(1.570796326794897,0.0,0.0) err_qr[2];\u000ameasure err_qr[2] -> err_cr[2];\u000au3(-1.570796326794897,0.0,0.0) err_qr[3];\u000ameasure err_qr[3] -> err_cr[3];\u000a
p137
sg36
g53
sg38
g39
(V{"header": {"number_of_clbits": 5, "qubit_labels": [["err_qr", 0], ["err_qr", 1], ["err_qr", 2], ["err_qr", 3], ["err_qr", 4]], "number_of_qubits": 5, "clbit_labels": [["err_cr", 5]]}, "operations": [{"name": "u3", "texparams": ["1.41720735", "0.00000000", "0.00000000"], "qubits": [4], "params": [1.417207352619396, 0.0, 0.0]}, {"name": "u3", "texparams": ["1.04719755", "0.00000000", "0.00000000"], "qubits": [3], "params": [1.047197551196598, 0.0, 0.0]}, {"name": "cx", "texparams": [], "qubits": [3, 4], "params": []}, {"name": "u3", "texparams": ["0.40840704", "0.00000000", "0.00000000"], "qubits": [3], "params": [0.408407044966673, 0.0, 0.0]}, {"name": "u3", "texparams": ["1.57079633", "0.00000000", "0.00000000"], "qubits": [4], "params": [1.570796326794897, 0.0, 0.0]}, {"name": "measure", "clbits": [4], "qubits": [4]}, {"name": "u3", "texparams": ["0.24783675", "0.00000000", "0.00000000"], "qubits": [2], "params": [0.247836753783195, 0.0, 0.0]}, {"name": "cx", "texparams": [], "qubits": [3, 2], "params": []}, {"name": "u3", "texparams": ["1.57079633", "0.00000000", "0.00000000"], "qubits": [2], "params": [1.570796326794897, 0.0, 0.0]}, {"name": "measure", "clbits": [2], "qubits": [2]}, {"name": "u3", "texparams": ["-(1.57079633)", "0.00000000", "0.00000000"], "qubits": [3], "params": [-1.570796326794897, 0.0, 0.0]}, {"name": "measure", "clbits": [3], "qubits": [3]}]}
p138
g41
tp139
Rp140
sg44
g135
sasg4
VzuaaYgKD7SDFX2Fa6EWlcEK3AL6tcp
p141
sg44
(dp142
g59
g60
sg61
L1024L
sg62
L10L
sssg63
(lp143
L3L
aL4L
aL3L
aL2L
aL4L
aL2L
asg59
g60
sg61
L1024L
sg65
L0L
sa(dp144
g2
(lp145
F0.06171052501868757
aF0.15931402629661628
aF0.17628462928777755
aF0.8237153707122223
aF0.8406859737033836
aF0.9382894749813125
asg4
g5
sg6
g7
sVmain-counts
p146
(dp147
g10
(dp148
V01000
p149
L11L
sV11000
p150
L36L
sV01100
p151
L65L
sV11100
p152
L121L
sV10100
p153
L4L
sV00000
p154
L611L
sV00100
p155
L172L
sV10000
p156
L4L
sssg13
(lp157
F22.4
aF0.8
aF17.3
aF27.8
asg15
I00
sg16
g17
sVerr-counts
p158
(dp159
g10
(dp160
V01000
p161
L16L
sV11000
p162
L47L
sV01100
p163
L267L
sV11100
p164
L3L
sV00000
p165
L26L
sV00100
p166
L167L
sV10100
p167
L498L
sssg29
(dp168
g31
(lp169
(dp170
g34
VOPENQASM 2.0;\u000ainclude "qelib1.inc";\u000aqreg main_qr[5];\u000acreg main_cr[5];\u000au3(0.027925268031909,0.0,0.0) main_qr[4];\u000au3(0.78190750489346,0.0,0.0) main_qr[3];\u000acx main_qr[3],main_qr[4];\u000au3(0.603883921190038,0.0,0.0) main_qr[3];\u000ameasure main_qr[4] -> main_cr[4];\u000au3(0.970403064108847,0.0,0.0) main_qr[2];\u000acx main_qr[3],main_qr[2];\u000ameasure main_qr[2] -> main_cr[2];\u000ameasure main_qr[3] -> main_cr[3];\u000a
p171
sg36
g37
sg38
g39
(V{"header": {"number_of_clbits": 5, "qubit_labels": [["main_qr", 0], ["main_qr", 1], ["main_qr", 2], ["main_qr", 3], ["main_qr", 4]], "number_of_qubits": 5, "clbit_labels": [["main_cr", 5]]}, "operations": [{"name": "u3", "texparams": ["0.02792527", "0.00000000", "0.00000000"], "qubits": [4], "params": [0.027925268031909, 0.0, 0.0]}, {"name": "u3", "texparams": ["0.78190750", "0.00000000", "0.00000000"], "qubits": [3], "params": [0.78190750489346, 0.0, 0.0]}, {"name": "cx", "texparams": [], "qubits": [3, 4], "params": []}, {"name": "u3", "texparams": ["0.60388392", "0.00000000", "0.00000000"], "qubits": [3], "params": [0.603883921190038, 0.0, 0.0]}, {"name": "measure", "clbits": [4], "qubits": [4]}, {"name": "u3", "texparams": ["0.97040306", "0.00000000", "0.00000000"], "qubits": [2], "params": [0.970403064108847, 0.0, 0.0]}, {"name": "cx", "texparams": [], "qubits": [3, 2], "params": []}, {"name": "measure", "clbits": [2], "qubits": [2]}, {"name": "measure", "clbits": [3], "qubits": [3]}]}
p172
g41
tp173
Rp174
sg44
(dp175
g46
Nsg47
g48
sg49
Nsg50
Nssa(dp176
g34
VOPENQASM 2.0;\u000ainclude "qelib1.inc";\u000aqreg err_qr[5];\u000acreg err_cr[5];\u000au3(0.027925268031909,0.0,0.0) err_qr[4];\u000au3(0.78190750489346,0.0,0.0) err_qr[3];\u000acx err_qr[3],err_qr[4];\u000au3(0.603883921190038,0.0,0.0) err_qr[3];\u000au3(1.570796326794897,0.0,0.0) err_qr[4];\u000ameasure err_qr[4] -> err_cr[4];\u000au3(0.970403064108847,0.0,0.0) err_qr[2];\u000acx err_qr[3],err_qr[2];\u000au3(1.570796326794897,0.0,0.0) err_qr[2];\u000ameasure err_qr[2] -> err_cr[2];\u000au3(-1.570796326794897,0.0,0.0) err_qr[3];\u000ameasure err_qr[3] -> err_cr[3];\u000a
p177
sg36
g53
sg38
g39
(V{"header": {"number_of_clbits": 5, "qubit_labels": [["err_qr", 0], ["err_qr", 1], ["err_qr", 2], ["err_qr", 3], ["err_qr", 4]], "number_of_qubits": 5, "clbit_labels": [["err_cr", 5]]}, "operations": [{"name": "u3", "texparams": ["0.02792527", "0.00000000", "0.00000000"], "qubits": [4], "params": [0.027925268031909, 0.0, 0.0]}, {"name": "u3", "texparams": ["0.78190750", "0.00000000", "0.00000000"], "qubits": [3], "params": [0.78190750489346, 0.0, 0.0]}, {"name": "cx", "texparams": [], "qubits": [3, 4], "params": []}, {"name": "u3", "texparams": ["0.60388392", "0.00000000", "0.00000000"], "qubits": [3], "params": [0.603883921190038, 0.0, 0.0]}, {"name": "u3", "texparams": ["1.57079633", "0.00000000", "0.00000000"], "qubits": [4], "params": [1.570796326794897, 0.0, 0.0]}, {"name": "measure", "clbits": [4], "qubits": [4]}, {"name": "u3", "texparams": ["0.97040306", "0.00000000", "0.00000000"], "qubits": [2], "params": [0.970403064108847, 0.0, 0.0]}, {"name": "cx", "texparams": [], "qubits": [3, 2], "params": []}, {"name": "u3", "texparams": ["1.57079633", "0.00000000", "0.00000000"], "qubits": [2], "params": [1.570796326794897, 0.0, 0.0]}, {"name": "measure", "clbits": [2], "qubits": [2]}, {"name": "u3", "texparams": ["-(1.57079633)", "0.00000000", "0.00000000"], "qubits": [3], "params": [-1.570796326794897, 0.0, 0.0]}, {"name": "measure", "clbits": [3], "qubits": [3]}]}
p178
g41
tp179
Rp180
sg44
g175
sasg4
VbKMwZhctpjhnx7Ro0ijeDekwNtjpyi
p181
sg44
(dp182
g59
g60
sg61
L1024L
sg62
L10L
sssg63
(lp183
L3L
aL4L
aL3L
aL2L
aL4L
aL2L
asg59
g60
sg61
L1024L
sg65
L0L
sa(dp184
g2
(lp185
F0.02874914356582714
aF0.044613921927185995
aF0.05912772549551515
aF0.9408722745044849
aF0.9553860780728141
aF0.9712508564341729
asg4
g5
sg6
g7
sVmain-counts
p186
(dp187
g10
(dp188
V01000
p189
L6L
sV11000
p190
L20L
sV01100
p191
L25L
sV11100
p192
L78L
sV10100
p193
L43L
sV00000
p194
L535L
sV00100
p195
L115L
sV10000
p196
L202L
sssg13
(lp197
F19.5
aF30.6
aF0.7
aF25.5
asg15
I00
sg16
g17
sVerr-counts
p198
(dp199
g10
(dp200
V01000
p201
L2L
sV11000
p202
L96L
sV01100
p203
L41L
sV11100
p204
L134L
sV10100
p205
L719L
sV00000
p206
L6L
sV00100
p207
L11L
sV10000
p208
L15L
sssg29
(dp209
g31
(lp210
(dp211
g34
VOPENQASM 2.0;\u000ainclude "qelib1.inc";\u000aqreg main_qr[5];\u000acreg main_cr[5];\u000au3(1.06814150222053,0.0,0.0) main_qr[4];\u000au3(0.680678408277788,0.0,0.0) main_qr[3];\u000acx main_qr[3],main_qr[4];\u000au3(0.024434609527921,0.0,0.0) main_qr[3];\u000ameasure main_qr[4] -> main_cr[4];\u000au3(0.890117918517108,0.0,0.0) main_qr[2];\u000acx main_qr[3],main_qr[2];\u000ameasure main_qr[2] -> main_cr[2];\u000ameasure main_qr[3] -> main_cr[3];\u000a
p212
sg36
g37
sg38
g39
(V{"header": {"number_of_clbits": 5, "qubit_labels": [["main_qr", 0], ["main_qr", 1], ["main_qr", 2], ["main_qr", 3], ["main_qr", 4]], "number_of_qubits": 5, "clbit_labels": [["main_cr", 5]]}, "operations": [{"name": "u3", "texparams": ["1.06814150", "0.00000000", "0.00000000"], "qubits": [4], "params": [1.06814150222053, 0.0, 0.0]}, {"name": "u3", "texparams": ["0.68067841", "0.00000000", "0.00000000"], "qubits": [3], "params": [0.680678408277788, 0.0, 0.0]}, {"name": "cx", "texparams": [], "qubits": [3, 4], "params": []}, {"name": "u3", "texparams": ["0.02443461", "0.00000000", "0.00000000"], "qubits": [3], "params": [0.024434609527921, 0.0, 0.0]}, {"name": "measure", "clbits": [4], "qubits": [4]}, {"name": "u3", "texparams": ["0.89011792", "0.00000000", "0.00000000"], "qubits": [2], "params": [0.890117918517108, 0.0, 0.0]}, {"name": "cx", "texparams": [], "qubits": [3, 2], "params": []}, {"name": "measure", "clbits": [2], "qubits": [2]}, {"name": "measure", "clbits": [3], "qubits": [3]}]}
p213
g41
tp214
Rp215
sg44
(dp216
g46
Nsg47
g48
sg49
Nsg50
Nssa(dp217
g34
VOPENQASM 2.0;\u000ainclude "qelib1.inc";\u000aqreg err_qr[5];\u000acreg err_cr[5];\u000au3(1.06814150222053,0.0,0.0) err_qr[4];\u000au3(0.680678408277788,0.0,0.0) err_qr[3];\u000acx err_qr[3],err_qr[4];\u000au3(0.024434609527921,0.0,0.0) err_qr[3];\u000au3(1.570796326794897,0.0,0.0) err_qr[4];\u000ameasure err_qr[4] -> err_cr[4];\u000au3(0.890117918517108,0.0,0.0) err_qr[2];\u000acx err_qr[3],err_qr[2];\u000au3(1.570796326794897,0.0,0.0) err_qr[2];\u000ameasure err_qr[2] -> err_cr[2];\u000au3(-1.570796326794897,0.0,0.0) err_qr[3];\u000ameasure err_qr[3] -> err_cr[3];\u000a
p218
sg36
g53
sg38
g39
(V{"header": {"number_of_clbits": 5, "qubit_labels": [["err_qr", 0], ["err_qr", 1], ["err_qr", 2], ["err_qr", 3], ["err_qr", 4]], "number_of_qubits": 5, "clbit_labels": [["err_cr", 5]]}, "operations": [{"name": "u3", "texparams": ["1.06814150", "0.00000000", "0.00000000"], "qubits": [4], "params": [1.06814150222053, 0.0, 0.0]}, {"name": "u3", "texparams": ["0.68067841", "0.00000000", "0.00000000"], "qubits": [3], "params": [0.680678408277788, 0.0, 0.0]}, {"name": "cx", "texparams": [], "qubits": [3, 4], "params": []}, {"name": "u3", "texparams": ["0.02443461", "0.00000000", "0.00000000"], "qubits": [3], "params": [0.024434609527921, 0.0, 0.0]}, {"name": "u3", "texparams": ["1.57079633", "0.00000000", "0.00000000"], "qubits": [4], "params": [1.570796326794897, 0.0, 0.0]}, {"name": "measure", "clbits": [4], "qubits": [4]}, {"name": "u3", "texparams": ["0.89011792", "0.00000000", "0.00000000"], "qubits": [2], "params": [0.890117918517108, 0.0, 0.0]}, {"name": "cx", "texparams": [], "qubits": [3, 2], "params": []}, {"name": "u3", "texparams": ["1.57079633", "0.00000000", "0.00000000"], "qubits": [2], "params": [1.570796326794897, 0.0, 0.0]}, {"name": "measure", "clbits": [2], "qubits": [2]}, {"name": "u3", "texparams": ["-(1.57079633)", "0.00000000", "0.00000000"], "qubits": [3], "params": [-1.570796326794897, 0.0, 0.0]}, {"name": "measure", "clbits": [3], "qubits": [3]}]}
p219
g41
tp220
Rp221
sg44
g216
sasg4
VDe9KA9Jnf4sSpjtDJOVLqcA7qtmQMP
p222
sg44
(dp223
g59
g60
sg61
L1024L
sg62
L10L
sssg63
(lp224
L3L
aL4L
aL3L
aL2L
aL4L
aL2L
asg59
g60
sg61
L1024L
sg65
L0L
sa(dp225
g2
(lp226
F0.0768204126676647
aF0.30195273976861925
aF0.3023865998769235
aF0.6976134001230765
aF0.6980472602313808
aF0.9231795873323354
asg4
g5
sg6
g7
sVmain-counts
p227
(dp228
g10
(dp229
V00000
p230
L306L
sV01100
p231
L438L
sV11100
p232
L276L
sV10000
p233
L4L
sssg13
(lp234
F23.9
aF24.0
aF39.4
aF0.8
asg15
I00
sg16
g17
sVerr-counts
p235
(dp236
g10
(dp237
V01000
p238
L49L
sV11000
p239
L383L
sV01100
p240
L19L
sV11100
p241
L49L
sV10100
p242
L402L
sV00000
p243
L18L
sV00100
p244
L60L
sV10000
p245
L44L
sssg29
(dp246
g31
(lp247
(dp248
g34
VOPENQASM 2.0;\u000ainclude "qelib1.inc";\u000aqreg main_qr[5];\u000acreg main_cr[5];\u000au3(0.837758040957278,0.0,0.0) main_qr[4];\u000au3(0.834267382453289,0.0,0.0) main_qr[3];\u000acx main_qr[3],main_qr[4];\u000au3(1.375319450571532,0.0,0.0) main_qr[3];\u000ameasure main_qr[4] -> main_cr[4];\u000au3(0.027925268031909,0.0,0.0) main_qr[2];\u000acx main_qr[3],main_qr[2];\u000ameasure main_qr[2] -> main_cr[2];\u000ameasure main_qr[3] -> main_cr[3];\u000a
p249
sg36
g37
sg38
g39
(V{"header": {"number_of_clbits": 5, "qubit_labels": [["main_qr", 0], ["main_qr", 1], ["main_qr", 2], ["main_qr", 3], ["main_qr", 4]], "number_of_qubits": 5, "clbit_labels": [["main_cr", 5]]}, "operations": [{"name": "u3", "texparams": ["0.83775804", "0.00000000", "0.00000000"], "qubits": [4], "params": [0.837758040957278, 0.0, 0.0]}, {"name": "u3", "texparams": ["0.83426738", "0.00000000", "0.00000000"], "qubits": [3], "params": [0.834267382453289, 0.0, 0.0]}, {"name": "cx", "texparams": [], "qubits": [3, 4], "params": []}, {"name": "u3", "texparams": ["1.37531945", "0.00000000", "0.00000000"], "qubits": [3], "params": [1.375319450571532, 0.0, 0.0]}, {"name": "measure", "clbits": [4], "qubits": [4]}, {"name": "u3", "texparams": ["0.02792527", "0.00000000", "0.00000000"], "qubits": [2], "params": [0.027925268031909, 0.0, 0.0]}, {"name": "cx", "texparams": [], "qubits": [3, 2], "params": []}, {"name": "measure", "clbits": [2], "qubits": [2]}, {"name": "measure", "clbits": [3], "qubits": [3]}]}
p250
g41
tp251
Rp252
sg44
(dp253
g46
Nsg47
g48
sg49
Nsg50
Nssa(dp254
g34
VOPENQASM 2.0;\u000ainclude "qelib1.inc";\u000aqreg err_qr[5];\u000acreg err_cr[5];\u000au3(0.837758040957278,0.0,0.0) err_qr[4];\u000au3(0.834267382453289,0.0,0.0) err_qr[3];\u000acx err_qr[3],err_qr[4];\u000au3(1.375319450571532,0.0,0.0) err_qr[3];\u000au3(1.570796326794897,0.0,0.0) err_qr[4];\u000ameasure err_qr[4] -> err_cr[4];\u000au3(0.027925268031909,0.0,0.0) err_qr[2];\u000acx err_qr[3],err_qr[2];\u000au3(1.570796326794897,0.0,0.0) err_qr[2];\u000ameasure err_qr[2] -> err_cr[2];\u000au3(-1.570796326794897,0.0,0.0) err_qr[3];\u000ameasure err_qr[3] -> err_cr[3];\u000a
p255
sg36
g53
sg38
g39
(V{"header": {"number_of_clbits": 5, "qubit_labels": [["err_qr", 0], ["err_qr", 1], ["err_qr", 2], ["err_qr", 3], ["err_qr", 4]], "number_of_qubits": 5, "clbit_labels": [["err_cr", 5]]}, "operations": [{"name": "u3", "texparams": ["0.83775804", "0.00000000", "0.00000000"], "qubits": [4], "params": [0.837758040957278, 0.0, 0.0]}, {"name": "u3", "texparams": ["0.83426738", "0.00000000", "0.00000000"], "qubits": [3], "params": [0.834267382453289, 0.0, 0.0]}, {"name": "cx", "texparams": [], "qubits": [3, 4], "params": []}, {"name": "u3", "texparams": ["1.37531945", "0.00000000", "0.00000000"], "qubits": [3], "params": [1.375319450571532, 0.0, 0.0]}, {"name": "u3", "texparams": ["1.57079633", "0.00000000", "0.00000000"], "qubits": [4], "params": [1.570796326794897, 0.0, 0.0]}, {"name": "measure", "clbits": [4], "qubits": [4]}, {"name": "u3", "texparams": ["0.02792527", "0.00000000", "0.00000000"], "qubits": [2], "params": [0.027925268031909, 0.0, 0.0]}, {"name": "cx", "texparams": [], "qubits": [3, 2], "params": []}, {"name": "u3", "texparams": ["1.57079633", "0.00000000", "0.00000000"], "qubits": [2], "params": [1.570796326794897, 0.0, 0.0]}, {"name": "measure", "clbits": [2], "qubits": [2]}, {"name": "u3", "texparams": ["-(1.57079633)", "0.00000000", "0.00000000"], "qubits": [3], "params": [-1.570796326794897, 0.0, 0.0]}, {"name": "measure", "clbits": [3], "qubits": [3]}]}
p256
g41
tp257
Rp258
sg44
g253
sasg4
VSr1yAG4k8zMchK2sjKNThiSiq757EF
p259
sg44
(dp260
g59
g60
sg61
L1024L
sg62
L10L
sssg63
(lp261
L3L
aL4L
aL3L
aL2L
aL4L
aL2L
asg59
g60
sg61
L1024L
sg65
L0L
sa(dp262
g2
(lp263
F-0.0005185299548110534
aF0.16187096335516632
aF0.16196828270925334
aF0.8380317172907467
aF0.8381290366448337
aF1.0005185299548107
asg4
g5
sg6
g7
sVmain-counts
p264
(dp265
g10
(dp266
V00000
p267
L483L
sV01100
p268
L97L
sV10000
p269
L375L
sV11100
p270
L69L
sssg13
(lp271
F9.6
aF41.9
aF16.7
aF1.6
asg15
I00
sg16
g17
sVerr-counts
p272
(dp273
g10
(dp274
V01000
p275
L1L
sV11000
p276
L438L
sV01100
p277
L1L
sV11100
p278
L62L
sV10100
p279
L461L
sV00000
p280
L1L
sV00100
p281
L1L
sV10000
p282
L59L
sssg29
(dp283
g31
(lp284
(dp285
g34
VOPENQASM 2.0;\u000ainclude "qelib1.inc";\u000aqreg main_qr[5];\u000acreg main_cr[5];\u000au3(1.462585913171248,0.0,0.0) main_qr[4];\u000au3(0.335103216382911,0.0,0.0) main_qr[3];\u000acx main_qr[3],main_qr[4];\u000au3(0.582939970166106,0.0,0.0) main_qr[3];\u000ameasure main_qr[4] -> main_cr[4];\u000au3(0.055850536063819,0.0,0.0) main_qr[2];\u000acx main_qr[3],main_qr[2];\u000ameasure main_qr[2] -> main_cr[2];\u000ameasure main_qr[3] -> main_cr[3];\u000a
p286
sg36
g37
sg38
g39
(V{"header": {"number_of_clbits": 5, "qubit_labels": [["main_qr", 0], ["main_qr", 1], ["main_qr", 2], ["main_qr", 3], ["main_qr", 4]], "number_of_qubits": 5, "clbit_labels": [["main_cr", 5]]}, "operations": [{"name": "u3", "texparams": ["1.46258591", "0.00000000", "0.00000000"], "qubits": [4], "params": [1.462585913171248, 0.0, 0.0]}, {"name": "u3", "texparams": ["0.33510322", "0.00000000", "0.00000000"], "qubits": [3], "params": [0.335103216382911, 0.0, 0.0]}, {"name": "cx", "texparams": [], "qubits": [3, 4], "params": []}, {"name": "u3", "texparams": ["0.58293997", "0.00000000", "0.00000000"], "qubits": [3], "params": [0.582939970166106, 0.0, 0.0]}, {"name": "measure", "clbits": [4], "qubits": [4]}, {"name": "u3", "texparams": ["0.05585054", "0.00000000", "0.00000000"], "qubits": [2], "params": [0.055850536063819, 0.0, 0.0]}, {"name": "cx", "texparams": [], "qubits": [3, 2], "params": []}, {"name": "measure", "clbits": [2], "qubits": [2]}, {"name": "measure", "clbits": [3], "qubits": [3]}]}
p287
g41
tp288
Rp289
sg44
(dp290
g46
Nsg47
g48
sg49
Nsg50
Nssa(dp291
g34
VOPENQASM 2.0;\u000ainclude "qelib1.inc";\u000aqreg err_qr[5];\u000acreg err_cr[5];\u000au3(1.462585913171248,0.0,0.0) err_qr[4];\u000au3(0.335103216382911,0.0,0.0) err_qr[3];\u000acx err_qr[3],err_qr[4];\u000au3(0.582939970166106,0.0,0.0) err_qr[3];\u000au3(1.570796326794897,0.0,0.0) err_qr[4];\u000ameasure err_qr[4] -> err_cr[4];\u000au3(0.055850536063819,0.0,0.0) err_qr[2];\u000acx err_qr[3],err_qr[2];\u000au3(1.570796326794897,0.0,0.0) err_qr[2];\u000ameasure err_qr[2] -> err_cr[2];\u000au3(-1.570796326794897,0.0,0.0) err_qr[3];\u000ameasure err_qr[3] -> err_cr[3];\u000a
p292
sg36
g53
sg38
g39
(V{"header": {"number_of_clbits": 5, "qubit_labels": [["err_qr", 0], ["err_qr", 1], ["err_qr", 2], ["err_qr", 3], ["err_qr", 4]], "number_of_qubits": 5, "clbit_labels": [["err_cr", 5]]}, "operations": [{"name": "u3", "texparams": ["1.46258591", "0.00000000", "0.00000000"], "qubits": [4], "params": [1.462585913171248, 0.0, 0.0]}, {"name": "u3", "texparams": ["0.33510322", "0.00000000", "0.00000000"], "qubits": [3], "params": [0.335103216382911, 0.0, 0.0]}, {"name": "cx", "texparams": [], "qubits": [3, 4], "params": []}, {"name": "u3", "texparams": ["0.58293997", "0.00000000", "0.00000000"], "qubits": [3], "params": [0.582939970166106, 0.0, 0.0]}, {"name": "u3", "texparams": ["1.57079633", "0.00000000", "0.00000000"], "qubits": [4], "params": [1.570796326794897, 0.0, 0.0]}, {"name": "measure", "clbits": [4], "qubits": [4]}, {"name": "u3", "texparams": ["0.05585054", "0.00000000", "0.00000000"], "qubits": [2], "params": [0.055850536063819, 0.0, 0.0]}, {"name": "cx", "texparams": [], "qubits": [3, 2], "params": []}, {"name": "u3", "texparams": ["1.57079633", "0.00000000", "0.00000000"], "qubits": [2], "params": [1.570796326794897, 0.0, 0.0]}, {"name": "measure", "clbits": [2], "qubits": [2]}, {"name": "u3", "texparams": ["-(1.57079633)", "0.00000000", "0.00000000"], "qubits": [3], "params": [-1.570796326794897, 0.0, 0.0]}, {"name": "measure", "clbits": [3], "qubits": [3]}]}
p293
g41
tp294
Rp295
sg44
g290
sasg4
VGrXN8zQ0jjLRAHtbvUUJYyYD7oseNa
p296
sg44
(dp297
g59
g60
sg61
L1024L
sg62
L10L
sssg63
(lp298
L3L
aL4L
aL3L
aL2L
aL4L
aL2L
asg59
g60
sg61
L1024L
sg65
L0L
sa(dp299
g2
(lp300
F0.2998046875
aF0.450109219631075
aF0.45649088005870025
aF0.5435091199412998
aF0.549890780368925
aF0.7001953125
asg4
g5
sg6
g7
sVmain-counts
p301
(dp302
g10
(dp303
V00000
p304
L434L
sV10000
p305
L109L
sV01100
p306
L278L
sV10100
p307
L2L
sV11100
p308
L201L
sssg13
(lp309
F32.8
aF2.0
aF37.2
aF2.1
asg15
I00
sg16
g17
sVerr-counts
p310
(dp311
g10
(dp312
V01000
p313
L124L
sV11000
p314
L199L
sV01100
p315
L90L
sV11100
p316
L60L
sV10100
p317
L248L
sV00000
p318
L107L
sV00100
p319
L146L
sV10000
p320
L50L
sssg29
(dp321
g31
(lp322
(dp323
g34
VOPENQASM 2.0;\u000ainclude "qelib1.inc";\u000aqreg main_qr[5];\u000acreg main_cr[5];\u000au3(0.069813170079773,0.0,0.0) main_qr[4];\u000au3(1.14493598930828,0.0,0.0) main_qr[3];\u000acx main_qr[3],main_qr[4];\u000au3(1.298524963483781,0.0,0.0) main_qr[3];\u000ameasure main_qr[4] -> main_cr[4];\u000au3(0.073303828583762,0.0,0.0) main_qr[2];\u000acx main_qr[3],main_qr[2];\u000ameasure main_qr[2] -> main_cr[2];\u000ameasure main_qr[3] -> main_cr[3];\u000a
p324
sg36
g37
sg38
g39
(V{"header": {"number_of_clbits": 5, "qubit_labels": [["main_qr", 0], ["main_qr", 1], ["main_qr", 2], ["main_qr", 3], ["main_qr", 4]], "number_of_qubits": 5, "clbit_labels": [["main_cr", 5]]}, "operations": [{"name": "u3", "texparams": ["0.06981317", "0.00000000", "0.00000000"], "qubits": [4], "params": [0.069813170079773, 0.0, 0.0]}, {"name": "u3", "texparams": ["1.14493599", "0.00000000", "0.00000000"], "qubits": [3], "params": [1.14493598930828, 0.0, 0.0]}, {"name": "cx", "texparams": [], "qubits": [3, 4], "params": []}, {"name": "u3", "texparams": ["1.29852496", "0.00000000", "0.00000000"], "qubits": [3], "params": [1.298524963483781, 0.0, 0.0]}, {"name": "measure", "clbits": [4], "qubits": [4]}, {"name": "u3", "texparams": ["0.07330383", "0.00000000", "0.00000000"], "qubits": [2], "params": [0.073303828583762, 0.0, 0.0]}, {"name": "cx", "texparams": [], "qubits": [3, 2], "params": []}, {"name": "measure", "clbits": [2], "qubits": [2]}, {"name": "measure", "clbits": [3], "qubits": [3]}]}
p325
g41
tp326
Rp327
sg44
(dp328
g46
Nsg47
g48
sg49
Nsg50
Nssa(dp329
g34
VOPENQASM 2.0;\u000ainclude "qelib1.inc";\u000aqreg err_qr[5];\u000acreg err_cr[5];\u000au3(0.069813170079773,0.0,0.0) err_qr[4];\u000au3(1.14493598930828,0.0,0.0) err_qr[3];\u000acx err_qr[3],err_qr[4];\u000au3(1.298524963483781,0.0,0.0) err_qr[3];\u000au3(1.570796326794897,0.0,0.0) err_qr[4];\u000ameasure err_qr[4] -> err_cr[4];\u000au3(0.073303828583762,0.0,0.0) err_qr[2];\u000acx err_qr[3],err_qr[2];\u000au3(1.570796326794897,0.0,0.0) err_qr[2];\u000ameasure err_qr[2] -> err_cr[2];\u000au3(-1.570796326794897,0.0,0.0) err_qr[3];\u000ameasure err_qr[3] -> err_cr[3];\u000a
p330
sg36
g53
sg38
g39
(V{"header": {"number_of_clbits": 5, "qubit_labels": [["err_qr", 0], ["err_qr", 1], ["err_qr", 2], ["err_qr", 3], ["err_qr", 4]], "number_of_qubits": 5, "clbit_labels": [["err_cr", 5]]}, "operations": [{"name": "u3", "texparams": ["0.06981317", "0.00000000", "0.00000000"], "qubits": [4], "params": [0.069813170079773, 0.0, 0.0]}, {"name": "u3", "texparams": ["1.14493599", "0.00000000", "0.00000000"], "qubits": [3], "params": [1.14493598930828, 0.0, 0.0]}, {"name": "cx", "texparams": [], "qubits": [3, 4], "params": []}, {"name": "u3", "texparams": ["1.29852496", "0.00000000", "0.00000000"], "qubits": [3], "params": [1.298524963483781, 0.0, 0.0]}, {"name": "u3", "texparams": ["1.57079633", "0.00000000", "0.00000000"], "qubits": [4], "params": [1.570796326794897, 0.0, 0.0]}, {"name": "measure", "clbits": [4], "qubits": [4]}, {"name": "u3", "texparams": ["0.07330383", "0.00000000", "0.00000000"], "qubits": [2], "params": [0.073303828583762, 0.0, 0.0]}, {"name": "cx", "texparams": [], "qubits": [3, 2], "params": []}, {"name": "u3", "texparams": ["1.57079633", "0.00000000", "0.00000000"], "qubits": [2], "params": [1.570796326794897, 0.0, 0.0]}, {"name": "measure", "clbits": [2], "qubits": [2]}, {"name": "u3", "texparams": ["-(1.57079633)", "0.00000000", "0.00000000"], "qubits": [3], "params": [-1.570796326794897, 0.0, 0.0]}, {"name": "measure", "clbits": [3], "qubits": [3]}]}
p331
g41
tp332
Rp333
sg44
g328
sasg4
VQAESbJmT0bg6PDYVw7zwwDrQgBiOFv
p334
sg44
(dp335
g59
g60
sg61
L1024L
sg62
L10L
sssg63
(lp336
L3L
aL4L
aL3L
aL2L
aL4L
aL2L
asg59
g60
sg61
L1024L
sg65
L0L
sa(dp337
g2
(lp338
F0.16005383861681838
aF0.32408587921071713
aF0.3759650288335357
aF0.6240349711664643
aF0.6759141207892829
aF0.8399461613831816
asg4
g5
sg6
g7
sVmain-counts
p339
(dp340
g10
(dp341
V01000
p342
L14L
sV11000
p343
L3L
sV01100
p344
L402L
sV11100
p345
L109L
sV00000
p346
L424L
sV00100
p347
L8L
sV10000
p348
L64L
sssg13
(lp349
F24.4
aF4.2
aF44.5
aF9.1
asg15
I00
sg16
g17
sVerr-counts
p350
(dp351
g10
(dp352
V01000
p353
L120L
sV11000
p354
L155L
sV01100
p355
L44L
sV11100
p356
L67L
sV10100
p357
L347L
sV00000
p358
L23L
sV00100
p359
L234L
sV10000
p360
L34L
sssg29
(dp361
g31
(lp362
(dp363
g34
VOPENQASM 2.0;\u000ainclude "qelib1.inc";\u000aqreg main_qr[5];\u000acreg main_cr[5];\u000au3(0.146607657167524,0.0,0.0) main_qr[4];\u000au3(0.851720674973233,0.0,0.0) main_qr[3];\u000acx main_qr[3],main_qr[4];\u000au3(1.553343034274953,0.0,0.0) main_qr[3];\u000ameasure main_qr[4] -> main_cr[4];\u000au3(0.317649923862968,0.0,0.0) main_qr[2];\u000acx main_qr[3],main_qr[2];\u000ameasure main_qr[2] -> main_cr[2];\u000ameasure main_qr[3] -> main_cr[3];\u000a
p364
sg36
g37
sg38
g39
(V{"header": {"number_of_clbits": 5, "qubit_labels": [["main_qr", 0], ["main_qr", 1], ["main_qr", 2], ["main_qr", 3], ["main_qr", 4]], "number_of_qubits": 5, "clbit_labels": [["main_cr", 5]]}, "operations": [{"name": "u3", "texparams": ["0.14660766", "0.00000000", "0.00000000"], "qubits": [4], "params": [0.146607657167524, 0.0, 0.0]}, {"name": "u3", "texparams": ["0.85172067", "0.00000000", "0.00000000"], "qubits": [3], "params": [0.851720674973233, 0.0, 0.0]}, {"name": "cx", "texparams": [], "qubits": [3, 4], "params": []}, {"name": "u3", "texparams": ["1.55334303", "0.00000000", "0.00000000"], "qubits": [3], "params": [1.553343034274953, 0.0, 0.0]}, {"name": "measure", "clbits": [4], "qubits": [4]}, {"name": "u3", "texparams": ["0.31764992", "0.00000000", "0.00000000"], "qubits": [2], "params": [0.317649923862968, 0.0, 0.0]}, {"name": "cx", "texparams": [], "qubits": [3, 2], "params": []}, {"name": "measure", "clbits": [2], "qubits": [2]}, {"name": "measure", "clbits": [3], "qubits": [3]}]}
p365
g41
tp366
Rp367
sg44
(dp368
g46
Nsg47
g48
sg49
Nsg50
Nssa(dp369
g34
VOPENQASM 2.0;\u000ainclude "qelib1.inc";\u000aqreg err_qr[5];\u000acreg err_cr[5];\u000au3(0.146607657167524,0.0,0.0) err_qr[4];\u000au3(0.851720674973233,0.0,0.0) err_qr[3];\u000acx err_qr[3],err_qr[4];\u000au3(1.553343034274953,0.0,0.0) err_qr[3];\u000au3(1.570796326794897,0.0,0.0) err_qr[4];\u000ameasure err_qr[4] -> err_cr[4];\u000au3(0.317649923862968,0.0,0.0) err_qr[2];\u000acx err_qr[3],err_qr[2];\u000au3(1.570796326794897,0.0,0.0) err_qr[2];\u000ameasure err_qr[2] -> err_cr[2];\u000au3(-1.570796326794897,0.0,0.0) err_qr[3];\u000ameasure err_qr[3] -> err_cr[3];\u000a
p370
sg36
g53
sg38
g39
(V{"header": {"number_of_clbits": 5, "qubit_labels": [["err_qr", 0], ["err_qr", 1], ["err_qr", 2], ["err_qr", 3], ["err_qr", 4]], "number_of_qubits": 5, "clbit_labels": [["err_cr", 5]]}, "operations": [{"name": "u3", "texparams": ["0.14660766", "0.00000000", "0.00000000"], "qubits": [4], "params": [0.146607657167524, 0.0, 0.0]}, {"name": "u3", "texparams": ["0.85172067", "0.00000000", "0.00000000"], "qubits": [3], "params": [0.851720674973233, 0.0, 0.0]}, {"name": "cx", "texparams": [], "qubits": [3, 4], "params": []}, {"name": "u3", "texparams": ["1.55334303", "0.00000000", "0.00000000"], "qubits": [3], "params": [1.553343034274953, 0.0, 0.0]}, {"name": "u3", "texparams": ["1.57079633", "0.00000000", "0.00000000"], "qubits": [4], "params": [1.570796326794897, 0.0, 0.0]}, {"name": "measure", "clbits": [4], "qubits": [4]}, {"name": "u3", "texparams": ["0.31764992", "0.00000000", "0.00000000"], "qubits": [2], "params": [0.317649923862968, 0.0, 0.0]}, {"name": "cx", "texparams": [], "qubits": [3, 2], "params": []}, {"name": "u3", "texparams": ["1.57079633", "0.00000000", "0.00000000"], "qubits": [2], "params": [1.570796326794897, 0.0, 0.0]}, {"name": "measure", "clbits": [2], "qubits": [2]}, {"name": "u3", "texparams": ["-(1.57079633)", "0.00000000", "0.00000000"], "qubits": [3], "params": [-1.570796326794897, 0.0, 0.0]}, {"name": "measure", "clbits": [3], "qubits": [3]}]}
p371
g41
tp372
Rp373
sg44
g368
sasg4
Vmd4PxLUGEJaXe0zUa2rDIpVMSoSbJk
p374
sg44
(dp375
g59
g60
sg61
L1024L
sg62
L10L
sssg63
(lp376
L3L
aL4L
aL3L
aL2L
aL4L
aL2L
asg59
g60
sg61
L1024L
sg65
L0L
sa(dp377
g2
(lp378
F0.213048446331385
aF0.2736902001938908
aF0.323631082165188
aF0.676368917834812
aF0.7263097998061092
aF0.786951553668615
asg4
g5
sg6
g7
sVmain-counts
p379
(dp380
g10
(dp381
V01000
p382
L6L
sV11000
p383
L10L
sV01100
p384
L156L
sV11100
p385
L231L
sV10100
p386
L1L
sV00000
p387
L579L
sV00100
p388
L26L
sV10000
p389
L15L
sssg13
(lp390
F30.2
aF8.2
aF23.7
aF13.0
asg15
I00
sg16
g17
sVerr-counts
p391
(dp392
g10
(dp393
V01000
p394
L41L
sV11000
p395
L178L
sV01100
p396
L140L
sV11100
p397
L9L
sV10100
p398
L465L
sV00000
p399
L77L
sV00100
p400
L108L
sV10000
p401
L6L
sssg29
(dp402
g31
(lp403
(dp404
g34
VOPENQASM 2.0;\u000ainclude "qelib1.inc";\u000aqreg main_qr[5];\u000acreg main_cr[5];\u000au3(0.28623399732707,0.0,0.0) main_qr[4];\u000au3(1.054178868204575,0.0,0.0) main_qr[3];\u000acx main_qr[3],main_qr[4];\u000au3(0.827286065445312,0.0,0.0) main_qr[3];\u000ameasure main_qr[4] -> main_cr[4];\u000au3(0.453785605518526,0.0,0.0) main_qr[2];\u000acx main_qr[3],main_qr[2];\u000ameasure main_qr[2] -> main_cr[2];\u000ameasure main_qr[3] -> main_cr[3];\u000a
p405
sg36
g37
sg38
g39
(V{"header": {"number_of_clbits": 5, "qubit_labels": [["main_qr", 0], ["main_qr", 1], ["main_qr", 2], ["main_qr", 3], ["main_qr", 4]], "number_of_qubits": 5, "clbit_labels": [["main_cr", 5]]}, "operations": [{"name": "u3", "texparams": ["0.28623400", "0.00000000", "0.00000000"], "qubits": [4], "params": [0.28623399732707, 0.0, 0.0]}, {"name": "u3", "texparams": ["1.05417887", "0.00000000", "0.00000000"], "qubits": [3], "params": [1.054178868204575, 0.0, 0.0]}, {"name": "cx", "texparams": [], "qubits": [3, 4], "params": []}, {"name": "u3", "texparams": ["0.82728607", "0.00000000", "0.00000000"], "qubits": [3], "params": [0.827286065445312, 0.0, 0.0]}, {"name": "measure", "clbits": [4], "qubits": [4]}, {"name": "u3", "texparams": ["0.45378561", "0.00000000", "0.00000000"], "qubits": [2], "params": [0.453785605518526, 0.0, 0.0]}, {"name": "cx", "texparams": [], "qubits": [3, 2], "params": []}, {"name": "measure", "clbits": [2], "qubits": [2]}, {"name": "measure", "clbits": [3], "qubits": [3]}]}
p406
g41
tp407
Rp408
sg44
(dp409
g46
Nsg47
g48
sg49
Nsg50
Nssa(dp410
g34
VOPENQASM 2.0;\u000ainclude "qelib1.inc";\u000aqreg err_qr[5];\u000acreg err_cr[5];\u000au3(0.28623399732707,0.0,0.0) err_qr[4];\u000au3(1.054178868204575,0.0,0.0) err_qr[3];\u000acx err_qr[3],err_qr[4];\u000au3(0.827286065445312,0.0,0.0) err_qr[3];\u000au3(1.570796326794897,0.0,0.0) err_qr[4];\u000ameasure err_qr[4] -> err_cr[4];\u000au3(0.453785605518526,0.0,0.0) err_qr[2];\u000acx err_qr[3],err_qr[2];\u000au3(1.570796326794897,0.0,0.0) err_qr[2];\u000ameasure err_qr[2] -> err_cr[2];\u000au3(-1.570796326794897,0.0,0.0) err_qr[3];\u000ameasure err_qr[3] -> err_cr[3];\u000a
p411
sg36
g53
sg38
g39
(V{"header": {"number_of_clbits": 5, "qubit_labels": [["err_qr", 0], ["err_qr", 1], ["err_qr", 2], ["err_qr", 3], ["err_qr", 4]], "number_of_qubits": 5, "clbit_labels": [["err_cr", 5]]}, "operations": [{"name": "u3", "texparams": ["0.28623400", "0.00000000", "0.00000000"], "qubits": [4], "params": [0.28623399732707, 0.0, 0.0]}, {"name": "u3", "texparams": ["1.05417887", "0.00000000", "0.00000000"], "qubits": [3], "params": [1.054178868204575, 0.0, 0.0]}, {"name": "cx", "texparams": [], "qubits": [3, 4], "params": []}, {"name": "u3", "texparams": ["0.82728607", "0.00000000", "0.00000000"], "qubits": [3], "params": [0.827286065445312, 0.0, 0.0]}, {"name": "u3", "texparams": ["1.57079633", "0.00000000", "0.00000000"], "qubits": [4], "params": [1.570796326794897, 0.0, 0.0]}, {"name": "measure", "clbits": [4], "qubits": [4]}, {"name": "u3", "texparams": ["0.45378561", "0.00000000", "0.00000000"], "qubits": [2], "params": [0.453785605518526, 0.0, 0.0]}, {"name": "cx", "texparams": [], "qubits": [3, 2], "params": []}, {"name": "u3", "texparams": ["1.57079633", "0.00000000", "0.00000000"], "qubits": [2], "params": [1.570796326794897, 0.0, 0.0]}, {"name": "measure", "clbits": [2], "qubits": [2]}, {"name": "u3", "texparams": ["-(1.57079633)", "0.00000000", "0.00000000"], "qubits": [3], "params": [-1.570796326794897, 0.0, 0.0]}, {"name": "measure", "clbits": [3], "qubits": [3]}]}
p412
g41
tp413
Rp414
sg44
g409
sasg4
VmEDSDYg5mWpcQ949ip8h92XhP45h5J
p415
sg44
(dp416
g59
g60
sg61
L1024L
sg62
L10L
sssg63
(lp417
L3L
aL4L
aL3L
aL2L
aL4L
aL2L
asg59
g60
sg61
L1024L
sg65
L0L
sa(dp418
g2
(lp419
F0.10220808083910615
aF0.179009387762615
aF0.2528814430748717
aF0.747118556925128
aF0.8209906122373849
aF0.8977919191608936
asg4
g5
sg6
g7
sVmain-counts
p420
(dp421
g10
(dp422
V01000
p423
L18L
sV11000
p424
L72L
sV01100
p425
L111L
sV11100
p426
L366L
sV00000
p427
L381L
sV00100
p428
L68L
sV10000
p429
L8L
sssg13
(lp430
F40.3
aF17.7
aF14.1
aF25.1
asg15
I00
sg16
g17
sVerr-counts
p431
(dp432
g10
(dp433
V01000
p434
L3L
sV11000
p435
L86L
sV01100
p436
L158L
sV11100
p437
L18L
sV10100
p438
L729L
sV00000
p439
L16L
sV00100
p440
L13L
sV10000
p441
L1L
sssg29
(dp442
g31
(lp443
(dp444
g34
VOPENQASM 2.0;\u000ainclude "qelib1.inc";\u000aqreg main_qr[5];\u000acreg main_cr[5];\u000au3(0.617846555205993,0.0,0.0) main_qr[4];\u000au3(1.40673537710743,0.0,0.0) main_qr[3];\u000acx main_qr[3],main_qr[4];\u000au3(0.492182849062401,0.0,0.0) main_qr[3];\u000ameasure main_qr[4] -> main_cr[4];\u000au3(0.876155284501153,0.0,0.0) main_qr[2];\u000acx main_qr[3],main_qr[2];\u000ameasure main_qr[2] -> main_cr[2];\u000ameasure main_qr[3] -> main_cr[3];\u000a
p445
sg36
g37
sg38
g39
(V{"header": {"number_of_clbits": 5, "qubit_labels": [["main_qr", 0], ["main_qr", 1], ["main_qr", 2], ["main_qr", 3], ["main_qr", 4]], "number_of_qubits": 5, "clbit_labels": [["main_cr", 5]]}, "operations": [{"name": "u3", "texparams": ["0.61784656", "0.00000000", "0.00000000"], "qubits": [4], "params": [0.617846555205993, 0.0, 0.0]}, {"name": "u3", "texparams": ["1.40673538", "0.00000000", "0.00000000"], "qubits": [3], "params": [1.40673537710743, 0.0, 0.0]}, {"name": "cx", "texparams": [], "qubits": [3, 4], "params": []}, {"name": "u3", "texparams": ["0.49218285", "0.00000000", "0.00000000"], "qubits": [3], "params": [0.492182849062401, 0.0, 0.0]}, {"name": "measure", "clbits": [4], "qubits": [4]}, {"name": "u3", "texparams": ["0.87615528", "0.00000000", "0.00000000"], "qubits": [2], "params": [0.876155284501153, 0.0, 0.0]}, {"name": "cx", "texparams": [], "qubits": [3, 2], "params": []}, {"name": "measure", "clbits": [2], "qubits": [2]}, {"name": "measure", "clbits": [3], "qubits": [3]}]}
p446
g41
tp447
Rp448
sg44
(dp449
g46
Nsg47
g48
sg49
Nsg50
Nssa(dp450
g34
VOPENQASM 2.0;\u000ainclude "qelib1.inc";\u000aqreg err_qr[5];\u000acreg err_cr[5];\u000au3(0.617846555205993,0.0,0.0) err_qr[4];\u000au3(1.40673537710743,0.0,0.0) err_qr[3];\u000acx err_qr[3],err_qr[4];\u000au3(0.492182849062401,0.0,0.0) err_qr[3];\u000au3(1.570796326794897,0.0,0.0) err_qr[4];\u000ameasure err_qr[4] -> err_cr[4];\u000au3(0.876155284501153,0.0,0.0) err_qr[2];\u000acx err_qr[3],err_qr[2];\u000au3(1.570796326794897,0.0,0.0) err_qr[2];\u000ameasure err_qr[2] -> err_cr[2];\u000au3(-1.570796326794897,0.0,0.0) err_qr[3];\u000ameasure err_qr[3] -> err_cr[3];\u000a
p451
sg36
g53
sg38
g39
(V{"header": {"number_of_clbits": 5, "qubit_labels": [["err_qr", 0], ["err_qr", 1], ["err_qr", 2], ["err_qr", 3], ["err_qr", 4]], "number_of_qubits": 5, "clbit_labels": [["err_cr", 5]]}, "operations": [{"name": "u3", "texparams": ["0.61784656", "0.00000000", "0.00000000"], "qubits": [4], "params": [0.617846555205993, 0.0, 0.0]}, {"name": "u3", "texparams": ["1.40673538", "0.00000000", "0.00000000"], "qubits": [3], "params": [1.40673537710743, 0.0, 0.0]}, {"name": "cx", "texparams": [], "qubits": [3, 4], "params": []}, {"name": "u3", "texparams": ["0.49218285", "0.00000000", "0.00000000"], "qubits": [3], "params": [0.492182849062401, 0.0, 0.0]}, {"name": "u3", "texparams": ["1.57079633", "0.00000000", "0.00000000"], "qubits": [4], "params": [1.570796326794897, 0.0, 0.0]}, {"name": "measure", "clbits": [4], "qubits": [4]}, {"name": "u3", "texparams": ["0.87615528", "0.00000000", "0.00000000"], "qubits": [2], "params": [0.876155284501153, 0.0, 0.0]}, {"name": "cx", "texparams": [], "qubits": [3, 2], "params": []}, {"name": "u3", "texparams": ["1.57079633", "0.00000000", "0.00000000"], "qubits": [2], "params": [1.570796326794897, 0.0, 0.0]}, {"name": "measure", "clbits": [2], "qubits": [2]}, {"name": "u3", "texparams": ["-(1.57079633)", "0.00000000", "0.00000000"], "qubits": [3], "params": [-1.570796326794897, 0.0, 0.0]}, {"name": "measure", "clbits": [3], "qubits": [3]}]}
p452
g41
tp453
Rp454
sg44
g449
sasg4
VarZYcxlgl4TDQ4V5vEzw0koDQE4PJp
p455
sg44
(dp456
g59
g60
sg61
L1024L
sg62
L10L
sssg63
(lp457
L3L
aL4L
aL3L
aL2L
aL4L
aL2L
asg59
g60
sg61
L1024L
sg65
L0L
sa(dp458
g2
(lp459
F0.12484617209431921
aF0.14082673800948625
aF0.21363896953232653
aF0.7863610304676735
aF0.8591732619905138
aF0.8751538279056807
asg4
g5
sg6
g7
sVmain-counts
p460
(dp461
g10
(dp462
V01000
p463
L21L
sV11000
p464
L14L
sV01100
p465
L191L
sV11100
p466
L91L
sV10100
p467
L1L
sV00000
p468
L609L
sV00100
p469
L75L
sV10000
p470
L22L
sssg13
(lp471
F20.0
aF1.9
aF28.0
aF19.4
asg15
I00
sg16
g17
sVerr-counts
p472
(dp473
g10
(dp474
V01000
p475
L64L
sV11000
p476
L80L
sV01100
p477
L148L
sV11100
p478
L1L
sV00000
p479
L34L
sV00100
p480
L255L
sV10100
p481
L442L
sssg29
(dp482
g31
(lp483
(dp484
g34
VOPENQASM 2.0;\u000ainclude "qelib1.inc";\u000aqreg main_qr[5];\u000acreg main_cr[5];\u000au3(0.066322511575785,0.0,0.0) main_qr[4];\u000au3(0.698131700797732,0.0,0.0) main_qr[3];\u000acx main_qr[3],main_qr[4];\u000au3(0.977384381116825,0.0,0.0) main_qr[3];\u000ameasure main_qr[4] -> main_cr[4];\u000au3(0.6771877497738,0.0,0.0) main_qr[2];\u000acx main_qr[3],main_qr[2];\u000ameasure main_qr[2] -> main_cr[2];\u000ameasure main_qr[3] -> main_cr[3];\u000a
p485
sg36
g37
sg38
g39
(V{"header": {"number_of_clbits": 5, "qubit_labels": [["main_qr", 0], ["main_qr", 1], ["main_qr", 2], ["main_qr", 3], ["main_qr", 4]], "number_of_qubits": 5, "clbit_labels": [["main_cr", 5]]}, "operations": [{"name": "u3", "texparams": ["0.06632251", "0.00000000", "0.00000000"], "qubits": [4], "params": [0.066322511575785, 0.0, 0.0]}, {"name": "u3", "texparams": ["0.69813170", "0.00000000", "0.00000000"], "qubits": [3], "params": [0.698131700797732, 0.0, 0.0]}, {"name": "cx", "texparams": [], "qubits": [3, 4], "params": []}, {"name": "u3", "texparams": ["0.97738438", "0.00000000", "0.00000000"], "qubits": [3], "params": [0.977384381116825, 0.0, 0.0]}, {"name": "measure", "clbits": [4], "qubits": [4]}, {"name": "u3", "texparams": ["0.67718775", "0.00000000", "0.00000000"], "qubits": [2], "params": [0.6771877497738, 0.0, 0.0]}, {"name": "cx", "texparams": [], "qubits": [3, 2], "params": []}, {"name": "measure", "clbits": [2], "qubits": [2]}, {"name": "measure", "clbits": [3], "qubits": [3]}]}
p486
g41
tp487
Rp488
sg44
(dp489
g46
Nsg47
g48
sg49
Nsg50
Nssa(dp490
g34
VOPENQASM 2.0;\u000ainclude "qelib1.inc";\u000aqreg err_qr[5];\u000acreg err_cr[5];\u000au3(0.066322511575785,0.0,0.0) err_qr[4];\u000au3(0.698131700797732,0.0,0.0) err_qr[3];\u000acx err_qr[3],err_qr[4];\u000au3(0.977384381116825,0.0,0.0) err_qr[3];\u000au3(1.570796326794897,0.0,0.0) err_qr[4];\u000ameasure err_qr[4] -> err_cr[4];\u000au3(0.6771877497738,0.0,0.0) err_qr[2];\u000acx err_qr[3],err_qr[2];\u000au3(1.570796326794897,0.0,0.0) err_qr[2];\u000ameasure err_qr[2] -> err_cr[2];\u000au3(-1.570796326794897,0.0,0.0) err_qr[3];\u000ameasure err_qr[3] -> err_cr[3];\u000a
p491
sg36
g53
sg38
g39
(V{"header": {"number_of_clbits": 5, "qubit_labels": [["err_qr", 0], ["err_qr", 1], ["err_qr", 2], ["err_qr", 3], ["err_qr", 4]], "number_of_qubits": 5, "clbit_labels": [["err_cr", 5]]}, "operations": [{"name": "u3", "texparams": ["0.06632251", "0.00000000", "0.00000000"], "qubits": [4], "params": [0.066322511575785, 0.0, 0.0]}, {"name": "u3", "texparams": ["0.69813170", "0.00000000", "0.00000000"], "qubits": [3], "params": [0.698131700797732, 0.0, 0.0]}, {"name": "cx", "texparams": [], "qubits": [3, 4], "params": []}, {"name": "u3", "texparams": ["0.97738438", "0.00000000", "0.00000000"], "qubits": [3], "params": [0.977384381116825, 0.0, 0.0]}, {"name": "u3", "texparams": ["1.57079633", "0.00000000", "0.00000000"], "qubits": [4], "params": [1.570796326794897, 0.0, 0.0]}, {"name": "measure", "clbits": [4], "qubits": [4]}, {"name": "u3", "texparams": ["0.67718775", "0.00000000", "0.00000000"], "qubits": [2], "params": [0.6771877497738, 0.0, 0.0]}, {"name": "cx", "texparams": [], "qubits": [3, 2], "params": []}, {"name": "u3", "texparams": ["1.57079633", "0.00000000", "0.00000000"], "qubits": [2], "params": [1.570796326794897, 0.0, 0.0]}, {"name": "measure", "clbits": [2], "qubits": [2]}, {"name": "u3", "texparams": ["-(1.57079633)", "0.00000000", "0.00000000"], "qubits": [3], "params": [-1.570796326794897, 0.0, 0.0]}, {"name": "measure", "clbits": [3], "qubits": [3]}]}
p492
g41
tp493
Rp494
sg44
g489
sasg4
VUz8MyBAZkMc6e4qq9QiQ1zARusUxzn
p495
sg44
(dp496
g59
g60
sg61
L1024L
sg62
L10L
sssg63
(lp497
L3L
aL4L
aL3L
aL2L
aL4L
aL2L
asg59
g60
sg61
L1024L
sg65
L0L
sa(dp498
g2
(lp499
F0.16789838751058977
aF0.23533534701430367
aF0.3125890307401251
aF0.6874109692598749
aF0.7646646529856964
aF0.8321016124894103
asg4
g5
sg6
g7
sVmain-counts
p500
(dp501
g10
(dp502
V01000
p503
L17L
sV11000
p504
L66L
sV01100
p505
L85L
sV11100
p506
L371L
sV00000
p507
L420L
sV10000
p508
L2L
sV00100
p509
L63L
sssg13
(lp510
F40.4
aF14.8
aF12.6
aF22.3
asg15
I00
sg16
g17
sVerr-counts
p511
(dp512
g10
(dp513
V01000
p514
L4L
sV11000
p515
L127L
sV01100
p516
L183L
sV11100
p517
L8L
sV10100
p518
L636L
sV00000
p519
L39L
sV00100
p520
L25L
sV10000
p521
L2L
sssg29
(dp522
g31
(lp523
(dp524
g34
VOPENQASM 2.0;\u000ainclude "qelib1.inc";\u000aqreg main_qr[5];\u000acreg main_cr[5];\u000au3(0.516617458590321,0.0,0.0) main_qr[4];\u000au3(1.410226035611418,0.0,0.0) main_qr[3];\u000acx main_qr[3],main_qr[4];\u000au3(0.439822971502571,0.0,0.0) main_qr[3];\u000ameasure main_qr[4] -> main_cr[4];\u000au3(0.778416846389471,0.0,0.0) main_qr[2];\u000acx main_qr[3],main_qr[2];\u000ameasure main_qr[2] -> main_cr[2];\u000ameasure main_qr[3] -> main_cr[3];\u000a
p525
sg36
g37
sg38
g39
(V{"header": {"number_of_clbits": 5, "qubit_labels": [["main_qr", 0], ["main_qr", 1], ["main_qr", 2], ["main_qr", 3], ["main_qr", 4]], "number_of_qubits": 5, "clbit_labels": [["main_cr", 5]]}, "operations": [{"name": "u3", "texparams": ["0.51661746", "0.00000000", "0.00000000"], "qubits": [4], "params": [0.516617458590321, 0.0, 0.0]}, {"name": "u3", "texparams": ["1.41022604", "0.00000000", "0.00000000"], "qubits": [3], "params": [1.410226035611418, 0.0, 0.0]}, {"name": "cx", "texparams": [], "qubits": [3, 4], "params": []}, {"name": "u3", "texparams": ["0.43982297", "0.00000000", "0.00000000"], "qubits": [3], "params": [0.439822971502571, 0.0, 0.0]}, {"name": "measure", "clbits": [4], "qubits": [4]}, {"name": "u3", "texparams": ["0.77841685", "0.00000000", "0.00000000"], "qubits": [2], "params": [0.778416846389471, 0.0, 0.0]}, {"name": "cx", "texparams": [], "qubits": [3, 2], "params": []}, {"name": "measure", "clbits": [2], "qubits": [2]}, {"name": "measure", "clbits": [3], "qubits": [3]}]}
p526
g41
tp527
Rp528
sg44
(dp529
g46
Nsg47
g48
sg49
Nsg50
Nssa(dp530
g34
VOPENQASM 2.0;\u000ainclude "qelib1.inc";\u000aqreg err_qr[5];\u000acreg err_cr[5];\u000au3(0.516617458590321,0.0,0.0) err_qr[4];\u000au3(1.410226035611418,0.0,0.0) err_qr[3];\u000acx err_qr[3],err_qr[4];\u000au3(0.439822971502571,0.0,0.0) err_qr[3];\u000au3(1.570796326794897,0.0,0.0) err_qr[4];\u000ameasure err_qr[4] -> err_cr[4];\u000au3(0.778416846389471,0.0,0.0) err_qr[2];\u000acx err_qr[3],err_qr[2];\u000au3(1.570796326794897,0.0,0.0) err_qr[2];\u000ameasure err_qr[2] -> err_cr[2];\u000au3(-1.570796326794897,0.0,0.0) err_qr[3];\u000ameasure err_qr[3] -> err_cr[3];\u000a
p531
sg36
g53
sg38
g39
(V{"header": {"number_of_clbits": 5, "qubit_labels": [["err_qr", 0], ["err_qr", 1], ["err_qr", 2], ["err_qr", 3], ["err_qr", 4]], "number_of_qubits": 5, "clbit_labels": [["err_cr", 5]]}, "operations": [{"name": "u3", "texparams": ["0.51661746", "0.00000000", "0.00000000"], "qubits": [4], "params": [0.516617458590321, 0.0, 0.0]}, {"name": "u3", "texparams": ["1.41022604", "0.00000000", "0.00000000"], "qubits": [3], "params": [1.410226035611418, 0.0, 0.0]}, {"name": "cx", "texparams": [], "qubits": [3, 4], "params": []}, {"name": "u3", "texparams": ["0.43982297", "0.00000000", "0.00000000"], "qubits": [3], "params": [0.439822971502571, 0.0, 0.0]}, {"name": "u3", "texparams": ["1.57079633", "0.00000000", "0.00000000"], "qubits": [4], "params": [1.570796326794897, 0.0, 0.0]}, {"name": "measure", "clbits": [4], "qubits": [4]}, {"name": "u3", "texparams": ["0.77841685", "0.00000000", "0.00000000"], "qubits": [2], "params": [0.778416846389471, 0.0, 0.0]}, {"name": "cx", "texparams": [], "qubits": [3, 2], "params": []}, {"name": "u3", "texparams": ["1.57079633", "0.00000000", "0.00000000"], "qubits": [2], "params": [1.570796326794897, 0.0, 0.0]}, {"name": "measure", "clbits": [2], "qubits": [2]}, {"name": "u3", "texparams": ["-(1.57079633)", "0.00000000", "0.00000000"], "qubits": [3], "params": [-1.570796326794897, 0.0, 0.0]}, {"name": "measure", "clbits": [3], "qubits": [3]}]}
p532
g41
tp533
Rp534
sg44
g529
sasg4
Vk25QcWw1qVbIsvLI3Yuwxnn33QCRrD
p535
sg44
(dp536
g59
g60
sg61
L1024L
sg62
L10L
sssg63
(lp537
L3L
aL4L
aL3L
aL2L
aL4L
aL2L
asg59
g60
sg61
L1024L
sg65
L0L
sa(dp538
g2
(lp539
F0.2294428350525632
aF0.33435243004607457
aF0.4007455004119382
aF0.5992544995880618
aF0.6656475699539255
aF0.7705571649474368
asg4
g5
sg6
g7
sVmain-counts
p540
(dp541
g10
(dp542
V01000
p543
L5L
sV11000
p544
L35L
sV01100
p545
L64L
sV11100
p546
L367L
sV00000
p547
L507L
sV10000
p548
L6L
sV00100
p549
L40L
sssg13
(lp550
F37.8
aF7.7
aF15.6
aF16.5
asg15
I00
sg16
g17
sVerr-counts
p551
(dp552
g10
(dp553
V01000
p554
L13L
sV11000
p555
L151L
sV01100
p556
L247L
sV11100
p557
L8L
sV10100
p558
L482L
sV00000
p559
L69L
sV00100
p560
L49L
sV10000
p561
L5L
sssg29
(dp562
g31
(lp563
(dp564
g34
VOPENQASM 2.0;\u000ainclude "qelib1.inc";\u000aqreg main_qr[5];\u000acreg main_cr[5];\u000au3(0.268780704807127,0.0,0.0) main_qr[4];\u000au3(1.319468914507713,0.0,0.0) main_qr[3];\u000acx main_qr[3],main_qr[4];\u000au3(0.544542726622231,0.0,0.0) main_qr[3];\u000ameasure main_qr[4] -> main_cr[4];\u000au3(0.575958653158129,0.0,0.0) main_qr[2];\u000acx main_qr[3],main_qr[2];\u000ameasure main_qr[2] -> main_cr[2];\u000ameasure main_qr[3] -> main_cr[3];\u000a
p565
sg36
g37
sg38
g39
(V{"header": {"number_of_clbits": 5, "qubit_labels": [["main_qr", 0], ["main_qr", 1], ["main_qr", 2], ["main_qr", 3], ["main_qr", 4]], "number_of_qubits": 5, "clbit_labels": [["main_cr", 5]]}, "operations": [{"name": "u3", "texparams": ["0.26878070", "0.00000000", "0.00000000"], "qubits": [4], "params": [0.268780704807127, 0.0, 0.0]}, {"name": "u3", "texparams": ["1.31946891", "0.00000000", "0.00000000"], "qubits": [3], "params": [1.319468914507713, 0.0, 0.0]}, {"name": "cx", "texparams": [], "qubits": [3, 4], "params": []}, {"name": "u3", "texparams": ["0.54454273", "0.00000000", "0.00000000"], "qubits": [3], "params": [0.544542726622231, 0.0, 0.0]}, {"name": "measure", "clbits": [4], "qubits": [4]}, {"name": "u3", "texparams": ["0.57595865", "0.00000000", "0.00000000"], "qubits": [2], "params": [0.575958653158129, 0.0, 0.0]}, {"name": "cx", "texparams": [], "qubits": [3, 2], "params": []}, {"name": "measure", "clbits": [2], "qubits": [2]}, {"name": "measure", "clbits": [3], "qubits": [3]}]}
p566
g41
tp567
Rp568
sg44
(dp569
g46
Nsg47
g48
sg49
Nsg50
Nssa(dp570
g34
VOPENQASM 2.0;\u000ainclude "qelib1.inc";\u000aqreg err_qr[5];\u000acreg err_cr[5];\u000au3(0.268780704807127,0.0,0.0) err_qr[4];\u000au3(1.319468914507713,0.0,0.0) err_qr[3];\u000acx err_qr[3],err_qr[4];\u000au3(0.544542726622231,0.0,0.0) err_qr[3];\u000au3(1.570796326794897,0.0,0.0) err_qr[4];\u000ameasure err_qr[4] -> err_cr[4];\u000au3(0.575958653158129,0.0,0.0) err_qr[2];\u000acx err_qr[3],err_qr[2];\u000au3(1.570796326794897,0.0,0.0) err_qr[2];\u000ameasure err_qr[2] -> err_cr[2];\u000au3(-1.570796326794897,0.0,0.0) err_qr[3];\u000ameasure err_qr[3] -> err_cr[3];\u000a
p571
sg36
g53
sg38
g39
(V{"header": {"number_of_clbits": 5, "qubit_labels": [["err_qr", 0], ["err_qr", 1], ["err_qr", 2], ["err_qr", 3], ["err_qr", 4]], "number_of_qubits": 5, "clbit_labels": [["err_cr", 5]]}, "operations": [{"name": "u3", "texparams": ["0.26878070", "0.00000000", "0.00000000"], "qubits": [4], "params": [0.268780704807127, 0.0, 0.0]}, {"name": "u3", "texparams": ["1.31946891", "0.00000000", "0.00000000"], "qubits": [3], "params": [1.319468914507713, 0.0, 0.0]}, {"name": "cx", "texparams": [], "qubits": [3, 4], "params": []}, {"name": "u3", "texparams": ["0.54454273", "0.00000000", "0.00000000"], "qubits": [3], "params": [0.544542726622231, 0.0, 0.0]}, {"name": "u3", "texparams": ["1.57079633", "0.00000000", "0.00000000"], "qubits": [4], "params": [1.570796326794897, 0.0, 0.0]}, {"name": "measure", "clbits": [4], "qubits": [4]}, {"name": "u3", "texparams": ["0.57595865", "0.00000000", "0.00000000"], "qubits": [2], "params": [0.575958653158129, 0.0, 0.0]}, {"name": "cx", "texparams": [], "qubits": [3, 2], "params": []}, {"name": "u3", "texparams": ["1.57079633", "0.00000000", "0.00000000"], "qubits": [2], "params": [1.570796326794897, 0.0, 0.0]}, {"name": "measure", "clbits": [2], "qubits": [2]}, {"name": "u3", "texparams": ["-(1.57079633)", "0.00000000", "0.00000000"], "qubits": [3], "params": [-1.570796326794897, 0.0, 0.0]}, {"name": "measure", "clbits": [3], "qubits": [3]}]}
p572
g41
tp573
Rp574
sg44
g569
sasg4
V66BRkvyEBjUe5aFEM87oSJdyIe9WeS
p575
sg44
(dp576
g59
g60
sg61
L1024L
sg62
L10L
sssg63
(lp577
L3L
aL4L
aL3L
aL2L
aL4L
aL2L
asg59
g60
sg61
L1024L
sg65
L0L
sa(dp578
g2
(lp579
F0.13680670377557447
aF0.3743228181875472
aF0.4033647118995861
aF0.5966352881004139
aF0.6256771818124528
aF0.8631932962244255
asg4
g5
sg6
g7
sVmain-counts
p580
(dp581
g10
(dp582
V01000
p583
L4L
sV11000
p584
L73L
sV01100
p585
L24L
sV11100
p586
L387L
sV10100
p587
L1L
sV00000
p588
L459L
sV00100
p589
L74L
sV10000
p590
L2L
sssg13
(lp591
F42.0
aF5.8
aF9.9
aF22.5
asg15
I00
sg16
g17
sVerr-counts
p592
(dp593
g10
(dp594
V01000
p595
L1L
sV11000
p596
L88L
sV01100
p597
L321L
sV11100
p598
L6L
sV00000
p599
L52L
sV00100
p600
L19L
sV10100
p601
L537L
sssg29
(dp602
g31
(lp603
(dp604
g34
VOPENQASM 2.0;\u000ainclude "qelib1.inc";\u000aqreg main_qr[5];\u000acreg main_cr[5];\u000au3(0.202458193231342,0.0,0.0) main_qr[4];\u000au3(1.466076571675237,0.0,0.0) main_qr[3];\u000acx main_qr[3],main_qr[4];\u000au3(0.345575191894877,0.0,0.0) main_qr[3];\u000ameasure main_qr[4] -> main_cr[4];\u000au3(0.785398163397448,0.0,0.0) main_qr[2];\u000acx main_qr[3],main_qr[2];\u000ameasure main_qr[2] -> main_cr[2];\u000ameasure main_qr[3] -> main_cr[3];\u000a
p605
sg36
g37
sg38
g39
(V{"header": {"number_of_clbits": 5, "qubit_labels": [["main_qr", 0], ["main_qr", 1], ["main_qr", 2], ["main_qr", 3], ["main_qr", 4]], "number_of_qubits": 5, "clbit_labels": [["main_cr", 5]]}, "operations": [{"name": "u3", "texparams": ["0.20245819", "0.00000000", "0.00000000"], "qubits": [4], "params": [0.202458193231342, 0.0, 0.0]}, {"name": "u3", "texparams": ["1.46607657", "0.00000000", "0.00000000"], "qubits": [3], "params": [1.466076571675237, 0.0, 0.0]}, {"name": "cx", "texparams": [], "qubits": [3, 4], "params": []}, {"name": "u3", "texparams": ["0.34557519", "0.00000000", "0.00000000"], "qubits": [3], "params": [0.345575191894877, 0.0, 0.0]}, {"name": "measure", "clbits": [4], "qubits": [4]}, {"name": "u3", "texparams": ["0.78539816", "0.00000000", "0.00000000"], "qubits": [2], "params": [0.785398163397448, 0.0, 0.0]}, {"name": "cx", "texparams": [], "qubits": [3, 2], "params": []}, {"name": "measure", "clbits": [2], "qubits": [2]}, {"name": "measure", "clbits": [3], "qubits": [3]}]}
p606
g41
tp607
Rp608
sg44
(dp609
g46
Nsg47
g48
sg49
Nsg50
Nssa(dp610
g34
VOPENQASM 2.0;\u000ainclude "qelib1.inc";\u000aqreg err_qr[5];\u000acreg err_cr[5];\u000au3(0.202458193231342,0.0,0.0) err_qr[4];\u000au3(1.466076571675237,0.0,0.0) err_qr[3];\u000acx err_qr[3],err_qr[4];\u000au3(0.345575191894877,0.0,0.0) err_qr[3];\u000au3(1.570796326794897,0.0,0.0) err_qr[4];\u000ameasure err_qr[4] -> err_cr[4];\u000au3(0.785398163397448,0.0,0.0) err_qr[2];\u000acx err_qr[3],err_qr[2];\u000au3(1.570796326794897,0.0,0.0) err_qr[2];\u000ameasure err_qr[2] -> err_cr[2];\u000au3(-1.570796326794897,0.0,0.0) err_qr[3];\u000ameasure err_qr[3] -> err_cr[3];\u000a
p611
sg36
g53
sg38
g39
(V{"header": {"number_of_clbits": 5, "qubit_labels": [["err_qr", 0], ["err_qr", 1], ["err_qr", 2], ["err_qr", 3], ["err_qr", 4]], "number_of_qubits": 5, "clbit_labels": [["err_cr", 5]]}, "operations": [{"name": "u3", "texparams": ["0.20245819", "0.00000000", "0.00000000"], "qubits": [4], "params": [0.202458193231342, 0.0, 0.0]}, {"name": "u3", "texparams": ["1.46607657", "0.00000000", "0.00000000"], "qubits": [3], "params": [1.466076571675237, 0.0, 0.0]}, {"name": "cx", "texparams": [], "qubits": [3, 4], "params": []}, {"name": "u3", "texparams": ["0.34557519", "0.00000000", "0.00000000"], "qubits": [3], "params": [0.345575191894877, 0.0, 0.0]}, {"name": "u3", "texparams": ["1.57079633", "0.00000000", "0.00000000"], "qubits": [4], "params": [1.570796326794897, 0.0, 0.0]}, {"name": "measure", "clbits": [4], "qubits": [4]}, {"name": "u3", "texparams": ["0.78539816", "0.00000000", "0.00000000"], "qubits": [2], "params": [0.785398163397448, 0.0, 0.0]}, {"name": "cx", "texparams": [], "qubits": [3, 2], "params": []}, {"name": "u3", "texparams": ["1.57079633", "0.00000000", "0.00000000"], "qubits": [2], "params": [1.570796326794897, 0.0, 0.0]}, {"name": "measure", "clbits": [2], "qubits": [2]}, {"name": "u3", "texparams": ["-(1.57079633)", "0.00000000", "0.00000000"], "qubits": [3], "params": [-1.570796326794897, 0.0, 0.0]}, {"name": "measure", "clbits": [3], "qubits": [3]}]}
p612
g41
tp613
Rp614
sg44
g609
sasg4
VcU3Ee1FiOh6whkUWS7ikuIdkmgUVUg
p615
sg44
(dp616
g59
g60
sg61
L1024L
sg62
L10L
sssg63
(lp617
L3L
aL4L
aL3L
aL2L
aL4L
aL2L
asg59
g60
sg61
L1024L
sg65
L0L
sa(dp618
g2
(lp619
F0.01745854056796242
aF0.26733001360123654
aF0.2720401054988475
aF0.7279598945011525
aF0.7326699863987635
aF0.9825414594320376
asg4
g5
sg6
g7
sVmain-counts
p620
(dp621
g10
(dp622
V01000
p623
L36L
sV11000
p624
L197L
sV01100
p625
L50L
sV11100
p626
L298L
sV10100
p627
L1L
sV00000
p628
L285L
sV00100
p629
L152L
sV10000
p630
L5L
sssg13
(lp631
F44.1
aF14.5
aF9.0
aF37.9
asg15
I00
sg16
g17
sVerr-counts
p632
(dp633
g10
(dp634
V11000
p635
L14L
sV01100
p636
L267L
sV11100
p637
L8L
sV10100
p638
L727L
sV00000
p639
L3L
sV00100
p640
L4L
sV10000
p641
L1L
sssg29
(dp642
g31
(lp643
(dp644
g34
VOPENQASM 2.0;\u000ainclude "qelib1.inc";\u000aqreg main_qr[5];\u000acreg main_cr[5];\u000au3(0.506145483078356,0.0,0.0) main_qr[4];\u000au3(1.539380400258999,0.0,0.0) main_qr[3];\u000acx main_qr[3],main_qr[4];\u000au3(0.314159265358979,0.0,0.0) main_qr[3];\u000ameasure main_qr[4] -> main_cr[4];\u000au3(1.322959573011702,0.0,0.0) main_qr[2];\u000acx main_qr[3],main_qr[2];\u000ameasure main_qr[2] -> main_cr[2];\u000ameasure main_qr[3] -> main_cr[3];\u000a
p645
sg36
g37
sg38
g39
(V{"header": {"number_of_clbits": 5, "qubit_labels": [["main_qr", 0], ["main_qr", 1], ["main_qr", 2], ["main_qr", 3], ["main_qr", 4]], "number_of_qubits": 5, "clbit_labels": [["main_cr", 5]]}, "operations": [{"name": "u3", "texparams": ["0.50614548", "0.00000000", "0.00000000"], "qubits": [4], "params": [0.506145483078356, 0.0, 0.0]}, {"name": "u3", "texparams": ["1.53938040", "0.00000000", "0.00000000"], "qubits": [3], "params": [1.539380400258999, 0.0, 0.0]}, {"name": "cx", "texparams": [], "qubits": [3, 4], "params": []}, {"name": "u3", "texparams": ["0.31415927", "0.00000000", "0.00000000"], "qubits": [3], "params": [0.314159265358979, 0.0, 0.0]}, {"name": "measure", "clbits": [4], "qubits": [4]}, {"name": "u3", "texparams": ["1.32295957", "0.00000000", "0.00000000"], "qubits": [2], "params": [1.322959573011702, 0.0, 0.0]}, {"name": "cx", "texparams": [], "qubits": [3, 2], "params": []}, {"name": "measure", "clbits": [2], "qubits": [2]}, {"name": "measure", "clbits": [3], "qubits": [3]}]}
p646
g41
tp647
Rp648
sg44
(dp649
g46
Nsg47
g48
sg49
Nsg50
Nssa(dp650
g34
VOPENQASM 2.0;\u000ainclude "qelib1.inc";\u000aqreg err_qr[5];\u000acreg err_cr[5];\u000au3(0.506145483078356,0.0,0.0) err_qr[4];\u000au3(1.539380400258999,0.0,0.0) err_qr[3];\u000acx err_qr[3],err_qr[4];\u000au3(0.314159265358979,0.0,0.0) err_qr[3];\u000au3(1.570796326794897,0.0,0.0) err_qr[4];\u000ameasure err_qr[4] -> err_cr[4];\u000au3(1.322959573011702,0.0,0.0) err_qr[2];\u000acx err_qr[3],err_qr[2];\u000au3(1.570796326794897,0.0,0.0) err_qr[2];\u000ameasure err_qr[2] -> err_cr[2];\u000au3(-1.570796326794897,0.0,0.0) err_qr[3];\u000ameasure err_qr[3] -> err_cr[3];\u000a
p651
sg36
g53
sg38
g39
(V{"header": {"number_of_clbits": 5, "qubit_labels": [["err_qr", 0], ["err_qr", 1], ["err_qr", 2], ["err_qr", 3], ["err_qr", 4]], "number_of_qubits": 5, "clbit_labels": [["err_cr", 5]]}, "operations": [{"name": "u3", "texparams": ["0.50614548", "0.00000000", "0.00000000"], "qubits": [4], "params": [0.506145483078356, 0.0, 0.0]}, {"name": "u3", "texparams": ["1.53938040", "0.00000000", "0.00000000"], "qubits": [3], "params": [1.539380400258999, 0.0, 0.0]}, {"name": "cx", "texparams": [], "qubits": [3, 4], "params": []}, {"name": "u3", "texparams": ["0.31415927", "0.00000000", "0.00000000"], "qubits": [3], "params": [0.314159265358979, 0.0, 0.0]}, {"name": "u3", "texparams": ["1.57079633", "0.00000000", "0.00000000"], "qubits": [4], "params": [1.570796326794897, 0.0, 0.0]}, {"name": "measure", "clbits": [4], "qubits": [4]}, {"name": "u3", "texparams": ["1.32295957", "0.00000000", "0.00000000"], "qubits": [2], "params": [1.322959573011702, 0.0, 0.0]}, {"name": "cx", "texparams": [], "qubits": [3, 2], "params": []}, {"name": "u3", "texparams": ["1.57079633", "0.00000000", "0.00000000"], "qubits": [2], "params": [1.570796326794897, 0.0, 0.0]}, {"name": "measure", "clbits": [2], "qubits": [2]}, {"name": "u3", "texparams": ["-(1.57079633)", "0.00000000", "0.00000000"], "qubits": [3], "params": [-1.570796326794897, 0.0, 0.0]}, {"name": "measure", "clbits": [3], "qubits": [3]}]}
p652
g41
tp653
Rp654
sg44
g649
sasg4
VnGOUvydKgZxDJqWMSg5ArSJxJSiuIX
p655
sg44
(dp656
g59
g60
sg61
L1024L
sg62
L10L
sssg63
(lp657
L3L
aL4L
aL3L
aL2L
aL4L
aL2L
asg59
g60
sg61
L1024L
sg65
L0L
sa(dp658
g2
(lp659
F0.047257157043709266
aF0.0892814494289269
aF0.15072767425440325
aF0.8492723257455969
aF0.9107185505710731
aF0.9527428429562907
asg4
g5
sg6
g7
sVmain-counts
p660
(dp661
g10
(dp662
V01000
p663
L81L
sV11000
p664
L25L
sV01100
p665
L276L
sV11100
p666
L79L
sV00000
p667
L427L
sV00100
p668
L135L
sV10000
p669
L1L
sssg13
(lp670
F16.0
aF10.5
aF35.6
aF29.3
asg15
I00
sg16
g17
sVerr-counts
p671
(dp672
g10
(dp673
V01000
p674
L23L
sV11000
p675
L65L
sV01100
p676
L54L
sV11100
p677
L16L
sV10100
p678
L652L
sV00000
p679
L3L
sV00100
p680
L210L
sV10000
p681
L1L
sssg29
(dp682
g31
(lp683
(dp684
g34
VOPENQASM 2.0;\u000ainclude "qelib1.inc";\u000aqreg main_qr[5];\u000acreg main_cr[5];\u000au3(0.366519142918809,0.0,0.0) main_qr[4];\u000au3(0.558505360638185,0.0,0.0) main_qr[3];\u000acx main_qr[3],main_qr[4];\u000au3(1.242674427419963,0.0,0.0) main_qr[3];\u000ameasure main_qr[4] -> main_cr[4];\u000au3(1.022762941668677,0.0,0.0) main_qr[2];\u000acx main_qr[3],main_qr[2];\u000ameasure main_qr[2] -> main_cr[2];\u000ameasure main_qr[3] -> main_cr[3];\u000a
p685
sg36
g37
sg38
g39
(V{"header": {"number_of_clbits": 5, "qubit_labels": [["main_qr", 0], ["main_qr", 1], ["main_qr", 2], ["main_qr", 3], ["main_qr", 4]], "number_of_qubits": 5, "clbit_labels": [["main_cr", 5]]}, "operations": [{"name": "u3", "texparams": ["0.36651914", "0.00000000", "0.00000000"], "qubits": [4], "params": [0.366519142918809, 0.0, 0.0]}, {"name": "u3", "texparams": ["0.55850536", "0.00000000", "0.00000000"], "qubits": [3], "params": [0.558505360638185, 0.0, 0.0]}, {"name": "cx", "texparams": [], "qubits": [3, 4], "params": []}, {"name": "u3", "texparams": ["1.24267443", "0.00000000", "0.00000000"], "qubits": [3], "params": [1.242674427419963, 0.0, 0.0]}, {"name": "measure", "clbits": [4], "qubits": [4]}, {"name": "u3", "texparams": ["1.02276294", "0.00000000", "0.00000000"], "qubits": [2], "params": [1.022762941668677, 0.0, 0.0]}, {"name": "cx", "texparams": [], "qubits": [3, 2], "params": []}, {"name": "measure", "clbits": [2], "qubits": [2]}, {"name": "measure", "clbits": [3], "qubits": [3]}]}
p686
g41
tp687
Rp688
sg44
(dp689
g46
Nsg47
g48
sg49
Nsg50
Nssa(dp690
g34
VOPENQASM 2.0;\u000ainclude "qelib1.inc";\u000aqreg err_qr[5];\u000acreg err_cr[5];\u000au3(0.366519142918809,0.0,0.0) err_qr[4];\u000au3(0.558505360638185,0.0,0.0) err_qr[3];\u000acx err_qr[3],err_qr[4];\u000au3(1.242674427419963,0.0,0.0) err_qr[3];\u000au3(1.570796326794897,0.0,0.0) err_qr[4];\u000ameasure err_qr[4] -> err_cr[4];\u000au3(1.022762941668677,0.0,0.0) err_qr[2];\u000acx err_qr[3],err_qr[2];\u000au3(1.570796326794897,0.0,0.0) err_qr[2];\u000ameasure err_qr[2] -> err_cr[2];\u000au3(-1.570796326794897,0.0,0.0) err_qr[3];\u000ameasure err_qr[3] -> err_cr[3];\u000a
p691
sg36
g53
sg38
g39
(V{"header": {"number_of_clbits": 5, "qubit_labels": [["err_qr", 0], ["err_qr", 1], ["err_qr", 2], ["err_qr", 3], ["err_qr", 4]], "number_of_qubits": 5, "clbit_labels": [["err_cr", 5]]}, "operations": [{"name": "u3", "texparams": ["0.36651914", "0.00000000", "0.00000000"], "qubits": [4], "params": [0.366519142918809, 0.0, 0.0]}, {"name": "u3", "texparams": ["0.55850536", "0.00000000", "0.00000000"], "qubits": [3], "params": [0.558505360638185, 0.0, 0.0]}, {"name": "cx", "texparams": [], "qubits": [3, 4], "params": []}, {"name": "u3", "texparams": ["1.24267443", "0.00000000", "0.00000000"], "qubits": [3], "params": [1.242674427419963, 0.0, 0.0]}, {"name": "u3", "texparams": ["1.57079633", "0.00000000", "0.00000000"], "qubits": [4], "params": [1.570796326794897, 0.0, 0.0]}, {"name": "measure", "clbits": [4], "qubits": [4]}, {"name": "u3", "texparams": ["1.02276294", "0.00000000", "0.00000000"], "qubits": [2], "params": [1.022762941668677, 0.0, 0.0]}, {"name": "cx", "texparams": [], "qubits": [3, 2], "params": []}, {"name": "u3", "texparams": ["1.57079633", "0.00000000", "0.00000000"], "qubits": [2], "params": [1.570796326794897, 0.0, 0.0]}, {"name": "measure", "clbits": [2], "qubits": [2]}, {"name": "u3", "texparams": ["-(1.57079633)", "0.00000000", "0.00000000"], "qubits": [3], "params": [-1.570796326794897, 0.0, 0.0]}, {"name": "measure", "clbits": [3], "qubits": [3]}]}
p692
g41
tp693
Rp694
sg44
g689
sasg4
VFUouKGaHZsaoKbZ8LiPrxDpRpCZ6RC
p695
sg44
(dp696
g59
g60
sg61
L1024L
sg62
L10L
sssg63
(lp697
L3L
aL4L
aL3L
aL2L
aL4L
aL2L
asg59
g60
sg61
L1024L
sg65
L0L
sa(dp698
g2
(lp699
F0.006588474834136049
aF0.3278477910201538
aF0.3368409828781625
aF0.6631590171218376
aF0.6721522089798462
aF0.9934115251658637
asg4
g5
sg6
g7
sVmain-counts
p700
(dp701
g10
(dp702
V01000
p703
L33L
sV11000
p704
L180L
sV01100
p705
L46L
sV11100
p706
L258L
sV00000
p707
L283L
sV00100
p708
L224L
sssg13
(lp709
F40.7
aF9.8
aF10.8
aF39.9
asg15
I00
sg16
g17
sVerr-counts
p710
(dp711
g10
(dp712
V01000
p713
L1L
sV11000
p714
L5L
sV01100
p715
L332L
sV11100
p716
L7L
sV00000
p717
L1L
sV00100
p718
L18L
sV10100
p719
L660L
sssg29
(dp720
g31
(lp721
(dp722
g34
VOPENQASM 2.0;\u000ainclude "qelib1.inc";\u000aqreg main_qr[5];\u000acreg main_cr[5];\u000au3(0.342084533390889,0.0,0.0) main_qr[4];\u000au3(1.420698011123384,0.0,0.0) main_qr[3];\u000acx main_qr[3],main_qr[4];\u000au3(0.376991118430775,0.0,0.0) main_qr[3];\u000ameasure main_qr[4] -> main_cr[4];\u000au3(1.392772743091475,0.0,0.0) main_qr[2];\u000acx main_qr[3],main_qr[2];\u000ameasure main_qr[2] -> main_cr[2];\u000ameasure main_qr[3] -> main_cr[3];\u000a
p723
sg36
g37
sg38
g39
(V{"header": {"number_of_clbits": 5, "qubit_labels": [["main_qr", 0], ["main_qr", 1], ["main_qr", 2], ["main_qr", 3], ["main_qr", 4]], "number_of_qubits": 5, "clbit_labels": [["main_cr", 5]]}, "operations": [{"name": "u3", "texparams": ["0.34208453", "0.00000000", "0.00000000"], "qubits": [4], "params": [0.342084533390889, 0.0, 0.0]}, {"name": "u3", "texparams": ["1.42069801", "0.00000000", "0.00000000"], "qubits": [3], "params": [1.420698011123384, 0.0, 0.0]}, {"name": "cx", "texparams": [], "qubits": [3, 4], "params": []}, {"name": "u3", "texparams": ["0.37699112", "0.00000000", "0.00000000"], "qubits": [3], "params": [0.376991118430775, 0.0, 0.0]}, {"name": "measure", "clbits": [4], "qubits": [4]}, {"name": "u3", "texparams": ["1.39277274", "0.00000000", "0.00000000"], "qubits": [2], "params": [1.392772743091475, 0.0, 0.0]}, {"name": "cx", "texparams": [], "qubits": [3, 2], "params": []}, {"name": "measure", "clbits": [2], "qubits": [2]}, {"name": "measure", "clbits": [3], "qubits": [3]}]}
p724
g41
tp725
Rp726
sg44
(dp727
g46
Nsg47
g48
sg49
Nsg50
Nssa(dp728
g34
VOPENQASM 2.0;\u000ainclude "qelib1.inc";\u000aqreg err_qr[5];\u000acreg err_cr[5];\u000au3(0.342084533390889,0.0,0.0) err_qr[4];\u000au3(1.420698011123384,0.0,0.0) err_qr[3];\u000acx err_qr[3],err_qr[4];\u000au3(0.376991118430775,0.0,0.0) err_qr[3];\u000au3(1.570796326794897,0.0,0.0) err_qr[4];\u000ameasure err_qr[4] -> err_cr[4];\u000au3(1.392772743091475,0.0,0.0) err_qr[2];\u000acx err_qr[3],err_qr[2];\u000au3(1.570796326794897,0.0,0.0) err_qr[2];\u000ameasure err_qr[2] -> err_cr[2];\u000au3(-1.570796326794897,0.0,0.0) err_qr[3];\u000ameasure err_qr[3] -> err_cr[3];\u000a
p729
sg36
g53
sg38
g39
(V{"header": {"number_of_clbits": 5, "qubit_labels": [["err_qr", 0], ["err_qr", 1], ["err_qr", 2], ["err_qr", 3], ["err_qr", 4]], "number_of_qubits": 5, "clbit_labels": [["err_cr", 5]]}, "operations": [{"name": "u3", "texparams": ["0.34208453", "0.00000000", "0.00000000"], "qubits": [4], "params": [0.342084533390889, 0.0, 0.0]}, {"name": "u3", "texparams": ["1.42069801", "0.00000000", "0.00000000"], "qubits": [3], "params": [1.420698011123384, 0.0, 0.0]}, {"name": "cx", "texparams": [], "qubits": [3, 4], "params": []}, {"name": "u3", "texparams": ["0.37699112", "0.00000000", "0.00000000"], "qubits": [3], "params": [0.376991118430775, 0.0, 0.0]}, {"name": "u3", "texparams": ["1.57079633", "0.00000000", "0.00000000"], "qubits": [4], "params": [1.570796326794897, 0.0, 0.0]}, {"name": "measure", "clbits": [4], "qubits": [4]}, {"name": "u3", "texparams": ["1.39277274", "0.00000000", "0.00000000"], "qubits": [2], "params": [1.392772743091475, 0.0, 0.0]}, {"name": "cx", "texparams": [], "qubits": [3, 2], "params": []}, {"name": "u3", "texparams": ["1.57079633", "0.00000000", "0.00000000"], "qubits": [2], "params": [1.570796326794897, 0.0, 0.0]}, {"name": "measure", "clbits": [2], "qubits": [2]}, {"name": "u3", "texparams": ["-(1.57079633)", "0.00000000", "0.00000000"], "qubits": [3], "params": [-1.570796326794897, 0.0, 0.0]}, {"name": "measure", "clbits": [3], "qubits": [3]}]}
p730
g41
tp731
Rp732
sg44
g727
sasg4
VXyWvJJ53JxmoC7dWFAInv8LZqnFszO
p733
sg44
(dp734
g59
g60
sg61
L1024L
sg62
L10L
sssg63
(lp735
L3L
aL4L
aL3L
aL2L
aL4L
aL2L
asg59
g60
sg61
L1024L
sg65
L0L
sa(dp736
g2
(lp737
F0.23664479374683983
aF0.27033957297095335
aF0.2705078125
aF0.7294921875
aF0.7296604270290467
aF0.7633552062531601
asg4
g5
sg6
g7
sVmain-counts
p738
(dp739
g10
(dp740
V00000
p741
L747L
sV01100
p742
L7L
sV11100
p743
L270L
sssg13
(lp744
F29.1
aF5.8
aF2.8
aF0.4
asg15
I00
sg16
g17
sVerr-counts
p745
(dp746
g10
(dp747
V01000
p748
L18L
sV11000
p749
L284L
sV01100
p750
L188L
sV11100
p751
L22L
sV10100
p752
L301L
sV00000
p753
L177L
sV00100
p754
L10L
sV10000
p755
L24L
sssg29
(dp756
g31
(lp757
(dp758
g34
VOPENQASM 2.0;\u000ainclude "qelib1.inc";\u000aqreg main_qr[5];\u000acreg main_cr[5];\u000au3(0.202458193231342,0.0,0.0) main_qr[4];\u000au3(1.0157816246607,0.0,0.0) main_qr[3];\u000acx main_qr[3],main_qr[4];\u000au3(0.097738438111682,0.0,0.0) main_qr[3];\u000ameasure main_qr[4] -> main_cr[4];\u000au3(0.013962634015955,0.0,0.0) main_qr[2];\u000acx main_qr[3],main_qr[2];\u000ameasure main_qr[2] -> main_cr[2];\u000ameasure main_qr[3] -> main_cr[3];\u000a
p759
sg36
g37
sg38
g39
(V{"header": {"number_of_clbits": 5, "qubit_labels": [["main_qr", 0], ["main_qr", 1], ["main_qr", 2], ["main_qr", 3], ["main_qr", 4]], "number_of_qubits": 5, "clbit_labels": [["main_cr", 5]]}, "operations": [{"name": "u3", "texparams": ["0.20245819", "0.00000000", "0.00000000"], "qubits": [4], "params": [0.202458193231342, 0.0, 0.0]}, {"name": "u3", "texparams": ["1.01578162", "0.00000000", "0.00000000"], "qubits": [3], "params": [1.0157816246607, 0.0, 0.0]}, {"name": "cx", "texparams": [], "qubits": [3, 4], "params": []}, {"name": "u3", "texparams": ["0.09773844", "0.00000000", "0.00000000"], "qubits": [3], "params": [0.097738438111682, 0.0, 0.0]}, {"name": "measure", "clbits": [4], "qubits": [4]}, {"name": "u3", "texparams": ["0.01396263", "0.00000000", "0.00000000"], "qubits": [2], "params": [0.013962634015955, 0.0, 0.0]}, {"name": "cx", "texparams": [], "qubits": [3, 2], "params": []}, {"name": "measure", "clbits": [2], "qubits": [2]}, {"name": "measure", "clbits": [3], "qubits": [3]}]}
p760
g41
tp761
Rp762
sg44
(dp763
g46
Nsg47
g48
sg49
Nsg50
Nssa(dp764
g34
VOPENQASM 2.0;\u000ainclude "qelib1.inc";\u000aqreg err_qr[5];\u000acreg err_cr[5];\u000au3(0.202458193231342,0.0,0.0) err_qr[4];\u000au3(1.0157816246607,0.0,0.0) err_qr[3];\u000acx err_qr[3],err_qr[4];\u000au3(0.097738438111682,0.0,0.0) err_qr[3];\u000au3(1.570796326794897,0.0,0.0) err_qr[4];\u000ameasure err_qr[4] -> err_cr[4];\u000au3(0.013962634015955,0.0,0.0) err_qr[2];\u000acx err_qr[3],err_qr[2];\u000au3(1.570796326794897,0.0,0.0) err_qr[2];\u000ameasure err_qr[2] -> err_cr[2];\u000au3(-1.570796326794897,0.0,0.0) err_qr[3];\u000ameasure err_qr[3] -> err_cr[3];\u000a
p765
sg36
g53
sg38
g39
(V{"header": {"number_of_clbits": 5, "qubit_labels": [["err_qr", 0], ["err_qr", 1], ["err_qr", 2], ["err_qr", 3], ["err_qr", 4]], "number_of_qubits": 5, "clbit_labels": [["err_cr", 5]]}, "operations": [{"name": "u3", "texparams": ["0.20245819", "0.00000000", "0.00000000"], "qubits": [4], "params": [0.202458193231342, 0.0, 0.0]}, {"name": "u3", "texparams": ["1.01578162", "0.00000000", "0.00000000"], "qubits": [3], "params": [1.0157816246607, 0.0, 0.0]}, {"name": "cx", "texparams": [], "qubits": [3, 4], "params": []}, {"name": "u3", "texparams": ["0.09773844", "0.00000000", "0.00000000"], "qubits": [3], "params": [0.097738438111682, 0.0, 0.0]}, {"name": "u3", "texparams": ["1.57079633", "0.00000000", "0.00000000"], "qubits": [4], "params": [1.570796326794897, 0.0, 0.0]}, {"name": "measure", "clbits": [4], "qubits": [4]}, {"name": "u3", "texparams": ["0.01396263", "0.00000000", "0.00000000"], "qubits": [2], "params": [0.013962634015955, 0.0, 0.0]}, {"name": "cx", "texparams": [], "qubits": [3, 2], "params": []}, {"name": "u3", "texparams": ["1.57079633", "0.00000000", "0.00000000"], "qubits": [2], "params": [1.570796326794897, 0.0, 0.0]}, {"name": "measure", "clbits": [2], "qubits": [2]}, {"name": "u3", "texparams": ["-(1.57079633)", "0.00000000", "0.00000000"], "qubits": [3], "params": [-1.570796326794897, 0.0, 0.0]}, {"name": "measure", "clbits": [3], "qubits": [3]}]}
p766
g41
tp767
Rp768
sg44
g763
sasg4
VjMppWIKiwFco3rZfEa2YWB4QROl3KG
p769
sg44
(dp770
g59
g60
sg61
L1024L
sg62
L10L
sssg63
(lp771
L3L
aL4L
aL3L
aL2L
aL4L
aL2L
asg59
g60
sg61
L1024L
sg65
L0L
sa(dp772
g2
(lp773
F-0.0005871186705728726
aF0.38789930211062384
aF0.39005970581205074
aF0.609940294187949
aF0.6121006978893758
aF1.0005871186705728
asg4
g5
sg6
g7
sVmain-counts
p774
(dp775
g10
(dp776
V01000
p777
L1L
sV11000
p778
L2L
sV01100
p779
L309L
sV11100
p780
L236L
sV00000
p781
L282L
sV00100
p782
L2L
sV10000
p783
L192L
sssg13
(lp784
F7.9
aF39.8
aF39.6
aF4.5
asg15
I00
sg16
g17
sVerr-counts
p785
(dp786
g10
(dp787
V00100
p788
L3L
sV01000
p789
L3L
sV11000
p790
L400L
sV10100
p791
L616L
sV10000
p792
L2L
sssg29
(dp793
g31
(lp794
(dp795
g34
VOPENQASM 2.0;\u000ainclude "qelib1.inc";\u000aqreg main_qr[5];\u000acreg main_cr[5];\u000au3(1.389282084587486,0.0,0.0) main_qr[4];\u000au3(0.275762021815104,0.0,0.0) main_qr[3];\u000acx main_qr[3],main_qr[4];\u000au3(1.382300767579509,0.0,0.0) main_qr[3];\u000ameasure main_qr[4] -> main_cr[4];\u000au3(0.15707963267949,0.0,0.0) main_qr[2];\u000acx main_qr[3],main_qr[2];\u000ameasure main_qr[2] -> main_cr[2];\u000ameasure main_qr[3] -> main_cr[3];\u000a
p796
sg36
g37
sg38
g39
(V{"header": {"number_of_clbits": 5, "qubit_labels": [["main_qr", 0], ["main_qr", 1], ["main_qr", 2], ["main_qr", 3], ["main_qr", 4]], "number_of_qubits": 5, "clbit_labels": [["main_cr", 5]]}, "operations": [{"name": "u3", "texparams": ["1.38928208", "0.00000000", "0.00000000"], "qubits": [4], "params": [1.389282084587486, 0.0, 0.0]}, {"name": "u3", "texparams": ["0.27576202", "0.00000000", "0.00000000"], "qubits": [3], "params": [0.275762021815104, 0.0, 0.0]}, {"name": "cx", "texparams": [], "qubits": [3, 4], "params": []}, {"name": "u3", "texparams": ["1.38230077", "0.00000000", "0.00000000"], "qubits": [3], "params": [1.382300767579509, 0.0, 0.0]}, {"name": "measure", "clbits": [4], "qubits": [4]}, {"name": "u3", "texparams": ["0.15707963", "0.00000000", "0.00000000"], "qubits": [2], "params": [0.15707963267949, 0.0, 0.0]}, {"name": "cx", "texparams": [], "qubits": [3, 2], "params": []}, {"name": "measure", "clbits": [2], "qubits": [2]}, {"name": "measure", "clbits": [3], "qubits": [3]}]}
p797
g41
tp798
Rp799
sg44
(dp800
g46
Nsg47
g48
sg49
Nsg50
Nssa(dp801
g34
VOPENQASM 2.0;\u000ainclude "qelib1.inc";\u000aqreg err_qr[5];\u000acreg err_cr[5];\u000au3(1.389282084587486,0.0,0.0) err_qr[4];\u000au3(0.275762021815104,0.0,0.0) err_qr[3];\u000acx err_qr[3],err_qr[4];\u000au3(1.382300767579509,0.0,0.0) err_qr[3];\u000au3(1.570796326794897,0.0,0.0) err_qr[4];\u000ameasure err_qr[4] -> err_cr[4];\u000au3(0.15707963267949,0.0,0.0) err_qr[2];\u000acx err_qr[3],err_qr[2];\u000au3(1.570796326794897,0.0,0.0) err_qr[2];\u000ameasure err_qr[2] -> err_cr[2];\u000au3(-1.570796326794897,0.0,0.0) err_qr[3];\u000ameasure err_qr[3] -> err_cr[3];\u000a
p802
sg36
g53
sg38
g39
(V{"header": {"number_of_clbits": 5, "qubit_labels": [["err_qr", 0], ["err_qr", 1], ["err_qr", 2], ["err_qr", 3], ["err_qr", 4]], "number_of_qubits": 5, "clbit_labels": [["err_cr", 5]]}, "operations": [{"name": "u3", "texparams": ["1.38928208", "0.00000000", "0.00000000"], "qubits": [4], "params": [1.389282084587486, 0.0, 0.0]}, {"name": "u3", "texparams": ["0.27576202", "0.00000000", "0.00000000"], "qubits": [3], "params": [0.275762021815104, 0.0, 0.0]}, {"name": "cx", "texparams": [], "qubits": [3, 4], "params": []}, {"name": "u3", "texparams": ["1.38230077", "0.00000000", "0.00000000"], "qubits": [3], "params": [1.382300767579509, 0.0, 0.0]}, {"name": "u3", "texparams": ["1.57079633", "0.00000000", "0.00000000"], "qubits": [4], "params": [1.570796326794897, 0.0, 0.0]}, {"name": "measure", "clbits": [4], "qubits": [4]}, {"name": "u3", "texparams": ["0.15707963", "0.00000000", "0.00000000"], "qubits": [2], "params": [0.15707963267949, 0.0, 0.0]}, {"name": "cx", "texparams": [], "qubits": [3, 2], "params": []}, {"name": "u3", "texparams": ["1.57079633", "0.00000000", "0.00000000"], "qubits": [2], "params": [1.570796326794897, 0.0, 0.0]}, {"name": "measure", "clbits": [2], "qubits": [2]}, {"name": "u3", "texparams": ["-(1.57079633)", "0.00000000", "0.00000000"], "qubits": [3], "params": [-1.570796326794897, 0.0, 0.0]}, {"name": "measure", "clbits": [3], "qubits": [3]}]}
p803
g41
tp804
Rp805
sg44
g800
sasg4
Vdam9yzRPOHcWN1zXeR3jb0YIVOvo0L
p806
sg44
(dp807
g59
g60
sg61
L1024L
sg62
L10L
sssg63
(lp808
L3L
aL4L
aL3L
aL2L
aL4L
aL2L
asg59
g60
sg61
L1024L
sg65
L0L
sa(dp809
g2
(lp810
F0.23847627077126055
aF0.4508506658899937
aF0.4540081568776695
aF0.5459918431223305
aF0.5491493341100063
aF0.7615237292287395
asg4
g5
sg6
g7
sVmain-counts
p811
(dp812
g10
(dp813
V00000
p814
L449L
sV01100
p815
L94L
sV11100
p816
L465L
sV10000
p817
L16L
sssg13
(lp818
F42.7
aF16.8
aF6.4
aF0.6
asg15
I00
sg16
g17
sVerr-counts
p819
(dp820
g10
(dp821
V01000
p822
L4L
sV11000
p823
L381L
sV01100
p824
L127L
sV11100
p825
L3L
sV10100
p826
L392L
sV00000
p827
L107L
sV00100
p828
L8L
sV10000
p829
L2L
sssg29
(dp830
g31
(lp831
(dp832
g34
VOPENQASM 2.0;\u000ainclude "qelib1.inc";\u000aqreg main_qr[5];\u000acreg main_cr[5];\u000au3(0.586430628670095,0.0,0.0) main_qr[4];\u000au3(1.490511181203158,0.0,0.0) main_qr[3];\u000acx main_qr[3],main_qr[4];\u000au3(0.223402144255274,0.0,0.0) main_qr[3];\u000ameasure main_qr[4] -> main_cr[4];\u000au3(0.020943951023932,0.0,0.0) main_qr[2];\u000acx main_qr[3],main_qr[2];\u000ameasure main_qr[2] -> main_cr[2];\u000ameasure main_qr[3] -> main_cr[3];\u000a
p833
sg36
g37
sg38
g39
(V{"header": {"number_of_clbits": 5, "qubit_labels": [["main_qr", 0], ["main_qr", 1], ["main_qr", 2], ["main_qr", 3], ["main_qr", 4]], "number_of_qubits": 5, "clbit_labels": [["main_cr", 5]]}, "operations": [{"name": "u3", "texparams": ["0.58643063", "0.00000000", "0.00000000"], "qubits": [4], "params": [0.586430628670095, 0.0, 0.0]}, {"name": "u3", "texparams": ["1.49051118", "0.00000000", "0.00000000"], "qubits": [3], "params": [1.490511181203158, 0.0, 0.0]}, {"name": "cx", "texparams": [], "qubits": [3, 4], "params": []}, {"name": "u3", "texparams": ["0.22340214", "0.00000000", "0.00000000"], "qubits": [3], "params": [0.223402144255274, 0.0, 0.0]}, {"name": "measure", "clbits": [4], "qubits": [4]}, {"name": "u3", "texparams": ["0.02094395", "0.00000000", "0.00000000"], "qubits": [2], "params": [0.020943951023932, 0.0, 0.0]}, {"name": "cx", "texparams": [], "qubits": [3, 2], "params": []}, {"name": "measure", "clbits": [2], "qubits": [2]}, {"name": "measure", "clbits": [3], "qubits": [3]}]}
p834
g41
tp835
Rp836
sg44
(dp837
g46
Nsg47
g48
sg49
Nsg50
Nssa(dp838
g34
VOPENQASM 2.0;\u000ainclude "qelib1.inc";\u000aqreg err_qr[5];\u000acreg err_cr[5];\u000au3(0.586430628670095,0.0,0.0) err_qr[4];\u000au3(1.490511181203158,0.0,0.0) err_qr[3];\u000acx err_qr[3],err_qr[4];\u000au3(0.223402144255274,0.0,0.0) err_qr[3];\u000au3(1.570796326794897,0.0,0.0) err_qr[4];\u000ameasure err_qr[4] -> err_cr[4];\u000au3(0.020943951023932,0.0,0.0) err_qr[2];\u000acx err_qr[3],err_qr[2];\u000au3(1.570796326794897,0.0,0.0) err_qr[2];\u000ameasure err_qr[2] -> err_cr[2];\u000au3(-1.570796326794897,0.0,0.0) err_qr[3];\u000ameasure err_qr[3] -> err_cr[3];\u000a
p839
sg36
g53
sg38
g39
(V{"header": {"number_of_clbits": 5, "qubit_labels": [["err_qr", 0], ["err_qr", 1], ["err_qr", 2], ["err_qr", 3], ["err_qr", 4]], "number_of_qubits": 5, "clbit_labels": [["err_cr", 5]]}, "operations": [{"name": "u3", "texparams": ["0.58643063", "0.00000000", "0.00000000"], "qubits": [4], "params": [0.586430628670095, 0.0, 0.0]}, {"name": "u3", "texparams": ["1.49051118", "0.00000000", "0.00000000"], "qubits": [3], "params": [1.490511181203158, 0.0, 0.0]}, {"name": "cx", "texparams": [], "qubits": [3, 4], "params": []}, {"name": "u3", "texparams": ["0.22340214", "0.00000000", "0.00000000"], "qubits": [3], "params": [0.223402144255274, 0.0, 0.0]}, {"name": "u3", "texparams": ["1.57079633", "0.00000000", "0.00000000"], "qubits": [4], "params": [1.570796326794897, 0.0, 0.0]}, {"name": "measure", "clbits": [4], "qubits": [4]}, {"name": "u3", "texparams": ["0.02094395", "0.00000000", "0.00000000"], "qubits": [2], "params": [0.020943951023932, 0.0, 0.0]}, {"name": "cx", "texparams": [], "qubits": [3, 2], "params": []}, {"name": "u3", "texparams": ["1.57079633", "0.00000000", "0.00000000"], "qubits": [2], "params": [1.570796326794897, 0.0, 0.0]}, {"name": "measure", "clbits": [2], "qubits": [2]}, {"name": "u3", "texparams": ["-(1.57079633)", "0.00000000", "0.00000000"], "qubits": [3], "params": [-1.570796326794897, 0.0, 0.0]}, {"name": "measure", "clbits": [3], "qubits": [3]}]}
p840
g41
tp841
Rp842
sg44
g837
sasg4
V1gvHdyr5SV1pwSkIufpDwJwPEejeiQ
p843
sg44
(dp844
g59
g60
sg61
L1024L
sg62
L10L
sssg63
(lp845
L3L
aL4L
aL3L
aL2L
aL4L
aL2L
asg59
g60
sg61
L1024L
sg65
L0L
sa(dp846
g2
(lp847
F0.07717550245391687
aF0.42908649867331217
aF0.4340404500360614
aF0.5659595499639386
aF0.5709135013266878
aF0.9228244975460831
asg4
g5
sg6
g7
sVmain-counts
p848
(dp849
g10
(dp850
V01000
p851
L1L
sV11000
p852
L1L
sV01100
p853
L391L
sV11100
p854
L148L
sV00000
p855
L482L
sV00100
p856
L1L
sssg13
(lp857
F19.6
aF13.4
aF35.5
aF3.3
asg15
I00
sg16
g17
sVerr-counts
p858
(dp859
g10
(dp860
V01000
p861
L92L
sV11000
p862
L314L
sV01100
p863
L31L
sV11100
p864
L14L
sV10100
p865
L416L
sV00000
p866
L35L
sV00100
p867
L118L
sV10000
p868
L4L
sssg29
(dp869
g31
(lp870
(dp871
g34
VOPENQASM 2.0;\u000ainclude "qelib1.inc";\u000aqreg main_qr[5];\u000acreg main_cr[5];\u000au3(0.46774823953448,0.0,0.0) main_qr[4];\u000au3(0.684169066781777,0.0,0.0) main_qr[3];\u000acx main_qr[3],main_qr[4];\u000au3(1.239183768915974,0.0,0.0) main_qr[3];\u000ameasure main_qr[4] -> main_cr[4];\u000au3(0.115191730631626,0.0,0.0) main_qr[2];\u000acx main_qr[3],main_qr[2];\u000ameasure main_qr[2] -> main_cr[2];\u000ameasure main_qr[3] -> main_cr[3];\u000a
p872
sg36
g37
sg38
g39
(V{"header": {"number_of_clbits": 5, "qubit_labels": [["main_qr", 0], ["main_qr", 1], ["main_qr", 2], ["main_qr", 3], ["main_qr", 4]], "number_of_qubits": 5, "clbit_labels": [["main_cr", 5]]}, "operations": [{"name": "u3", "texparams": ["0.46774824", "0.00000000", "0.00000000"], "qubits": [4], "params": [0.46774823953448, 0.0, 0.0]}, {"name": "u3", "texparams": ["0.68416907", "0.00000000", "0.00000000"], "qubits": [3], "params": [0.684169066781777, 0.0, 0.0]}, {"name": "cx", "texparams": [], "qubits": [3, 4], "params": []}, {"name": "u3", "texparams": ["1.23918377", "0.00000000", "0.00000000"], "qubits": [3], "params": [1.239183768915974, 0.0, 0.0]}, {"name": "measure", "clbits": [4], "qubits": [4]}, {"name": "u3", "texparams": ["0.11519173", "0.00000000", "0.00000000"], "qubits": [2], "params": [0.115191730631626, 0.0, 0.0]}, {"name": "cx", "texparams": [], "qubits": [3, 2], "params": []}, {"name": "measure", "clbits": [2], "qubits": [2]}, {"name": "measure", "clbits": [3], "qubits": [3]}]}
p873
g41
tp874
Rp875
sg44
(dp876
g46
Nsg47
g48
sg49
Nsg50
Nssa(dp877
g34
VOPENQASM 2.0;\u000ainclude "qelib1.inc";\u000aqreg err_qr[5];\u000acreg err_cr[5];\u000au3(0.46774823953448,0.0,0.0) err_qr[4];\u000au3(0.684169066781777,0.0,0.0) err_qr[3];\u000acx err_qr[3],err_qr[4];\u000au3(1.239183768915974,0.0,0.0) err_qr[3];\u000au3(1.570796326794897,0.0,0.0) err_qr[4];\u000ameasure err_qr[4] -> err_cr[4];\u000au3(0.115191730631626,0.0,0.0) err_qr[2];\u000acx err_qr[3],err_qr[2];\u000au3(1.570796326794897,0.0,0.0) err_qr[2];\u000ameasure err_qr[2] -> err_cr[2];\u000au3(-1.570796326794897,0.0,0.0) err_qr[3];\u000ameasure err_qr[3] -> err_cr[3];\u000a
p878
sg36
g53
sg38
g39
(V{"header": {"number_of_clbits": 5, "qubit_labels": [["err_qr", 0], ["err_qr", 1], ["err_qr", 2], ["err_qr", 3], ["err_qr", 4]], "number_of_qubits": 5, "clbit_labels": [["err_cr", 5]]}, "operations": [{"name": "u3", "texparams": ["0.46774824", "0.00000000", "0.00000000"], "qubits": [4], "params": [0.46774823953448, 0.0, 0.0]}, {"name": "u3", "texparams": ["0.68416907", "0.00000000", "0.00000000"], "qubits": [3], "params": [0.684169066781777, 0.0, 0.0]}, {"name": "cx", "texparams": [], "qubits": [3, 4], "params": []}, {"name": "u3", "texparams": ["1.23918377", "0.00000000", "0.00000000"], "qubits": [3], "params": [1.239183768915974, 0.0, 0.0]}, {"name": "u3", "texparams": ["1.57079633", "0.00000000", "0.00000000"], "qubits": [4], "params": [1.570796326794897, 0.0, 0.0]}, {"name": "measure", "clbits": [4], "qubits": [4]}, {"name": "u3", "texparams": ["0.11519173", "0.00000000", "0.00000000"], "qubits": [2], "params": [0.115191730631626, 0.0, 0.0]}, {"name": "cx", "texparams": [], "qubits": [3, 2], "params": []}, {"name": "u3", "texparams": ["1.57079633", "0.00000000", "0.00000000"], "qubits": [2], "params": [1.570796326794897, 0.0, 0.0]}, {"name": "measure", "clbits": [2], "qubits": [2]}, {"name": "u3", "texparams": ["-(1.57079633)", "0.00000000", "0.00000000"], "qubits": [3], "params": [-1.570796326794897, 0.0, 0.0]}, {"name": "measure", "clbits": [3], "qubits": [3]}]}
p879
g41
tp880
Rp881
sg44
g876
sasg4
V1qXwUkGkOvz1k50lSj64eo6eKTJFpl
p882
sg44
(dp883
g59
g60
sg61
L1024L
sg62
L10L
sssg63
(lp884
L3L
aL4L
aL3L
aL2L
aL4L
aL2L
asg59
g60
sg61
L1024L
sg65
L0L
sa(dp885
g2
(lp886
F0.3866808724424241
aF0.43008876433947096
aF0.4430571104019014
aF0.5569428895980987
aF0.569911235660529
aF0.6133191275575759
asg4
g5
sg6
g7
sVmain-counts
p887
(dp888
g10
(dp889
V11000
p890
L6L
sV01100
p891
L34L
sV11100
p892
L478L
sV00000
p893
L490L
sV00100
p894
L3L
sV10000
p895
L13L
sssg13
(lp896
F43.1
aF3.6
aF12.0
aF6.5
asg15
I00
sg16
g17
sVerr-counts
p897
(dp898
g10
(dp899
V01000
p900
L13L
sV11000
p901
L195L
sV01100
p902
L237L
sV11100
p903
L9L
sV10100
p904
L370L
sV00000
p905
L180L
sV00100
p906
L12L
sV10000
p907
L8L
sssg29
(dp908
g31
(lp909
(dp910
g34
VOPENQASM 2.0;\u000ainclude "qelib1.inc";\u000aqreg main_qr[5];\u000acreg main_cr[5];\u000au3(0.125663706143592,0.0,0.0) main_qr[4];\u000au3(1.504473815219112,0.0,0.0) main_qr[3];\u000acx main_qr[3],main_qr[4];\u000au3(0.418879020478639,0.0,0.0) main_qr[3];\u000ameasure main_qr[4] -> main_cr[4];\u000au3(0.226892802759263,0.0,0.0) main_qr[2];\u000acx main_qr[3],main_qr[2];\u000ameasure main_qr[2] -> main_cr[2];\u000ameasure main_qr[3] -> main_cr[3];\u000a
p911
sg36
g37
sg38
g39
(V{"header": {"number_of_clbits": 5, "qubit_labels": [["main_qr", 0], ["main_qr", 1], ["main_qr", 2], ["main_qr", 3], ["main_qr", 4]], "number_of_qubits": 5, "clbit_labels": [["main_cr", 5]]}, "operations": [{"name": "u3", "texparams": ["0.12566371", "0.00000000", "0.00000000"], "qubits": [4], "params": [0.125663706143592, 0.0, 0.0]}, {"name": "u3", "texparams": ["1.50447382", "0.00000000", "0.00000000"], "qubits": [3], "params": [1.504473815219112, 0.0, 0.0]}, {"name": "cx", "texparams": [], "qubits": [3, 4], "params": []}, {"name": "u3", "texparams": ["0.41887902", "0.00000000", "0.00000000"], "qubits": [3], "params": [0.418879020478639, 0.0, 0.0]}, {"name": "measure", "clbits": [4], "qubits": [4]}, {"name": "u3", "texparams": ["0.22689280", "0.00000000", "0.00000000"], "qubits": [2], "params": [0.226892802759263, 0.0, 0.0]}, {"name": "cx", "texparams": [], "qubits": [3, 2], "params": []}, {"name": "measure", "clbits": [2], "qubits": [2]}, {"name": "measure", "clbits": [3], "qubits": [3]}]}
p912
g41
tp913
Rp914
sg44
(dp915
g46
Nsg47
g48
sg49
Nsg50
Nssa(dp916
g34
VOPENQASM 2.0;\u000ainclude "qelib1.inc";\u000aqreg err_qr[5];\u000acreg err_cr[5];\u000au3(0.125663706143592,0.0,0.0) err_qr[4];\u000au3(1.504473815219112,0.0,0.0) err_qr[3];\u000acx err_qr[3],err_qr[4];\u000au3(0.418879020478639,0.0,0.0) err_qr[3];\u000au3(1.570796326794897,0.0,0.0) err_qr[4];\u000ameasure err_qr[4] -> err_cr[4];\u000au3(0.226892802759263,0.0,0.0) err_qr[2];\u000acx err_qr[3],err_qr[2];\u000au3(1.570796326794897,0.0,0.0) err_qr[2];\u000ameasure err_qr[2] -> err_cr[2];\u000au3(-1.570796326794897,0.0,0.0) err_qr[3];\u000ameasure err_qr[3] -> err_cr[3];\u000a
p917
sg36
g53
sg38
g39
(V{"header": {"number_of_clbits": 5, "qubit_labels": [["err_qr", 0], ["err_qr", 1], ["err_qr", 2], ["err_qr", 3], ["err_qr", 4]], "number_of_qubits": 5, "clbit_labels": [["err_cr", 5]]}, "operations": [{"name": "u3", "texparams": ["0.12566371", "0.00000000", "0.00000000"], "qubits": [4], "params": [0.125663706143592, 0.0, 0.0]}, {"name": "u3", "texparams": ["1.50447382", "0.00000000", "0.00000000"], "qubits": [3], "params": [1.504473815219112, 0.0, 0.0]}, {"name": "cx", "texparams": [], "qubits": [3, 4], "params": []}, {"name": "u3", "texparams": ["0.41887902", "0.00000000", "0.00000000"], "qubits": [3], "params": [0.418879020478639, 0.0, 0.0]}, {"name": "u3", "texparams": ["1.57079633", "0.00000000", "0.00000000"], "qubits": [4], "params": [1.570796326794897, 0.0, 0.0]}, {"name": "measure", "clbits": [4], "qubits": [4]}, {"name": "u3", "texparams": ["0.22689280", "0.00000000", "0.00000000"], "qubits": [2], "params": [0.226892802759263, 0.0, 0.0]}, {"name": "cx", "texparams": [], "qubits": [3, 2], "params": []}, {"name": "u3", "texparams": ["1.57079633", "0.00000000", "0.00000000"], "qubits": [2], "params": [1.570796326794897, 0.0, 0.0]}, {"name": "measure", "clbits": [2], "qubits": [2]}, {"name": "u3", "texparams": ["-(1.57079633)", "0.00000000", "0.00000000"], "qubits": [3], "params": [-1.570796326794897, 0.0, 0.0]}, {"name": "measure", "clbits": [3], "qubits": [3]}]}
p918
g41
tp919
Rp920
sg44
g915
sasg4
VnzlDAqEoqmJeeIpoKltgvw16TUsTZQ
p921
sg44
(dp922
g59
g60
sg61
L1024L
sg62
L10L
sssg63
(lp923
L3L
aL4L
aL3L
aL2L
aL4L
aL2L
asg59
g60
sg61
L1024L
sg65
L0L
sa(dp924
g2
(lp925
F0.28624209056117644
aF0.29672481513659865
aF0.29783033399508446
aF0.7021696660049155
aF0.7032751848634013
aF0.7137579094388233
asg4
g5
sg6
g7
sVmain-counts
p926
(dp927
g10
(dp928
V00000
p929
L207L
sV10000
p930
L97L
sV01100
p931
L350L
sV00100
p932
L1L
sV11100
p933
L369L
sssg13
(lp934
F42.5
aF12.2
aF40.2
aF1.2
asg15
I00
sg16
g17
sVerr-counts
p935
(dp936
g10
(dp937
V01000
p938
L69L
sV11000
p939
L206L
sV01100
p940
L91L
sV11100
p941
L143L
sV10100
p942
L227L
sV00000
p943
L79L
sV00100
p944
L59L
sV10000
p945
L150L
sssg29
(dp946
g31
(lp947
(dp948
g34
VOPENQASM 2.0;\u000ainclude "qelib1.inc";\u000aqreg main_qr[5];\u000acreg main_cr[5];\u000au3(0.425860337486616,0.0,0.0) main_qr[4];\u000au3(1.48352986419518,0.0,0.0) main_qr[3];\u000acx main_qr[3],main_qr[4];\u000au3(1.403244718603441,0.0,0.0) main_qr[3];\u000ameasure main_qr[4] -> main_cr[4];\u000au3(0.041887902047864,0.0,0.0) main_qr[2];\u000acx main_qr[3],main_qr[2];\u000ameasure main_qr[2] -> main_cr[2];\u000ameasure main_qr[3] -> main_cr[3];\u000a
p949
sg36
g37
sg38
g39
(V{"header": {"number_of_clbits": 5, "qubit_labels": [["main_qr", 0], ["main_qr", 1], ["main_qr", 2], ["main_qr", 3], ["main_qr", 4]], "number_of_qubits": 5, "clbit_labels": [["main_cr", 5]]}, "operations": [{"name": "u3", "texparams": ["0.42586034", "0.00000000", "0.00000000"], "qubits": [4], "params": [0.425860337486616, 0.0, 0.0]}, {"name": "u3", "texparams": ["1.48352986", "0.00000000", "0.00000000"], "qubits": [3], "params": [1.48352986419518, 0.0, 0.0]}, {"name": "cx", "texparams": [], "qubits": [3, 4], "params": []}, {"name": "u3", "texparams": ["1.40324472", "0.00000000", "0.00000000"], "qubits": [3], "params": [1.403244718603441, 0.0, 0.0]}, {"name": "measure", "clbits": [4], "qubits": [4]}, {"name": "u3", "texparams": ["0.04188790", "0.00000000", "0.00000000"], "qubits": [2], "params": [0.041887902047864, 0.0, 0.0]}, {"name": "cx", "texparams": [], "qubits": [3, 2], "params": []}, {"name": "measure", "clbits": [2], "qubits": [2]}, {"name": "measure", "clbits": [3], "qubits": [3]}]}
p950
g41
tp951
Rp952
sg44
(dp953
g46
Nsg47
g48
sg49
Nsg50
Nssa(dp954
g34
VOPENQASM 2.0;\u000ainclude "qelib1.inc";\u000aqreg err_qr[5];\u000acreg err_cr[5];\u000au3(0.425860337486616,0.0,0.0) err_qr[4];\u000au3(1.48352986419518,0.0,0.0) err_qr[3];\u000acx err_qr[3],err_qr[4];\u000au3(1.403244718603441,0.0,0.0) err_qr[3];\u000au3(1.570796326794897,0.0,0.0) err_qr[4];\u000ameasure err_qr[4] -> err_cr[4];\u000au3(0.041887902047864,0.0,0.0) err_qr[2];\u000acx err_qr[3],err_qr[2];\u000au3(1.570796326794897,0.0,0.0) err_qr[2];\u000ameasure err_qr[2] -> err_cr[2];\u000au3(-1.570796326794897,0.0,0.0) err_qr[3];\u000ameasure err_qr[3] -> err_cr[3];\u000a
p955
sg36
g53
sg38
g39
(V{"header": {"number_of_clbits": 5, "qubit_labels": [["err_qr", 0], ["err_qr", 1], ["err_qr", 2], ["err_qr", 3], ["err_qr", 4]], "number_of_qubits": 5, "clbit_labels": [["err_cr", 5]]}, "operations": [{"name": "u3", "texparams": ["0.42586034", "0.00000000", "0.00000000"], "qubits": [4], "params": [0.425860337486616, 0.0, 0.0]}, {"name": "u3", "texparams": ["1.48352986", "0.00000000", "0.00000000"], "qubits": [3], "params": [1.48352986419518, 0.0, 0.0]}, {"name": "cx", "texparams": [], "qubits": [3, 4], "params": []}, {"name": "u3", "texparams": ["1.40324472", "0.00000000", "0.00000000"], "qubits": [3], "params": [1.403244718603441, 0.0, 0.0]}, {"name": "u3", "texparams": ["1.57079633", "0.00000000", "0.00000000"], "qubits": [4], "params": [1.570796326794897, 0.0, 0.0]}, {"name": "measure", "clbits": [4], "qubits": [4]}, {"name": "u3", "texparams": ["0.04188790", "0.00000000", "0.00000000"], "qubits": [2], "params": [0.041887902047864, 0.0, 0.0]}, {"name": "cx", "texparams": [], "qubits": [3, 2], "params": []}, {"name": "u3", "texparams": ["1.57079633", "0.00000000", "0.00000000"], "qubits": [2], "params": [1.570796326794897, 0.0, 0.0]}, {"name": "measure", "clbits": [2], "qubits": [2]}, {"name": "u3", "texparams": ["-(1.57079633)", "0.00000000", "0.00000000"], "qubits": [3], "params": [-1.570796326794897, 0.0, 0.0]}, {"name": "measure", "clbits": [3], "qubits": [3]}]}
p956
g41
tp957
Rp958
sg44
g953
sasg4
VsQ8WQolf3kljWaWTJxugH85RWhc1jW
p959
sg44
(dp960
g59
g60
sg61
L1024L
sg62
L10L
sssg63
(lp961
L3L
aL4L
aL3L
aL2L
aL4L
aL2L
asg59
g60
sg61
L1024L
sg65
L0L
sa(dp962
g2
(lp963
F0.22038745712450455
aF0.22830844798103023
aF0.2967318525732554
aF0.7032681474267446
aF0.7716915520189698
aF0.7796125428754954
asg4
g5
sg6
g7
sVmain-counts
p964
(dp965
g10
(dp966
V01000
p967
L8L
sV11000
p968
L15L
sV01100
p969
L96L
sV11100
p970
L211L
sV10100
p971
L3L
sV00000
p972
L640L
sV00100
p973
L37L
sV10000
p974
L14L
sssg13
(lp975
F28.8
aF4.4
aF20.3
aF14.2
asg15
I00
sg16
g17
sVerr-counts
p976
(dp977
g10
(dp978
V01000
p979
L50L
sV11000
p980
L145L
sV01100
p981
L210L
sV11100
p982
L6L
sV10100
p983
L431L
sV00000
p984
L82L
sV00100
p985
L99L
sV10000
p986
L1L
sssg29
(dp987
g31
(lp988
(dp989
g34
VOPENQASM 2.0;\u000ainclude "qelib1.inc";\u000aqreg main_qr[5];\u000acreg main_cr[5];\u000au3(0.153588974175501,0.0,0.0) main_qr[4];\u000au3(1.005309649148734,0.0,0.0) main_qr[3];\u000acx main_qr[3],main_qr[4];\u000au3(0.708603676309698,0.0,0.0) main_qr[3];\u000ameasure main_qr[4] -> main_cr[4];\u000au3(0.49567350756639,0.0,0.0) main_qr[2];\u000acx main_qr[3],main_qr[2];\u000ameasure main_qr[2] -> main_cr[2];\u000ameasure main_qr[3] -> main_cr[3];\u000a
p990
sg36
g37
sg38
g39
(V{"header": {"number_of_clbits": 5, "qubit_labels": [["main_qr", 0], ["main_qr", 1], ["main_qr", 2], ["main_qr", 3], ["main_qr", 4]], "number_of_qubits": 5, "clbit_labels": [["main_cr", 5]]}, "operations": [{"name": "u3", "texparams": ["0.15358897", "0.00000000", "0.00000000"], "qubits": [4], "params": [0.153588974175501, 0.0, 0.0]}, {"name": "u3", "texparams": ["1.00530965", "0.00000000", "0.00000000"], "qubits": [3], "params": [1.005309649148734, 0.0, 0.0]}, {"name": "cx", "texparams": [], "qubits": [3, 4], "params": []}, {"name": "u3", "texparams": ["0.70860368", "0.00000000", "0.00000000"], "qubits": [3], "params": [0.708603676309698, 0.0, 0.0]}, {"name": "measure", "clbits": [4], "qubits": [4]}, {"name": "u3", "texparams": ["0.49567351", "0.00000000", "0.00000000"], "qubits": [2], "params": [0.49567350756639, 0.0, 0.0]}, {"name": "cx", "texparams": [], "qubits": [3, 2], "params": []}, {"name": "measure", "clbits": [2], "qubits": [2]}, {"name": "measure", "clbits": [3], "qubits": [3]}]}
p991
g41
tp992
Rp993
sg44
(dp994
g46
Nsg47
g48
sg49
Nsg50
Nssa(dp995
g34
VOPENQASM 2.0;\u000ainclude "qelib1.inc";\u000aqreg err_qr[5];\u000acreg err_cr[5];\u000au3(0.153588974175501,0.0,0.0) err_qr[4];\u000au3(1.005309649148734,0.0,0.0) err_qr[3];\u000acx err_qr[3],err_qr[4];\u000au3(0.708603676309698,0.0,0.0) err_qr[3];\u000au3(1.570796326794897,0.0,0.0) err_qr[4];\u000ameasure err_qr[4] -> err_cr[4];\u000au3(0.49567350756639,0.0,0.0) err_qr[2];\u000acx err_qr[3],err_qr[2];\u000au3(1.570796326794897,0.0,0.0) err_qr[2];\u000ameasure err_qr[2] -> err_cr[2];\u000au3(-1.570796326794897,0.0,0.0) err_qr[3];\u000ameasure err_qr[3] -> err_cr[3];\u000a
p996
sg36
g53
sg38
g39
(V{"header": {"number_of_clbits": 5, "qubit_labels": [["err_qr", 0], ["err_qr", 1], ["err_qr", 2], ["err_qr", 3], ["err_qr", 4]], "number_of_qubits": 5, "clbit_labels": [["err_cr", 5]]}, "operations": [{"name": "u3", "texparams": ["0.15358897", "0.00000000", "0.00000000"], "qubits": [4], "params": [0.153588974175501, 0.0, 0.0]}, {"name": "u3", "texparams": ["1.00530965", "0.00000000", "0.00000000"], "qubits": [3], "params": [1.005309649148734, 0.0, 0.0]}, {"name": "cx", "texparams": [], "qubits": [3, 4], "params": []}, {"name": "u3", "texparams": ["0.70860368", "0.00000000", "0.00000000"], "qubits": [3], "params": [0.708603676309698, 0.0, 0.0]}, {"name": "u3", "texparams": ["1.57079633", "0.00000000", "0.00000000"], "qubits": [4], "params": [1.570796326794897, 0.0, 0.0]}, {"name": "measure", "clbits": [4], "qubits": [4]}, {"name": "u3", "texparams": ["0.49567351", "0.00000000", "0.00000000"], "qubits": [2], "params": [0.49567350756639, 0.0, 0.0]}, {"name": "cx", "texparams": [], "qubits": [3, 2], "params": []}, {"name": "u3", "texparams": ["1.57079633", "0.00000000", "0.00000000"], "qubits": [2], "params": [1.570796326794897, 0.0, 0.0]}, {"name": "measure", "clbits": [2], "qubits": [2]}, {"name": "u3", "texparams": ["-(1.57079633)", "0.00000000", "0.00000000"], "qubits": [3], "params": [-1.570796326794897, 0.0, 0.0]}, {"name": "measure", "clbits": [3], "qubits": [3]}]}
p997
g41
tp998
Rp999
sg44
g994
sasg4
V3nSVm5TOcHDdt4gvkcMWnyvWdUu2dy
p1000
sg44
(dp1001
g59
g60
sg61
L1024L
sg62
L10L
sssg63
(lp1002
L3L
aL4L
aL3L
aL2L
aL4L
aL2L
asg59
g60
sg61
L1024L
sg65
L0L
sa(dp1003
g2
(lp1004
F0.06796075921438188
aF0.35425643050440814
aF0.36433160166552925
aF0.6356683983344708
aF0.6457435694955919
aF0.9320392407856181
asg4
g5
sg6
g7
sVmain-counts
p1005
(dp1006
g10
(dp1007
V01000
p1008
L13L
sV11000
p1009
L90L
sV01100
p1010
L55L
sV11100
p1011
L300L
sV10100
p1012
L7L
sV00000
p1013
L416L
sV00100
p1014
L131L
sV10000
p1015
L12L
sssg13
(lp1016
F39.6
aF4.7
aF17.2
aF29.7
asg15
I00
sg16
g17
sVerr-counts
p1017
(dp1018
g10
(dp1019
V01000
p1020
L3L
sV11000
p1021
L37L
sV01100
p1022
L319L
sV11100
p1023
L25L
sV10100
p1024
L555L
sV00000
p1025
L27L
sV00100
p1026
L55L
sV10000
p1027
L3L
sssg29
(dp1028
g31
(lp1029
(dp1030
g34
VOPENQASM 2.0;\u000ainclude "qelib1.inc";\u000aqreg main_qr[5];\u000acreg main_cr[5];\u000au3(0.164060949687467,0.0,0.0) main_qr[4];\u000au3(1.382300767579509,0.0,0.0) main_qr[3];\u000acx main_qr[3],main_qr[4];\u000au3(0.600393262686049,0.0,0.0) main_qr[3];\u000ameasure main_qr[4] -> main_cr[4];\u000au3(1.036725575684632,0.0,0.0) main_qr[2];\u000acx main_qr[3],main_qr[2];\u000ameasure main_qr[2] -> main_cr[2];\u000ameasure main_qr[3] -> main_cr[3];\u000a
p1031
sg36
g37
sg38
g39
(V{"header": {"number_of_clbits": 5, "qubit_labels": [["main_qr", 0], ["main_qr", 1], ["main_qr", 2], ["main_qr", 3], ["main_qr", 4]], "number_of_qubits": 5, "clbit_labels": [["main_cr", 5]]}, "operations": [{"name": "u3", "texparams": ["0.16406095", "0.00000000", "0.00000000"], "qubits": [4], "params": [0.164060949687467, 0.0, 0.0]}, {"name": "u3", "texparams": ["1.38230077", "0.00000000", "0.00000000"], "qubits": [3], "params": [1.382300767579509, 0.0, 0.0]}, {"name": "cx", "texparams": [], "qubits": [3, 4], "params": []}, {"name": "u3", "texparams": ["0.60039326", "0.00000000", "0.00000000"], "qubits": [3], "params": [0.600393262686049, 0.0, 0.0]}, {"name": "measure", "clbits": [4], "qubits": [4]}, {"name": "u3", "texparams": ["1.03672558", "0.00000000", "0.00000000"], "qubits": [2], "params": [1.036725575684632, 0.0, 0.0]}, {"name": "cx", "texparams": [], "qubits": [3, 2], "params": []}, {"name": "measure", "clbits": [2], "qubits": [2]}, {"name": "measure", "clbits": [3], "qubits": [3]}]}
p1032
g41
tp1033
Rp1034
sg44
(dp1035
g46
Nsg47
g48
sg49
Nsg50
Nssa(dp1036
g34
VOPENQASM 2.0;\u000ainclude "qelib1.inc";\u000aqreg err_qr[5];\u000acreg err_cr[5];\u000au3(0.164060949687467,0.0,0.0) err_qr[4];\u000au3(1.382300767579509,0.0,0.0) err_qr[3];\u000acx err_qr[3],err_qr[4];\u000au3(0.600393262686049,0.0,0.0) err_qr[3];\u000au3(1.570796326794897,0.0,0.0) err_qr[4];\u000ameasure err_qr[4] -> err_cr[4];\u000au3(1.036725575684632,0.0,0.0) err_qr[2];\u000acx err_qr[3],err_qr[2];\u000au3(1.570796326794897,0.0,0.0) err_qr[2];\u000ameasure err_qr[2] -> err_cr[2];\u000au3(-1.570796326794897,0.0,0.0) err_qr[3];\u000ameasure err_qr[3] -> err_cr[3];\u000a
p1037
sg36
g53
sg38
g39
(V{"header": {"number_of_clbits": 5, "qubit_labels": [["err_qr", 0], ["err_qr", 1], ["err_qr", 2], ["err_qr", 3], ["err_qr", 4]], "number_of_qubits": 5, "clbit_labels": [["err_cr", 5]]}, "operations": [{"name": "u3", "texparams": ["0.16406095", "0.00000000", "0.00000000"], "qubits": [4], "params": [0.164060949687467, 0.0, 0.0]}, {"name": "u3", "texparams": ["1.38230077", "0.00000000", "0.00000000"], "qubits": [3], "params": [1.382300767579509, 0.0, 0.0]}, {"name": "cx", "texparams": [], "qubits": [3, 4], "params": []}, {"name": "u3", "texparams": ["0.60039326", "0.00000000", "0.00000000"], "qubits": [3], "params": [0.600393262686049, 0.0, 0.0]}, {"name": "u3", "texparams": ["1.57079633", "0.00000000", "0.00000000"], "qubits": [4], "params": [1.570796326794897, 0.0, 0.0]}, {"name": "measure", "clbits": [4], "qubits": [4]}, {"name": "u3", "texparams": ["1.03672558", "0.00000000", "0.00000000"], "qubits": [2], "params": [1.036725575684632, 0.0, 0.0]}, {"name": "cx", "texparams": [], "qubits": [3, 2], "params": []}, {"name": "u3", "texparams": ["1.57079633", "0.00000000", "0.00000000"], "qubits": [2], "params": [1.570796326794897, 0.0, 0.0]}, {"name": "measure", "clbits": [2], "qubits": [2]}, {"name": "u3", "texparams": ["-(1.57079633)", "0.00000000", "0.00000000"], "qubits": [3], "params": [-1.570796326794897, 0.0, 0.0]}, {"name": "measure", "clbits": [3], "qubits": [3]}]}
p1038
g41
tp1039
Rp1040
sg44
g1035
sasg4
VFmYOwKNzSK3kd60P5Q6TUyVJdpcmSm
p1041
sg44
(dp1042
g59
g60
sg61
L1024L
sg62
L10L
sssg63
(lp1043
L3L
aL4L
aL3L
aL2L
aL4L
aL2L
asg59
g60
sg61
L1024L
sg65
L0L
sa(dp1044
g2
(lp1045
F0.1708173087757192
aF0.18809566047167348
aF0.2150779536263197
aF0.7849220463736803
aF0.8119043395283265
aF0.8291826912242807
asg4
g5
sg6
g7
sVmain-counts
p1046
(dp1047
g10
(dp1048
V01000
p1049
L8L
sV11000
p1050
L12L
sV01100
p1051
L347L
sV11100
p1052
L435L
sV10100
p1053
L3L
sV00000
p1054
L180L
sV00100
p1055
L4L
sV10000
p1056
L35L
sssg13
(lp1057
F43.1
aF19.6
aF35.6
aF10.0
asg15
I00
sg16
g17
sVerr-counts
p1058
(dp1059
g10
(dp1060
V01000
p1061
L29L
sV11000
p1062
L194L
sV01100
p1063
L78L
sV11100
p1064
L179L
sV10100
p1065
L386L
sV00000
p1066
L41L
sV00100
p1067
L28L
sV10000
p1068
L89L
sssg29
(dp1069
g31
(lp1070
(dp1071
g34
VOPENQASM 2.0;\u000ainclude "qelib1.inc";\u000aqreg main_qr[5];\u000acreg main_cr[5];\u000au3(0.684169066781777,0.0,0.0) main_qr[4];\u000au3(1.504473815219112,0.0,0.0) main_qr[3];\u000acx main_qr[3],main_qr[4];\u000au3(1.242674427419963,0.0,0.0) main_qr[3];\u000ameasure main_qr[4] -> main_cr[4];\u000au3(0.349065850398866,0.0,0.0) main_qr[2];\u000acx main_qr[3],main_qr[2];\u000ameasure main_qr[2] -> main_cr[2];\u000ameasure main_qr[3] -> main_cr[3];\u000a
p1072
sg36
g37
sg38
g39
(V{"header": {"number_of_clbits": 5, "qubit_labels": [["main_qr", 0], ["main_qr", 1], ["main_qr", 2], ["main_qr", 3], ["main_qr", 4]], "number_of_qubits": 5, "clbit_labels": [["main_cr", 5]]}, "operations": [{"name": "u3", "texparams": ["0.68416907", "0.00000000", "0.00000000"], "qubits": [4], "params": [0.684169066781777, 0.0, 0.0]}, {"name": "u3", "texparams": ["1.50447382", "0.00000000", "0.00000000"], "qubits": [3], "params": [1.504473815219112, 0.0, 0.0]}, {"name": "cx", "texparams": [], "qubits": [3, 4], "params": []}, {"name": "u3", "texparams": ["1.24267443", "0.00000000", "0.00000000"], "qubits": [3], "params": [1.242674427419963, 0.0, 0.0]}, {"name": "measure", "clbits": [4], "qubits": [4]}, {"name": "u3", "texparams": ["0.34906585", "0.00000000", "0.00000000"], "qubits": [2], "params": [0.349065850398866, 0.0, 0.0]}, {"name": "cx", "texparams": [], "qubits": [3, 2], "params": []}, {"name": "measure", "clbits": [2], "qubits": [2]}, {"name": "measure", "clbits": [3], "qubits": [3]}]}
p1073
g41
tp1074
Rp1075
sg44
(dp1076
g46
Nsg47
g48
sg49
Nsg50
Nssa(dp1077
g34
VOPENQASM 2.0;\u000ainclude "qelib1.inc";\u000aqreg err_qr[5];\u000acreg err_cr[5];\u000au3(0.684169066781777,0.0,0.0) err_qr[4];\u000au3(1.504473815219112,0.0,0.0) err_qr[3];\u000acx err_qr[3],err_qr[4];\u000au3(1.242674427419963,0.0,0.0) err_qr[3];\u000au3(1.570796326794897,0.0,0.0) err_qr[4];\u000ameasure err_qr[4] -> err_cr[4];\u000au3(0.349065850398866,0.0,0.0) err_qr[2];\u000acx err_qr[3],err_qr[2];\u000au3(1.570796326794897,0.0,0.0) err_qr[2];\u000ameasure err_qr[2] -> err_cr[2];\u000au3(-1.570796326794897,0.0,0.0) err_qr[3];\u000ameasure err_qr[3] -> err_cr[3];\u000a
p1078
sg36
g53
sg38
g39
(V{"header": {"number_of_clbits": 5, "qubit_labels": [["err_qr", 0], ["err_qr", 1], ["err_qr", 2], ["err_qr", 3], ["err_qr", 4]], "number_of_qubits": 5, "clbit_labels": [["err_cr", 5]]}, "operations": [{"name": "u3", "texparams": ["0.68416907", "0.00000000", "0.00000000"], "qubits": [4], "params": [0.684169066781777, 0.0, 0.0]}, {"name": "u3", "texparams": ["1.50447382", "0.00000000", "0.00000000"], "qubits": [3], "params": [1.504473815219112, 0.0, 0.0]}, {"name": "cx", "texparams": [], "qubits": [3, 4], "params": []}, {"name": "u3", "texparams": ["1.24267443", "0.00000000", "0.00000000"], "qubits": [3], "params": [1.242674427419963, 0.0, 0.0]}, {"name": "u3", "texparams": ["1.57079633", "0.00000000", "0.00000000"], "qubits": [4], "params": [1.570796326794897, 0.0, 0.0]}, {"name": "measure", "clbits": [4], "qubits": [4]}, {"name": "u3", "texparams": ["0.34906585", "0.00000000", "0.00000000"], "qubits": [2], "params": [0.349065850398866, 0.0, 0.0]}, {"name": "cx", "texparams": [], "qubits": [3, 2], "params": []}, {"name": "u3", "texparams": ["1.57079633", "0.00000000", "0.00000000"], "qubits": [2], "params": [1.570796326794897, 0.0, 0.0]}, {"name": "measure", "clbits": [2], "qubits": [2]}, {"name": "u3", "texparams": ["-(1.57079633)", "0.00000000", "0.00000000"], "qubits": [3], "params": [-1.570796326794897, 0.0, 0.0]}, {"name": "measure", "clbits": [3], "qubits": [3]}]}
p1079
g41
tp1080
Rp1081
sg44
g1076
sasg4
VWf1ysBDhrZ7226n8Bag2WuZAQZzf3d
p1082
sg44
(dp1083
g59
g60
sg61
L1024L
sg62
L10L
sssg63
(lp1084
L3L
aL4L
aL3L
aL2L
aL4L
aL2L
asg59
g60
sg61
L1024L
sg65
L0L
sa(dp1085
g2
(lp1086
F0.2035300357586529
aF0.3859594078723193
aF0.39251599807903825
aF0.6074840019209617
aF0.6140405921276807
aF0.7964699642413471
asg4
g5
sg6
g7
sVmain-counts
p1087
(dp1088
g10
(dp1089
V11000
p1090
L1L
sV01100
p1091
L273L
sV11100
p1092
L343L
sV00000
p1093
L397L
sV10000
p1094
L8L
sV00100
p1095
L2L
sssg13
(lp1096
F34.0
aF14.7
aF29.6
aF1.5
asg15
I00
sg16
g17
sVerr-counts
p1097
(dp1098
g10
(dp1099
V01000
p1100
L60L
sV11000
p1101
L296L
sV01100
p1102
L73L
sV11100
p1103
L50L
sV10100
p1104
L386L
sV00000
p1105
L69L
sV00100
p1106
L52L
sV10000
p1107
L38L
sssg29
(dp1108
g31
(lp1109
(dp1110
g34
VOPENQASM 2.0;\u000ainclude "qelib1.inc";\u000aqreg main_qr[5];\u000acreg main_cr[5];\u000au3(0.513126800086333,0.0,0.0) main_qr[4];\u000au3(1.186823891356144,0.0,0.0) main_qr[3];\u000acx main_qr[3],main_qr[4];\u000au3(1.033234917180643,0.0,0.0) main_qr[3];\u000ameasure main_qr[4] -> main_cr[4];\u000au3(0.05235987755983,0.0,0.0) main_qr[2];\u000acx main_qr[3],main_qr[2];\u000ameasure main_qr[2] -> main_cr[2];\u000ameasure main_qr[3] -> main_cr[3];\u000a
p1111
sg36
g37
sg38
g39
(V{"header": {"number_of_clbits": 5, "qubit_labels": [["main_qr", 0], ["main_qr", 1], ["main_qr", 2], ["main_qr", 3], ["main_qr", 4]], "number_of_qubits": 5, "clbit_labels": [["main_cr", 5]]}, "operations": [{"name": "u3", "texparams": ["0.51312680", "0.00000000", "0.00000000"], "qubits": [4], "params": [0.513126800086333, 0.0, 0.0]}, {"name": "u3", "texparams": ["1.18682389", "0.00000000", "0.00000000"], "qubits": [3], "params": [1.186823891356144, 0.0, 0.0]}, {"name": "cx", "texparams": [], "qubits": [3, 4], "params": []}, {"name": "u3", "texparams": ["1.03323492", "0.00000000", "0.00000000"], "qubits": [3], "params": [1.033234917180643, 0.0, 0.0]}, {"name": "measure", "clbits": [4], "qubits": [4]}, {"name": "u3", "texparams": ["0.05235988", "0.00000000", "0.00000000"], "qubits": [2], "params": [0.05235987755983, 0.0, 0.0]}, {"name": "cx", "texparams": [], "qubits": [3, 2], "params": []}, {"name": "measure", "clbits": [2], "qubits": [2]}, {"name": "measure", "clbits": [3], "qubits": [3]}]}
p1112
g41
tp1113
Rp1114
sg44
(dp1115
g46
Nsg47
g48
sg49
Nsg50
Nssa(dp1116
g34
VOPENQASM 2.0;\u000ainclude "qelib1.inc";\u000aqreg err_qr[5];\u000acreg err_cr[5];\u000au3(0.513126800086333,0.0,0.0) err_qr[4];\u000au3(1.186823891356144,0.0,0.0) err_qr[3];\u000acx err_qr[3],err_qr[4];\u000au3(1.033234917180643,0.0,0.0) err_qr[3];\u000au3(1.570796326794897,0.0,0.0) err_qr[4];\u000ameasure err_qr[4] -> err_cr[4];\u000au3(0.05235987755983,0.0,0.0) err_qr[2];\u000acx err_qr[3],err_qr[2];\u000au3(1.570796326794897,0.0,0.0) err_qr[2];\u000ameasure err_qr[2] -> err_cr[2];\u000au3(-1.570796326794897,0.0,0.0) err_qr[3];\u000ameasure err_qr[3] -> err_cr[3];\u000a
p1117
sg36
g53
sg38
g39
(V{"header": {"number_of_clbits": 5, "qubit_labels": [["err_qr", 0], ["err_qr", 1], ["err_qr", 2], ["err_qr", 3], ["err_qr", 4]], "number_of_qubits": 5, "clbit_labels": [["err_cr", 5]]}, "operations": [{"name": "u3", "texparams": ["0.51312680", "0.00000000", "0.00000000"], "qubits": [4], "params": [0.513126800086333, 0.0, 0.0]}, {"name": "u3", "texparams": ["1.18682389", "0.00000000", "0.00000000"], "qubits": [3], "params": [1.186823891356144, 0.0, 0.0]}, {"name": "cx", "texparams": [], "qubits": [3, 4], "params": []}, {"name": "u3", "texparams": ["1.03323492", "0.00000000", "0.00000000"], "qubits": [3], "params": [1.033234917180643, 0.0, 0.0]}, {"name": "u3", "texparams": ["1.57079633", "0.00000000", "0.00000000"], "qubits": [4], "params": [1.570796326794897, 0.0, 0.0]}, {"name": "measure", "clbits": [4], "qubits": [4]}, {"name": "u3", "texparams": ["0.05235988", "0.00000000", "0.00000000"], "qubits": [2], "params": [0.05235987755983, 0.0, 0.0]}, {"name": "cx", "texparams": [], "qubits": [3, 2], "params": []}, {"name": "u3", "texparams": ["1.57079633", "0.00000000", "0.00000000"], "qubits": [2], "params": [1.570796326794897, 0.0, 0.0]}, {"name": "measure", "clbits": [2], "qubits": [2]}, {"name": "u3", "texparams": ["-(1.57079633)", "0.00000000", "0.00000000"], "qubits": [3], "params": [-1.570796326794897, 0.0, 0.0]}, {"name": "measure", "clbits": [3], "qubits": [3]}]}
p1118
g41
tp1119
Rp1120
sg44
g1115
sasg4
VniNwjG0ufNy8Vw3g9ZTaDJE8ma8LFE
p1121
sg44
(dp1122
g59
g60
sg61
L1024L
sg62
L10L
sssg63
(lp1123
L3L
aL4L
aL3L
aL2L
aL4L
aL2L
asg59
g60
sg61
L1024L
sg65
L0L
sa(dp1124
g2
(lp1125
F0.2842702926330613
aF0.37043698321904195
aF0.4497283684522119
aF0.5502716315477881
aF0.629563016780958
aF0.7157297073669386
asg4
g5
sg6
g7
sVmain-counts
p1126
(dp1127
g10
(dp1128
V01000
p1129
L2L
sV11000
p1130
L4L
sV01100
p1131
L124L
sV11100
p1132
L357L
sV00000
p1133
L524L
sV10000
p1134
L3L
sV00100
p1135
L10L
sssg13
(lp1136
F37.7
aF8.8
aF18.2
aF7.9
asg15
I00
sg16
g17
sVerr-counts
p1137
(dp1138
g10
(dp1139
V01000
p1140
L18L
sV11000
p1141
L248L
sV01100
p1142
L179L
sV11100
p1143
L22L
sV10100
p1144
L397L
sV00000
p1145
L106L
sV00100
p1146
L45L
sV10000
p1147
L9L
sssg29
(dp1148
g31
(lp1149
(dp1150
g34
VOPENQASM 2.0;\u000ainclude "qelib1.inc";\u000aqreg main_qr[5];\u000acreg main_cr[5];\u000au3(0.307177948351002,0.0,0.0) main_qr[4];\u000au3(1.315978256003725,0.0,0.0) main_qr[3];\u000acx main_qr[3],main_qr[4];\u000au3(0.635299847725936,0.0,0.0) main_qr[3];\u000ameasure main_qr[4] -> main_cr[4];\u000au3(0.275762021815104,0.0,0.0) main_qr[2];\u000acx main_qr[3],main_qr[2];\u000ameasure main_qr[2] -> main_cr[2];\u000ameasure main_qr[3] -> main_cr[3];\u000a
p1151
sg36
g37
sg38
g39
(V{"header": {"number_of_clbits": 5, "qubit_labels": [["main_qr", 0], ["main_qr", 1], ["main_qr", 2], ["main_qr", 3], ["main_qr", 4]], "number_of_qubits": 5, "clbit_labels": [["main_cr", 5]]}, "operations": [{"name": "u3", "texparams": ["0.30717795", "0.00000000", "0.00000000"], "qubits": [4], "params": [0.307177948351002, 0.0, 0.0]}, {"name": "u3", "texparams": ["1.31597826", "0.00000000", "0.00000000"], "qubits": [3], "params": [1.315978256003725, 0.0, 0.0]}, {"name": "cx", "texparams": [], "qubits": [3, 4], "params": []}, {"name": "u3", "texparams": ["0.63529985", "0.00000000", "0.00000000"], "qubits": [3], "params": [0.635299847725936, 0.0, 0.0]}, {"name": "measure", "clbits": [4], "qubits": [4]}, {"name": "u3", "texparams": ["0.27576202", "0.00000000", "0.00000000"], "qubits": [2], "params": [0.275762021815104, 0.0, 0.0]}, {"name": "cx", "texparams": [], "qubits": [3, 2], "params": []}, {"name": "measure", "clbits": [2], "qubits": [2]}, {"name": "measure", "clbits": [3], "qubits": [3]}]}
p1152
g41
tp1153
Rp1154
sg44
(dp1155
g46
Nsg47
g48
sg49
Nsg50
Nssa(dp1156
g34
VOPENQASM 2.0;\u000ainclude "qelib1.inc";\u000aqreg err_qr[5];\u000acreg err_cr[5];\u000au3(0.307177948351002,0.0,0.0) err_qr[4];\u000au3(1.315978256003725,0.0,0.0) err_qr[3];\u000acx err_qr[3],err_qr[4];\u000au3(0.635299847725936,0.0,0.0) err_qr[3];\u000au3(1.570796326794897,0.0,0.0) err_qr[4];\u000ameasure err_qr[4] -> err_cr[4];\u000au3(0.275762021815104,0.0,0.0) err_qr[2];\u000acx err_qr[3],err_qr[2];\u000au3(1.570796326794897,0.0,0.0) err_qr[2];\u000ameasure err_qr[2] -> err_cr[2];\u000au3(-1.570796326794897,0.0,0.0) err_qr[3];\u000ameasure err_qr[3] -> err_cr[3];\u000a
p1157
sg36
g53
sg38
g39
(V{"header": {"number_of_clbits": 5, "qubit_labels": [["err_qr", 0], ["err_qr", 1], ["err_qr", 2], ["err_qr", 3], ["err_qr", 4]], "number_of_qubits": 5, "clbit_labels": [["err_cr", 5]]}, "operations": [{"name": "u3", "texparams": ["0.30717795", "0.00000000", "0.00000000"], "qubits": [4], "params": [0.307177948351002, 0.0, 0.0]}, {"name": "u3", "texparams": ["1.31597826", "0.00000000", "0.00000000"], "qubits": [3], "params": [1.315978256003725, 0.0, 0.0]}, {"name": "cx", "texparams": [], "qubits": [3, 4], "params": []}, {"name": "u3", "texparams": ["0.63529985", "0.00000000", "0.00000000"], "qubits": [3], "params": [0.635299847725936, 0.0, 0.0]}, {"name": "u3", "texparams": ["1.57079633", "0.00000000", "0.00000000"], "qubits": [4], "params": [1.570796326794897, 0.0, 0.0]}, {"name": "measure", "clbits": [4], "qubits": [4]}, {"name": "u3", "texparams": ["0.27576202", "0.00000000", "0.00000000"], "qubits": [2], "params": [0.275762021815104, 0.0, 0.0]}, {"name": "cx", "texparams": [], "qubits": [3, 2], "params": []}, {"name": "u3", "texparams": ["1.57079633", "0.00000000", "0.00000000"], "qubits": [2], "params": [1.570796326794897, 0.0, 0.0]}, {"name": "measure", "clbits": [2], "qubits": [2]}, {"name": "u3", "texparams": ["-(1.57079633)", "0.00000000", "0.00000000"], "qubits": [3], "params": [-1.570796326794897, 0.0, 0.0]}, {"name": "measure", "clbits": [3], "qubits": [3]}]}
p1158
g41
tp1159
Rp1160
sg44
g1155
sasg4
VUpvHzJvPUQ5D2pg5mYDxKKfsLR0c7n
p1161
sg44
(dp1162
g59
g60
sg61
L1024L
sg62
L10L
sssg63
(lp1163
L3L
aL4L
aL3L
aL2L
aL4L
aL2L
asg59
g60
sg61
L1024L
sg65
L0L
sa(dp1164
g2
(lp1165
F0.36048479366803216
aF0.38318336679454834
aF0.4055204170121264
aF0.5944795829878736
aF0.6168166332054517
aF0.6395152063319678
asg4
g5
sg6
g7
sVmain-counts
p1166
(dp1167
g10
(dp1168
V00000
p1169
L604L
sV11000
p1170
L1L
sV01100
p1171
L11L
sV11100
p1172
L404L
sV10000
p1173
L4L
sssg13
(lp1174
F39.9
aF5.9
aF1.8
aF3.3
asg15
I00
sg16
g17
sVerr-counts
p1175
(dp1176
g10
(dp1177
V01000
p1178
L2L
sV11000
p1179
L266L
sV01100
p1180
L232L
sV00000
p1181
L174L
sV00100
p1182
L5L
sV10100
p1183
L345L
sssg29
(dp1184
g31
(lp1185
(dp1186
g34
VOPENQASM 2.0;\u000ainclude "qelib1.inc";\u000aqreg main_qr[5];\u000acreg main_cr[5];\u000au3(0.205948851735331,0.0,0.0) main_qr[4];\u000au3(1.392772743091475,0.0,0.0) main_qr[3];\u000acx main_qr[3],main_qr[4];\u000au3(0.062831853071796,0.0,0.0) main_qr[3];\u000ameasure main_qr[4] -> main_cr[4];\u000au3(0.115191730631626,0.0,0.0) main_qr[2];\u000acx main_qr[3],main_qr[2];\u000ameasure main_qr[2] -> main_cr[2];\u000ameasure main_qr[3] -> main_cr[3];\u000a
p1187
sg36
g37
sg38
g39
(V{"header": {"number_of_clbits": 5, "qubit_labels": [["main_qr", 0], ["main_qr", 1], ["main_qr", 2], ["main_qr", 3], ["main_qr", 4]], "number_of_qubits": 5, "clbit_labels": [["main_cr", 5]]}, "operations": [{"name": "u3", "texparams": ["0.20594885", "0.00000000", "0.00000000"], "qubits": [4], "params": [0.205948851735331, 0.0, 0.0]}, {"name": "u3", "texparams": ["1.39277274", "0.00000000", "0.00000000"], "qubits": [3], "params": [1.392772743091475, 0.0, 0.0]}, {"name": "cx", "texparams": [], "qubits": [3, 4], "params": []}, {"name": "u3", "texparams": ["0.06283185", "0.00000000", "0.00000000"], "qubits": [3], "params": [0.062831853071796, 0.0, 0.0]}, {"name": "measure", "clbits": [4], "qubits": [4]}, {"name": "u3", "texparams": ["0.11519173", "0.00000000", "0.00000000"], "qubits": [2], "params": [0.115191730631626, 0.0, 0.0]}, {"name": "cx", "texparams": [], "qubits": [3, 2], "params": []}, {"name": "measure", "clbits": [2], "qubits": [2]}, {"name": "measure", "clbits": [3], "qubits": [3]}]}
p1188
g41
tp1189
Rp1190
sg44
(dp1191
g46
Nsg47
g48
sg49
Nsg50
Nssa(dp1192
g34
VOPENQASM 2.0;\u000ainclude "qelib1.inc";\u000aqreg err_qr[5];\u000acreg err_cr[5];\u000au3(0.205948851735331,0.0,0.0) err_qr[4];\u000au3(1.392772743091475,0.0,0.0) err_qr[3];\u000acx err_qr[3],err_qr[4];\u000au3(0.062831853071796,0.0,0.0) err_qr[3];\u000au3(1.570796326794897,0.0,0.0) err_qr[4];\u000ameasure err_qr[4] -> err_cr[4];\u000au3(0.115191730631626,0.0,0.0) err_qr[2];\u000acx err_qr[3],err_qr[2];\u000au3(1.570796326794897,0.0,0.0) err_qr[2];\u000ameasure err_qr[2] -> err_cr[2];\u000au3(-1.570796326794897,0.0,0.0) err_qr[3];\u000ameasure err_qr[3] -> err_cr[3];\u000a
p1193
sg36
g53
sg38
g39
(V{"header": {"number_of_clbits": 5, "qubit_labels": [["err_qr", 0], ["err_qr", 1], ["err_qr", 2], ["err_qr", 3], ["err_qr", 4]], "number_of_qubits": 5, "clbit_labels": [["err_cr", 5]]}, "operations": [{"name": "u3", "texparams": ["0.20594885", "0.00000000", "0.00000000"], "qubits": [4], "params": [0.205948851735331, 0.0, 0.0]}, {"name": "u3", "texparams": ["1.39277274", "0.00000000", "0.00000000"], "qubits": [3], "params": [1.392772743091475, 0.0, 0.0]}, {"name": "cx", "texparams": [], "qubits": [3, 4], "params": []}, {"name": "u3", "texparams": ["0.06283185", "0.00000000", "0.00000000"], "qubits": [3], "params": [0.062831853071796, 0.0, 0.0]}, {"name": "u3", "texparams": ["1.57079633", "0.00000000", "0.00000000"], "qubits": [4], "params": [1.570796326794897, 0.0, 0.0]}, {"name": "measure", "clbits": [4], "qubits": [4]}, {"name": "u3", "texparams": ["0.11519173", "0.00000000", "0.00000000"], "qubits": [2], "params": [0.115191730631626, 0.0, 0.0]}, {"name": "cx", "texparams": [], "qubits": [3, 2], "params": []}, {"name": "u3", "texparams": ["1.57079633", "0.00000000", "0.00000000"], "qubits": [2], "params": [1.570796326794897, 0.0, 0.0]}, {"name": "measure", "clbits": [2], "qubits": [2]}, {"name": "u3", "texparams": ["-(1.57079633)", "0.00000000", "0.00000000"], "qubits": [3], "params": [-1.570796326794897, 0.0, 0.0]}, {"name": "measure", "clbits": [3], "qubits": [3]}]}
p1194
g41
tp1195
Rp1196
sg44
g1191
sasg4
VTZR4kjYDrWnbMep3qrjIAm8umSmbHU
p1197
sg44
(dp1198
g59
g60
sg61
L1024L
sg62
L10L
sssg63
(lp1199
L3L
aL4L
aL3L
aL2L
aL4L
aL2L
asg59
g60
sg61
L1024L
sg65
L0L
sa(dp1200
g2
(lp1201
F0.4546029714876193
aF0.45861402324137285
aF0.47996261276495783
aF0.5200373872350422
aF0.5413859767586271
aF0.5453970285123807
asg4
g5
sg6
g7
sVmain-counts
p1202
(dp1203
g10
(dp1204
V11000
p1205
L1L
sV01100
p1206
L129L
sV11100
p1207
L368L
sV00000
p1208
L426L
sV10000
p1209
L99L
sV00100
p1210
L1L
sssg13
(lp1211
F43.4
aF1.2
aF27.5
aF3.6
asg15
I00
sg16
g17
sVerr-counts
p1212
(dp1213
g10
(dp1214
V01000
p1215
L49L
sV11000
p1216
L209L
sV01100
p1217
L201L
sV11100
p1218
L68L
sV10100
p1219
L209L
sV00000
p1220
L173L
sV00100
p1221
L74L
sV10000
p1222
L41L
sssg29
(dp1223
g31
(lp1224
(dp1225
g34
VOPENQASM 2.0;\u000ainclude "qelib1.inc";\u000aqreg main_qr[5];\u000acreg main_cr[5];\u000au3(0.041887902047864,0.0,0.0) main_qr[4];\u000au3(1.514945790731078,0.0,0.0) main_qr[3];\u000acx main_qr[3],main_qr[4];\u000au3(0.959931088596881,0.0,0.0) main_qr[3];\u000ameasure main_qr[4] -> main_cr[4];\u000au3(0.125663706143592,0.0,0.0) main_qr[2];\u000acx main_qr[3],main_qr[2];\u000ameasure main_qr[2] -> main_cr[2];\u000ameasure main_qr[3] -> main_cr[3];\u000a
p1226
sg36
g37
sg38
g39
(V{"header": {"number_of_clbits": 5, "qubit_labels": [["main_qr", 0], ["main_qr", 1], ["main_qr", 2], ["main_qr", 3], ["main_qr", 4]], "number_of_qubits": 5, "clbit_labels": [["main_cr", 5]]}, "operations": [{"name": "u3", "texparams": ["0.04188790", "0.00000000", "0.00000000"], "qubits": [4], "params": [0.041887902047864, 0.0, 0.0]}, {"name": "u3", "texparams": ["1.51494579", "0.00000000", "0.00000000"], "qubits": [3], "params": [1.514945790731078, 0.0, 0.0]}, {"name": "cx", "texparams": [], "qubits": [3, 4], "params": []}, {"name": "u3", "texparams": ["0.95993109", "0.00000000", "0.00000000"], "qubits": [3], "params": [0.959931088596881, 0.0, 0.0]}, {"name": "measure", "clbits": [4], "qubits": [4]}, {"name": "u3", "texparams": ["0.12566371", "0.00000000", "0.00000000"], "qubits": [2], "params": [0.125663706143592, 0.0, 0.0]}, {"name": "cx", "texparams": [], "qubits": [3, 2], "params": []}, {"name": "measure", "clbits": [2], "qubits": [2]}, {"name": "measure", "clbits": [3], "qubits": [3]}]}
p1227
g41
tp1228
Rp1229
sg44
(dp1230
g46
Nsg47
g48
sg49
Nsg50
Nssa(dp1231
g34
VOPENQASM 2.0;\u000ainclude "qelib1.inc";\u000aqreg err_qr[5];\u000acreg err_cr[5];\u000au3(0.041887902047864,0.0,0.0) err_qr[4];\u000au3(1.514945790731078,0.0,0.0) err_qr[3];\u000acx err_qr[3],err_qr[4];\u000au3(0.959931088596881,0.0,0.0) err_qr[3];\u000au3(1.570796326794897,0.0,0.0) err_qr[4];\u000ameasure err_qr[4] -> err_cr[4];\u000au3(0.125663706143592,0.0,0.0) err_qr[2];\u000acx err_qr[3],err_qr[2];\u000au3(1.570796326794897,0.0,0.0) err_qr[2];\u000ameasure err_qr[2] -> err_cr[2];\u000au3(-1.570796326794897,0.0,0.0) err_qr[3];\u000ameasure err_qr[3] -> err_cr[3];\u000a
p1232
sg36
g53
sg38
g39
(V{"header": {"number_of_clbits": 5, "qubit_labels": [["err_qr", 0], ["err_qr", 1], ["err_qr", 2], ["err_qr", 3], ["err_qr", 4]], "number_of_qubits": 5, "clbit_labels": [["err_cr", 5]]}, "operations": [{"name": "u3", "texparams": ["0.04188790", "0.00000000", "0.00000000"], "qubits": [4], "params": [0.041887902047864, 0.0, 0.0]}, {"name": "u3", "texparams": ["1.51494579", "0.00000000", "0.00000000"], "qubits": [3], "params": [1.514945790731078, 0.0, 0.0]}, {"name": "cx", "texparams": [], "qubits": [3, 4], "params": []}, {"name": "u3", "texparams": ["0.95993109", "0.00000000", "0.00000000"], "qubits": [3], "params": [0.959931088596881, 0.0, 0.0]}, {"name": "u3", "texparams": ["1.57079633", "0.00000000", "0.00000000"], "qubits": [4], "params": [1.570796326794897, 0.0, 0.0]}, {"name": "measure", "clbits": [4], "qubits": [4]}, {"name": "u3", "texparams": ["0.12566371", "0.00000000", "0.00000000"], "qubits": [2], "params": [0.125663706143592, 0.0, 0.0]}, {"name": "cx", "texparams": [], "qubits": [3, 2], "params": []}, {"name": "u3", "texparams": ["1.57079633", "0.00000000", "0.00000000"], "qubits": [2], "params": [1.570796326794897, 0.0, 0.0]}, {"name": "measure", "clbits": [2], "qubits": [2]}, {"name": "u3", "texparams": ["-(1.57079633)", "0.00000000", "0.00000000"], "qubits": [3], "params": [-1.570796326794897, 0.0, 0.0]}, {"name": "measure", "clbits": [3], "qubits": [3]}]}
p1233
g41
tp1234
Rp1235
sg44
g1230
sasg4
VGrQjZDS18i0ovfuNC4HyNHJGOCUR8h
p1236
sg44
(dp1237
g59
g60
sg61
L1024L
sg62
L10L
sssg63
(lp1238
L3L
aL4L
aL3L
aL2L
aL4L
aL2L
asg59
g60
sg61
L1024L
sg65
L0L
sa(dp1239
g2
(lp1240
F0.06729354229450307
aF0.18013441047632503
aF0.23759709291905462
aF0.7624029070809454
aF0.819865589523675
aF0.9327064577054971
asg4
g5
sg6
g7
sVmain-counts
p1241
(dp1242
g10
(dp1243
V01000
p1244
L113L
sV11000
p1245
L36L
sV01100
p1246
L304L
sV11100
p1247
L97L
sV10100
p1248
L12L
sV00000
p1249
L309L
sV00100
p1250
L108L
sV10000
p1251
L45L
sssg13
(lp1252
F26.1
aF3.3
aF41.3
aF30.8
asg15
I00
sg16
g17
sVerr-counts
p1253
(dp1254
g10
(dp1255
V01000
p1256
L21L
sV11000
p1257
L34L
sV01100
p1258
L108L
sV11100
p1259
L83L
sV10100
p1260
L450L
sV00000
p1261
L9L
sV00100
p1262
L314L
sV10000
p1263
L5L
sssg29
(dp1264
g31
(lp1265
(dp1266
g34
VOPENQASM 2.0;\u000ainclude "qelib1.inc";\u000aqreg main_qr[5];\u000acreg main_cr[5];\u000au3(0.115191730631626,0.0,0.0) main_qr[4];\u000au3(0.91106186954104,0.0,0.0) main_qr[3];\u000acx main_qr[3],main_qr[4];\u000au3(1.441641962147316,0.0,0.0) main_qr[3];\u000ameasure main_qr[4] -> main_cr[4];\u000au3(1.075122819228507,0.0,0.0) main_qr[2];\u000acx main_qr[3],main_qr[2];\u000ameasure main_qr[2] -> main_cr[2];\u000ameasure main_qr[3] -> main_cr[3];\u000a
p1267
sg36
g37
sg38
g39
(V{"header": {"number_of_clbits": 5, "qubit_labels": [["main_qr", 0], ["main_qr", 1], ["main_qr", 2], ["main_qr", 3], ["main_qr", 4]], "number_of_qubits": 5, "clbit_labels": [["main_cr", 5]]}, "operations": [{"name": "u3", "texparams": ["0.11519173", "0.00000000", "0.00000000"], "qubits": [4], "params": [0.115191730631626, 0.0, 0.0]}, {"name": "u3", "texparams": ["0.91106187", "0.00000000", "0.00000000"], "qubits": [3], "params": [0.91106186954104, 0.0, 0.0]}, {"name": "cx", "texparams": [], "qubits": [3, 4], "params": []}, {"name": "u3", "texparams": ["1.44164196", "0.00000000", "0.00000000"], "qubits": [3], "params": [1.441641962147316, 0.0, 0.0]}, {"name": "measure", "clbits": [4], "qubits": [4]}, {"name": "u3", "texparams": ["1.07512282", "0.00000000", "0.00000000"], "qubits": [2], "params": [1.075122819228507, 0.0, 0.0]}, {"name": "cx", "texparams": [], "qubits": [3, 2], "params": []}, {"name": "measure", "clbits": [2], "qubits": [2]}, {"name": "measure", "clbits": [3], "qubits": [3]}]}
p1268
g41
tp1269
Rp1270
sg44
(dp1271
g46
Nsg47
g48
sg49
Nsg50
Nssa(dp1272
g34
VOPENQASM 2.0;\u000ainclude "qelib1.inc";\u000aqreg err_qr[5];\u000acreg err_cr[5];\u000au3(0.115191730631626,0.0,0.0) err_qr[4];\u000au3(0.91106186954104,0.0,0.0) err_qr[3];\u000acx err_qr[3],err_qr[4];\u000au3(1.441641962147316,0.0,0.0) err_qr[3];\u000au3(1.570796326794897,0.0,0.0) err_qr[4];\u000ameasure err_qr[4] -> err_cr[4];\u000au3(1.075122819228507,0.0,0.0) err_qr[2];\u000acx err_qr[3],err_qr[2];\u000au3(1.570796326794897,0.0,0.0) err_qr[2];\u000ameasure err_qr[2] -> err_cr[2];\u000au3(-1.570796326794897,0.0,0.0) err_qr[3];\u000ameasure err_qr[3] -> err_cr[3];\u000a
p1273
sg36
g53
sg38
g39
(V{"header": {"number_of_clbits": 5, "qubit_labels": [["err_qr", 0], ["err_qr", 1], ["err_qr", 2], ["err_qr", 3], ["err_qr", 4]], "number_of_qubits": 5, "clbit_labels": [["err_cr", 5]]}, "operations": [{"name": "u3", "texparams": ["0.11519173", "0.00000000", "0.00000000"], "qubits": [4], "params": [0.115191730631626, 0.0, 0.0]}, {"name": "u3", "texparams": ["0.91106187", "0.00000000", "0.00000000"], "qubits": [3], "params": [0.91106186954104, 0.0, 0.0]}, {"name": "cx", "texparams": [], "qubits": [3, 4], "params": []}, {"name": "u3", "texparams": ["1.44164196", "0.00000000", "0.00000000"], "qubits": [3], "params": [1.441641962147316, 0.0, 0.0]}, {"name": "u3", "texparams": ["1.57079633", "0.00000000", "0.00000000"], "qubits": [4], "params": [1.570796326794897, 0.0, 0.0]}, {"name": "measure", "clbits": [4], "qubits": [4]}, {"name": "u3", "texparams": ["1.07512282", "0.00000000", "0.00000000"], "qubits": [2], "params": [1.075122819228507, 0.0, 0.0]}, {"name": "cx", "texparams": [], "qubits": [3, 2], "params": []}, {"name": "u3", "texparams": ["1.57079633", "0.00000000", "0.00000000"], "qubits": [2], "params": [1.570796326794897, 0.0, 0.0]}, {"name": "measure", "clbits": [2], "qubits": [2]}, {"name": "u3", "texparams": ["-(1.57079633)", "0.00000000", "0.00000000"], "qubits": [3], "params": [-1.570796326794897, 0.0, 0.0]}, {"name": "measure", "clbits": [3], "qubits": [3]}]}
p1274
g41
tp1275
Rp1276
sg44
g1271
sasg4
VAVoDt7x5kfYI9qUeFkLvfoJ4Rs2zCp
p1277
sg44
(dp1278
g59
g60
sg61
L1024L
sg62
L10L
sssg63
(lp1279
L3L
aL4L
aL3L
aL2L
aL4L
aL2L
asg59
g60
sg61
L1024L
sg65
L0L
sa(dp1280
g2
(lp1281
F0.1232936263406651
aF0.14197295511628727
aF0.14520528792028684
aF0.8547947120797132
aF0.8580270448837127
aF0.8767063736593348
asg4
g5
sg6
g7
sVmain-counts
p1282
(dp1283
g10
(dp1284
V01000
p1285
L6L
sV11000
p1286
L6L
sV01100
p1287
L450L
sV11100
p1288
L413L
sV10100
p1289
L1L
sV00000
p1290
L79L
sV00100
p1291
L1L
sV10000
p1292
L68L
sssg13
(lp1293
F45.0
aF24.1
aF44.9
aF7.0
asg15
I00
sg16
g17
sVerr-counts
p1294
(dp1295
g10
(dp1296
V01000
p1297
L30L
sV11000
p1298
L181L
sV01100
p1299
L34L
sV11100
p1300
L252L
sV10100
p1301
L291L
sV00000
p1302
L29L
sV00100
p1303
L34L
sV10000
p1304
L173L
sssg29
(dp1305
g31
(lp1306
(dp1307
g34
VOPENQASM 2.0;\u000ainclude "qelib1.inc";\u000aqreg main_qr[5];\u000acreg main_cr[5];\u000au3(0.841248699461267,0.0,0.0) main_qr[4];\u000au3(1.570796326794897,0.0,0.0) main_qr[3];\u000acx main_qr[3],main_qr[4];\u000au3(1.567305668290908,0.0,0.0) main_qr[3];\u000ameasure main_qr[4] -> main_cr[4];\u000au3(0.244346095279206,0.0,0.0) main_qr[2];\u000acx main_qr[3],main_qr[2];\u000ameasure main_qr[2] -> main_cr[2];\u000ameasure main_qr[3] -> main_cr[3];\u000a
p1308
sg36
g37
sg38
g39
(V{"header": {"number_of_clbits": 5, "qubit_labels": [["main_qr", 0], ["main_qr", 1], ["main_qr", 2], ["main_qr", 3], ["main_qr", 4]], "number_of_qubits": 5, "clbit_labels": [["main_cr", 5]]}, "operations": [{"name": "u3", "texparams": ["0.84124870", "0.00000000", "0.00000000"], "qubits": [4], "params": [0.841248699461267, 0.0, 0.0]}, {"name": "u3", "texparams": ["1.57079633", "0.00000000", "0.00000000"], "qubits": [3], "params": [1.570796326794897, 0.0, 0.0]}, {"name": "cx", "texparams": [], "qubits": [3, 4], "params": []}, {"name": "u3", "texparams": ["1.56730567", "0.00000000", "0.00000000"], "qubits": [3], "params": [1.567305668290908, 0.0, 0.0]}, {"name": "measure", "clbits": [4], "qubits": [4]}, {"name": "u3", "texparams": ["0.24434610", "0.00000000", "0.00000000"], "qubits": [2], "params": [0.244346095279206, 0.0, 0.0]}, {"name": "cx", "texparams": [], "qubits": [3, 2], "params": []}, {"name": "measure", "clbits": [2], "qubits": [2]}, {"name": "measure", "clbits": [3], "qubits": [3]}]}
p1309
g41
tp1310
Rp1311
sg44
(dp1312
g46
Nsg47
g48
sg49
Nsg50
Nssa(dp1313
g34
VOPENQASM 2.0;\u000ainclude "qelib1.inc";\u000aqreg err_qr[5];\u000acreg err_cr[5];\u000au3(0.841248699461267,0.0,0.0) err_qr[4];\u000au3(1.570796326794897,0.0,0.0) err_qr[3];\u000acx err_qr[3],err_qr[4];\u000au3(1.567305668290908,0.0,0.0) err_qr[3];\u000au3(1.570796326794897,0.0,0.0) err_qr[4];\u000ameasure err_qr[4] -> err_cr[4];\u000au3(0.244346095279206,0.0,0.0) err_qr[2];\u000acx err_qr[3],err_qr[2];\u000au3(1.570796326794897,0.0,0.0) err_qr[2];\u000ameasure err_qr[2] -> err_cr[2];\u000au3(-1.570796326794897,0.0,0.0) err_qr[3];\u000ameasure err_qr[3] -> err_cr[3];\u000a
p1314
sg36
g53
sg38
g39
(V{"header": {"number_of_clbits": 5, "qubit_labels": [["err_qr", 0], ["err_qr", 1], ["err_qr", 2], ["err_qr", 3], ["err_qr", 4]], "number_of_qubits": 5, "clbit_labels": [["err_cr", 5]]}, "operations": [{"name": "u3", "texparams": ["0.84124870", "0.00000000", "0.00000000"], "qubits": [4], "params": [0.841248699461267, 0.0, 0.0]}, {"name": "u3", "texparams": ["1.57079633", "0.00000000", "0.00000000"], "qubits": [3], "params": [1.570796326794897, 0.0, 0.0]}, {"name": "cx", "texparams": [], "qubits": [3, 4], "params": []}, {"name": "u3", "texparams": ["1.56730567", "0.00000000", "0.00000000"], "qubits": [3], "params": [1.567305668290908, 0.0, 0.0]}, {"name": "u3", "texparams": ["1.57079633", "0.00000000", "0.00000000"], "qubits": [4], "params": [1.570796326794897, 0.0, 0.0]}, {"name": "measure", "clbits": [4], "qubits": [4]}, {"name": "u3", "texparams": ["0.24434610", "0.00000000", "0.00000000"], "qubits": [2], "params": [0.244346095279206, 0.0, 0.0]}, {"name": "cx", "texparams": [], "qubits": [3, 2], "params": []}, {"name": "u3", "texparams": ["1.57079633", "0.00000000", "0.00000000"], "qubits": [2], "params": [1.570796326794897, 0.0, 0.0]}, {"name": "measure", "clbits": [2], "qubits": [2]}, {"name": "u3", "texparams": ["-(1.57079633)", "0.00000000", "0.00000000"], "qubits": [3], "params": [-1.570796326794897, 0.0, 0.0]}, {"name": "measure", "clbits": [3], "qubits": [3]}]}
p1315
g41
tp1316
Rp1317
sg44
g1312
sasg4
VtmcGG9b7bY7LKinRrtD0o5LzdAeN0y
p1318
sg44
(dp1319
g59
g60
sg61
L1024L
sg62
L10L
sssg63
(lp1320
L3L
aL4L
aL3L
aL2L
aL4L
aL2L
asg59
g60
sg61
L1024L
sg65
L0L
sa(dp1321
g2
(lp1322
F0.27617962968821647
aF0.2767256899204391
aF0.40395370042215234
aF0.5960462995778476
aF0.7232743100795609
aF0.7238203703117835
asg4
g5
sg6
g7
sVmain-counts
p1323
(dp1324
g10
(dp1325
V01000
p1326
L8L
sV11000
p1327
L10L
sV01100
p1328
L227L
sV11100
p1329
L334L
sV00000
p1330
L402L
sV10000
p1331
L20L
sV00100
p1332
L23L
sssg13
(lp1333
F36.5
aF9.7
aF29.5
aF12.1
asg15
I00
sg16
g17
sVerr-counts
p1334
(dp1335
g10
(dp1336
V01000
p1337
L36L
sV11000
p1338
L180L
sV01100
p1339
L161L
sV11100
p1340
L63L
sV10100
p1341
L415L
sV00000
p1342
L50L
sV00100
p1343
L90L
sV10000
p1344
L29L
sssg29
(dp1345
g31
(lp1346
(dp1347
g34
VOPENQASM 2.0;\u000ainclude "qelib1.inc";\u000aqreg main_qr[5];\u000acreg main_cr[5];\u000au3(0.3385938748869,0.0,0.0) main_qr[4];\u000au3(1.274090353955861,0.0,0.0) main_qr[3];\u000acx main_qr[3],main_qr[4];\u000au3(1.029744258676654,0.0,0.0) main_qr[3];\u000ameasure main_qr[4] -> main_cr[4];\u000au3(0.422369678982628,0.0,0.0) main_qr[2];\u000acx main_qr[3],main_qr[2];\u000ameasure main_qr[2] -> main_cr[2];\u000ameasure main_qr[3] -> main_cr[3];\u000a
p1348
sg36
g37
sg38
g39
(V{"header": {"number_of_clbits": 5, "qubit_labels": [["main_qr", 0], ["main_qr", 1], ["main_qr", 2], ["main_qr", 3], ["main_qr", 4]], "number_of_qubits": 5, "clbit_labels": [["main_cr", 5]]}, "operations": [{"name": "u3", "texparams": ["0.33859387", "0.00000000", "0.00000000"], "qubits": [4], "params": [0.3385938748869, 0.0, 0.0]}, {"name": "u3", "texparams": ["1.27409035", "0.00000000", "0.00000000"], "qubits": [3], "params": [1.274090353955861, 0.0, 0.0]}, {"name": "cx", "texparams": [], "qubits": [3, 4], "params": []}, {"name": "u3", "texparams": ["1.02974426", "0.00000000", "0.00000000"], "qubits": [3], "params": [1.029744258676654, 0.0, 0.0]}, {"name": "measure", "clbits": [4], "qubits": [4]}, {"name": "u3", "texparams": ["0.42236968", "0.00000000", "0.00000000"], "qubits": [2], "params": [0.422369678982628, 0.0, 0.0]}, {"name": "cx", "texparams": [], "qubits": [3, 2], "params": []}, {"name": "measure", "clbits": [2], "qubits": [2]}, {"name": "measure", "clbits": [3], "qubits": [3]}]}
p1349
g41
tp1350
Rp1351
sg44
(dp1352
g46
Nsg47
g48
sg49
Nsg50
Nssa(dp1353
g34
VOPENQASM 2.0;\u000ainclude "qelib1.inc";\u000aqreg err_qr[5];\u000acreg err_cr[5];\u000au3(0.3385938748869,0.0,0.0) err_qr[4];\u000au3(1.274090353955861,0.0,0.0) err_qr[3];\u000acx err_qr[3],err_qr[4];\u000au3(1.029744258676654,0.0,0.0) err_qr[3];\u000au3(1.570796326794897,0.0,0.0) err_qr[4];\u000ameasure err_qr[4] -> err_cr[4];\u000au3(0.422369678982628,0.0,0.0) err_qr[2];\u000acx err_qr[3],err_qr[2];\u000au3(1.570796326794897,0.0,0.0) err_qr[2];\u000ameasure err_qr[2] -> err_cr[2];\u000au3(-1.570796326794897,0.0,0.0) err_qr[3];\u000ameasure err_qr[3] -> err_cr[3];\u000a
p1354
sg36
g53
sg38
g39
(V{"header": {"number_of_clbits": 5, "qubit_labels": [["err_qr", 0], ["err_qr", 1], ["err_qr", 2], ["err_qr", 3], ["err_qr", 4]], "number_of_qubits": 5, "clbit_labels": [["err_cr", 5]]}, "operations": [{"name": "u3", "texparams": ["0.33859387", "0.00000000", "0.00000000"], "qubits": [4], "params": [0.3385938748869, 0.0, 0.0]}, {"name": "u3", "texparams": ["1.27409035", "0.00000000", "0.00000000"], "qubits": [3], "params": [1.274090353955861, 0.0, 0.0]}, {"name": "cx", "texparams": [], "qubits": [3, 4], "params": []}, {"name": "u3", "texparams": ["1.02974426", "0.00000000", "0.00000000"], "qubits": [3], "params": [1.029744258676654, 0.0, 0.0]}, {"name": "u3", "texparams": ["1.57079633", "0.00000000", "0.00000000"], "qubits": [4], "params": [1.570796326794897, 0.0, 0.0]}, {"name": "measure", "clbits": [4], "qubits": [4]}, {"name": "u3", "texparams": ["0.42236968", "0.00000000", "0.00000000"], "qubits": [2], "params": [0.422369678982628, 0.0, 0.0]}, {"name": "cx", "texparams": [], "qubits": [3, 2], "params": []}, {"name": "u3", "texparams": ["1.57079633", "0.00000000", "0.00000000"], "qubits": [2], "params": [1.570796326794897, 0.0, 0.0]}, {"name": "measure", "clbits": [2], "qubits": [2]}, {"name": "u3", "texparams": ["-(1.57079633)", "0.00000000", "0.00000000"], "qubits": [3], "params": [-1.570796326794897, 0.0, 0.0]}, {"name": "measure", "clbits": [3], "qubits": [3]}]}
p1355
g41
tp1356
Rp1357
sg44
g1352
sasg4
VsBCaR1OJi57okDBBDaH8F1W7b8Inxf
p1358
sg44
(dp1359
g59
g60
sg61
L1024L
sg62
L10L
sssg63
(lp1360
L3L
aL4L
aL3L
aL2L
aL4L
aL2L
asg59
g60
sg61
L1024L
sg65
L0L
sa(dp1361
g2
(lp1362
F0.1725237766189997
aF0.29344375689081
aF0.2990558023812565
aF0.7009441976187435
aF0.7065562431091901
aF0.8274762233810004
asg4
g5
sg6
g7
sVmain-counts
p1363
(dp1364
g10
(dp1365
V01000
p1366
L1L
sV11000
p1367
L4L
sV01100
p1368
L118L
sV11100
p1369
L191L
sV00000
p1370
L702L
sV10000
p1371
L2L
sV00100
p1372
L6L
sssg13
(lp1373
F26.7
aF6.2
aF19.9
aF4.8
asg15
I00
sg16
g17
sVerr-counts
p1374
(dp1375
g10
(dp1376
V01000
p1377
L70L
sV11000
p1378
L254L
sV01100
p1379
L131L
sV11100
p1380
L1L
sV00000
p1381
L111L
sV00100
p1382
L85L
sV10100
p1383
L372L
sssg29
(dp1384
g31
(lp1385
(dp1386
g34
VOPENQASM 2.0;\u000ainclude "qelib1.inc";\u000aqreg main_qr[5];\u000acreg main_cr[5];\u000au3(0.216420827247297,0.0,0.0) main_qr[4];\u000au3(0.932005820564972,0.0,0.0) main_qr[3];\u000acx main_qr[3],main_qr[4];\u000au3(0.694641042293743,0.0,0.0) main_qr[3];\u000ameasure main_qr[4] -> main_cr[4];\u000au3(0.167551608191456,0.0,0.0) main_qr[2];\u000acx main_qr[3],main_qr[2];\u000ameasure main_qr[2] -> main_cr[2];\u000ameasure main_qr[3] -> main_cr[3];\u000a
p1387
sg36
g37
sg38
g39
(V{"header": {"number_of_clbits": 5, "qubit_labels": [["main_qr", 0], ["main_qr", 1], ["main_qr", 2], ["main_qr", 3], ["main_qr", 4]], "number_of_qubits": 5, "clbit_labels": [["main_cr", 5]]}, "operations": [{"name": "u3", "texparams": ["0.21642083", "0.00000000", "0.00000000"], "qubits": [4], "params": [0.216420827247297, 0.0, 0.0]}, {"name": "u3", "texparams": ["0.93200582", "0.00000000", "0.00000000"], "qubits": [3], "params": [0.932005820564972, 0.0, 0.0]}, {"name": "cx", "texparams": [], "qubits": [3, 4], "params": []}, {"name": "u3", "texparams": ["0.69464104", "0.00000000", "0.00000000"], "qubits": [3], "params": [0.694641042293743, 0.0, 0.0]}, {"name": "measure", "clbits": [4], "qubits": [4]}, {"name": "u3", "texparams": ["0.16755161", "0.00000000", "0.00000000"], "qubits": [2], "params": [0.167551608191456, 0.0, 0.0]}, {"name": "cx", "texparams": [], "qubits": [3, 2], "params": []}, {"name": "measure", "clbits": [2], "qubits": [2]}, {"name": "measure", "clbits": [3], "qubits": [3]}]}
p1388
g41
tp1389
Rp1390
sg44
(dp1391
g46
Nsg47
g48
sg49
Nsg50
Nssa(dp1392
g34
VOPENQASM 2.0;\u000ainclude "qelib1.inc";\u000aqreg err_qr[5];\u000acreg err_cr[5];\u000au3(0.216420827247297,0.0,0.0) err_qr[4];\u000au3(0.932005820564972,0.0,0.0) err_qr[3];\u000acx err_qr[3],err_qr[4];\u000au3(0.694641042293743,0.0,0.0) err_qr[3];\u000au3(1.570796326794897,0.0,0.0) err_qr[4];\u000ameasure err_qr[4] -> err_cr[4];\u000au3(0.167551608191456,0.0,0.0) err_qr[2];\u000acx err_qr[3],err_qr[2];\u000au3(1.570796326794897,0.0,0.0) err_qr[2];\u000ameasure err_qr[2] -> err_cr[2];\u000au3(-1.570796326794897,0.0,0.0) err_qr[3];\u000ameasure err_qr[3] -> err_cr[3];\u000a
p1393
sg36
g53
sg38
g39
(V{"header": {"number_of_clbits": 5, "qubit_labels": [["err_qr", 0], ["err_qr", 1], ["err_qr", 2], ["err_qr", 3], ["err_qr", 4]], "number_of_qubits": 5, "clbit_labels": [["err_cr", 5]]}, "operations": [{"name": "u3", "texparams": ["0.21642083", "0.00000000", "0.00000000"], "qubits": [4], "params": [0.216420827247297, 0.0, 0.0]}, {"name": "u3", "texparams": ["0.93200582", "0.00000000", "0.00000000"], "qubits": [3], "params": [0.932005820564972, 0.0, 0.0]}, {"name": "cx", "texparams": [], "qubits": [3, 4], "params": []}, {"name": "u3", "texparams": ["0.69464104", "0.00000000", "0.00000000"], "qubits": [3], "params": [0.694641042293743, 0.0, 0.0]}, {"name": "u3", "texparams": ["1.57079633", "0.00000000", "0.00000000"], "qubits": [4], "params": [1.570796326794897, 0.0, 0.0]}, {"name": "measure", "clbits": [4], "qubits": [4]}, {"name": "u3", "texparams": ["0.16755161", "0.00000000", "0.00000000"], "qubits": [2], "params": [0.167551608191456, 0.0, 0.0]}, {"name": "cx", "texparams": [], "qubits": [3, 2], "params": []}, {"name": "u3", "texparams": ["1.57079633", "0.00000000", "0.00000000"], "qubits": [2], "params": [1.570796326794897, 0.0, 0.0]}, {"name": "measure", "clbits": [2], "qubits": [2]}, {"name": "u3", "texparams": ["-(1.57079633)", "0.00000000", "0.00000000"], "qubits": [3], "params": [-1.570796326794897, 0.0, 0.0]}, {"name": "measure", "clbits": [3], "qubits": [3]}]}
p1394
g41
tp1395
Rp1396
sg44
g1391
sasg4
VeuwHsWeKpOaDy2fPizwTZBlkk8ByO3
p1397
sg44
(dp1398
g59
g60
sg61
L1024L
sg62
L10L
sssg63
(lp1399
L3L
aL4L
aL3L
aL2L
aL4L
aL2L
asg59
g60
sg61
L1024L
sg65
L0L
sa(dp1400
g2
(lp1401
F0.08318166314335279
aF0.32051960814737923
aF0.35084146646121306
aF0.6491585335387867
aF0.6794803918526209
aF0.9168183368566472
asg4
g5
sg6
g7
sVmain-counts
p1402
(dp1403
g10
(dp1404
V01000
p1405
L21L
sV11000
p1406
L1L
sV01100
p1407
L421L
sV11100
p1408
L54L
sV10100
p1409
L3L
sV00000
p1410
L477L
sV00100
p1411
L17L
sV10000
p1412
L30L
sssg13
(lp1413
F18.6
aF2.1
aF43.4
aF11.2
asg15
I00
sg16
g17
sVerr-counts
p1414
(dp1415
g10
(dp1416
V01000
p1417
L126L
sV11000
p1418
L165L
sV01100
p1419
L36L
sV11100
p1420
L33L
sV10100
p1421
L345L
sV00000
p1422
L20L
sV00100
p1423
L281L
sV10000
p1424
L18L
sssg29
(dp1425
g31
(lp1426
(dp1427
g34
VOPENQASM 2.0;\u000ainclude "qelib1.inc";\u000aqreg main_qr[5];\u000acreg main_cr[5];\u000au3(0.073303828583762,0.0,0.0) main_qr[4];\u000au3(0.649262481741891,0.0,0.0) main_qr[3];\u000acx main_qr[3],main_qr[4];\u000au3(1.514945790731078,0.0,0.0) main_qr[3];\u000ameasure main_qr[4] -> main_cr[4];\u000au3(0.39095375244673,0.0,0.0) main_qr[2];\u000acx main_qr[3],main_qr[2];\u000ameasure main_qr[2] -> main_cr[2];\u000ameasure main_qr[3] -> main_cr[3];\u000a
p1428
sg36
g37
sg38
g39
(V{"header": {"number_of_clbits": 5, "qubit_labels": [["main_qr", 0], ["main_qr", 1], ["main_qr", 2], ["main_qr", 3], ["main_qr", 4]], "number_of_qubits": 5, "clbit_labels": [["main_cr", 5]]}, "operations": [{"name": "u3", "texparams": ["0.07330383", "0.00000000", "0.00000000"], "qubits": [4], "params": [0.073303828583762, 0.0, 0.0]}, {"name": "u3", "texparams": ["0.64926248", "0.00000000", "0.00000000"], "qubits": [3], "params": [0.649262481741891, 0.0, 0.0]}, {"name": "cx", "texparams": [], "qubits": [3, 4], "params": []}, {"name": "u3", "texparams": ["1.51494579", "0.00000000", "0.00000000"], "qubits": [3], "params": [1.514945790731078, 0.0, 0.0]}, {"name": "measure", "clbits": [4], "qubits": [4]}, {"name": "u3", "texparams": ["0.39095375", "0.00000000", "0.00000000"], "qubits": [2], "params": [0.39095375244673, 0.0, 0.0]}, {"name": "cx", "texparams": [], "qubits": [3, 2], "params": []}, {"name": "measure", "clbits": [2], "qubits": [2]}, {"name": "measure", "clbits": [3], "qubits": [3]}]}
p1429
g41
tp1430
Rp1431
sg44
(dp1432
g46
Nsg47
g48
sg49
Nsg50
Nssa(dp1433
g34
VOPENQASM 2.0;\u000ainclude "qelib1.inc";\u000aqreg err_qr[5];\u000acreg err_cr[5];\u000au3(0.073303828583762,0.0,0.0) err_qr[4];\u000au3(0.649262481741891,0.0,0.0) err_qr[3];\u000acx err_qr[3],err_qr[4];\u000au3(1.514945790731078,0.0,0.0) err_qr[3];\u000au3(1.570796326794897,0.0,0.0) err_qr[4];\u000ameasure err_qr[4] -> err_cr[4];\u000au3(0.39095375244673,0.0,0.0) err_qr[2];\u000acx err_qr[3],err_qr[2];\u000au3(1.570796326794897,0.0,0.0) err_qr[2];\u000ameasure err_qr[2] -> err_cr[2];\u000au3(-1.570796326794897,0.0,0.0) err_qr[3];\u000ameasure err_qr[3] -> err_cr[3];\u000a
p1434
sg36
g53
sg38
g39
(V{"header": {"number_of_clbits": 5, "qubit_labels": [["err_qr", 0], ["err_qr", 1], ["err_qr", 2], ["err_qr", 3], ["err_qr", 4]], "number_of_qubits": 5, "clbit_labels": [["err_cr", 5]]}, "operations": [{"name": "u3", "texparams": ["0.07330383", "0.00000000", "0.00000000"], "qubits": [4], "params": [0.073303828583762, 0.0, 0.0]}, {"name": "u3", "texparams": ["0.64926248", "0.00000000", "0.00000000"], "qubits": [3], "params": [0.649262481741891, 0.0, 0.0]}, {"name": "cx", "texparams": [], "qubits": [3, 4], "params": []}, {"name": "u3", "texparams": ["1.51494579", "0.00000000", "0.00000000"], "qubits": [3], "params": [1.514945790731078, 0.0, 0.0]}, {"name": "u3", "texparams": ["1.57079633", "0.00000000", "0.00000000"], "qubits": [4], "params": [1.570796326794897, 0.0, 0.0]}, {"name": "measure", "clbits": [4], "qubits": [4]}, {"name": "u3", "texparams": ["0.39095375", "0.00000000", "0.00000000"], "qubits": [2], "params": [0.39095375244673, 0.0, 0.0]}, {"name": "cx", "texparams": [], "qubits": [3, 2], "params": []}, {"name": "u3", "texparams": ["1.57079633", "0.00000000", "0.00000000"], "qubits": [2], "params": [1.570796326794897, 0.0, 0.0]}, {"name": "measure", "clbits": [2], "qubits": [2]}, {"name": "u3", "texparams": ["-(1.57079633)", "0.00000000", "0.00000000"], "qubits": [3], "params": [-1.570796326794897, 0.0, 0.0]}, {"name": "measure", "clbits": [3], "qubits": [3]}]}
p1435
g41
tp1436
Rp1437
sg44
g1432
sasg4
VZiNij0J07f1KYcyona9aYTEGelBFja
p1438
sg44
(dp1439
g59
g60
sg61
L1024L
sg62
L10L
sssg63
(lp1440
L3L
aL4L
aL3L
aL2L
aL4L
aL2L
asg59
g60
sg61
L1024L
sg65
L0L
sa(dp1441
g2
(lp1442
F-0.00038132431832665903
aF0.4559354915129747
aF0.45632679731445724
aF0.5436732026855428
aF0.5440645084870253
aF1.0003813243183268
asg4
g5
sg6
g7
sVmain-counts
p1443
(dp1444
g10
(dp1445
V00000
p1446
L292L
sV01100
p1447
L240L
sV10000
p1448
L264L
sV11100
p1449
L228L
sssg13
(lp1450
F3.1
aF44.3
aF39.6
aF1.0
asg15
I00
sg16
g17
sVerr-counts
p1451
(dp1452
g10
(dp1453
V11100
p1454
L3L
sV11000
p1455
L501L
sV10100
p1456
L519L
sV10000
p1457
L1L
sssg29
(dp1458
g31
(lp1459
(dp1460
g34
VOPENQASM 2.0;\u000ainclude "qelib1.inc";\u000aqreg main_qr[5];\u000acreg main_cr[5];\u000au3(1.546361717266976,0.0,0.0) main_qr[4];\u000au3(0.108210413623648,0.0,0.0) main_qr[3];\u000acx main_qr[3],main_qr[4];\u000au3(1.382300767579509,0.0,0.0) main_qr[3];\u000ameasure main_qr[4] -> main_cr[4];\u000au3(0.034906585039887,0.0,0.0) main_qr[2];\u000acx main_qr[3],main_qr[2];\u000ameasure main_qr[2] -> main_cr[2];\u000ameasure main_qr[3] -> main_cr[3];\u000a
p1461
sg36
g37
sg38
g39
(V{"header": {"number_of_clbits": 5, "qubit_labels": [["main_qr", 0], ["main_qr", 1], ["main_qr", 2], ["main_qr", 3], ["main_qr", 4]], "number_of_qubits": 5, "clbit_labels": [["main_cr", 5]]}, "operations": [{"name": "u3", "texparams": ["1.54636172", "0.00000000", "0.00000000"], "qubits": [4], "params": [1.546361717266976, 0.0, 0.0]}, {"name": "u3", "texparams": ["0.10821041", "0.00000000", "0.00000000"], "qubits": [3], "params": [0.108210413623648, 0.0, 0.0]}, {"name": "cx", "texparams": [], "qubits": [3, 4], "params": []}, {"name": "u3", "texparams": ["1.38230077", "0.00000000", "0.00000000"], "qubits": [3], "params": [1.382300767579509, 0.0, 0.0]}, {"name": "measure", "clbits": [4], "qubits": [4]}, {"name": "u3", "texparams": ["0.03490659", "0.00000000", "0.00000000"], "qubits": [2], "params": [0.034906585039887, 0.0, 0.0]}, {"name": "cx", "texparams": [], "qubits": [3, 2], "params": []}, {"name": "measure", "clbits": [2], "qubits": [2]}, {"name": "measure", "clbits": [3], "qubits": [3]}]}
p1462
g41
tp1463
Rp1464
sg44
(dp1465
g46
Nsg47
g48
sg49
Nsg50
Nssa(dp1466
g34
VOPENQASM 2.0;\u000ainclude "qelib1.inc";\u000aqreg err_qr[5];\u000acreg err_cr[5];\u000au3(1.546361717266976,0.0,0.0) err_qr[4];\u000au3(0.108210413623648,0.0,0.0) err_qr[3];\u000acx err_qr[3],err_qr[4];\u000au3(1.382300767579509,0.0,0.0) err_qr[3];\u000au3(1.570796326794897,0.0,0.0) err_qr[4];\u000ameasure err_qr[4] -> err_cr[4];\u000au3(0.034906585039887,0.0,0.0) err_qr[2];\u000acx err_qr[3],err_qr[2];\u000au3(1.570796326794897,0.0,0.0) err_qr[2];\u000ameasure err_qr[2] -> err_cr[2];\u000au3(-1.570796326794897,0.0,0.0) err_qr[3];\u000ameasure err_qr[3] -> err_cr[3];\u000a
p1467
sg36
g53
sg38
g39
(V{"header": {"number_of_clbits": 5, "qubit_labels": [["err_qr", 0], ["err_qr", 1], ["err_qr", 2], ["err_qr", 3], ["err_qr", 4]], "number_of_qubits": 5, "clbit_labels": [["err_cr", 5]]}, "operations": [{"name": "u3", "texparams": ["1.54636172", "0.00000000", "0.00000000"], "qubits": [4], "params": [1.546361717266976, 0.0, 0.0]}, {"name": "u3", "texparams": ["0.10821041", "0.00000000", "0.00000000"], "qubits": [3], "params": [0.108210413623648, 0.0, 0.0]}, {"name": "cx", "texparams": [], "qubits": [3, 4], "params": []}, {"name": "u3", "texparams": ["1.38230077", "0.00000000", "0.00000000"], "qubits": [3], "params": [1.382300767579509, 0.0, 0.0]}, {"name": "u3", "texparams": ["1.57079633", "0.00000000", "0.00000000"], "qubits": [4], "params": [1.570796326794897, 0.0, 0.0]}, {"name": "measure", "clbits": [4], "qubits": [4]}, {"name": "u3", "texparams": ["0.03490659", "0.00000000", "0.00000000"], "qubits": [2], "params": [0.034906585039887, 0.0, 0.0]}, {"name": "cx", "texparams": [], "qubits": [3, 2], "params": []}, {"name": "u3", "texparams": ["1.57079633", "0.00000000", "0.00000000"], "qubits": [2], "params": [1.570796326794897, 0.0, 0.0]}, {"name": "measure", "clbits": [2], "qubits": [2]}, {"name": "u3", "texparams": ["-(1.57079633)", "0.00000000", "0.00000000"], "qubits": [3], "params": [-1.570796326794897, 0.0, 0.0]}, {"name": "measure", "clbits": [3], "qubits": [3]}]}
p1468
g41
tp1469
Rp1470
sg44
g1465
sasg4
Vm2fILjmacw1YlFbkD56TRG8BICDTR6
p1471
sg44
(dp1472
g59
g60
sg61
L1024L
sg62
L10L
sssg63
(lp1473
L3L
aL4L
aL3L
aL2L
aL4L
aL2L
asg59
g60
sg61
L1024L
sg65
L0L
sa(dp1474
g2
(lp1475
F0.16469615993679287
aF0.1834717032259337
aF0.26343390725771465
aF0.7365660927422853
aF0.8165282967740664
aF0.8353038400632071
asg4
g5
sg6
g7
sVmain-counts
p1476
(dp1477
g10
(dp1478
V01000
p1479
L18L
sV11000
p1480
L53L
sV01100
p1481
L154L
sV11100
p1482
L448L
sV00000
p1483
L312L
sV10000
p1484
L2L
sV00100
p1485
L37L
sssg13
(lp1486
F41.5
aF20.0
aF18.6
aF18.6
asg15
I00
sg16
g17
sVerr-counts
p1487
(dp1488
g10
(dp1489
V01000
p1490
L4L
sV11000
p1491
L140L
sV01100
p1492
L136L
sV11100
p1493
L51L
sV10100
p1494
L631L
sV00000
p1495
L35L
sV00100
p1496
L13L
sV10000
p1497
L14L
sssg29
(dp1498
g31
(lp1499
(dp1500
g34
VOPENQASM 2.0;\u000ainclude "qelib1.inc";\u000aqreg main_qr[5];\u000acreg main_cr[5];\u000au3(0.698131700797732,0.0,0.0) main_qr[4];\u000au3(1.448623279155294,0.0,0.0) main_qr[3];\u000acx main_qr[3],main_qr[4];\u000au3(0.649262481741891,0.0,0.0) main_qr[3];\u000ameasure main_qr[4] -> main_cr[4];\u000au3(0.649262481741891,0.0,0.0) main_qr[2];\u000acx main_qr[3],main_qr[2];\u000ameasure main_qr[2] -> main_cr[2];\u000ameasure main_qr[3] -> main_cr[3];\u000a
p1501
sg36
g37
sg38
g39
(V{"header": {"number_of_clbits": 5, "qubit_labels": [["main_qr", 0], ["main_qr", 1], ["main_qr", 2], ["main_qr", 3], ["main_qr", 4]], "number_of_qubits": 5, "clbit_labels": [["main_cr", 5]]}, "operations": [{"name": "u3", "texparams": ["0.69813170", "0.00000000", "0.00000000"], "qubits": [4], "params": [0.698131700797732, 0.0, 0.0]}, {"name": "u3", "texparams": ["1.44862328", "0.00000000", "0.00000000"], "qubits": [3], "params": [1.448623279155294, 0.0, 0.0]}, {"name": "cx", "texparams": [], "qubits": [3, 4], "params": []}, {"name": "u3", "texparams": ["0.64926248", "0.00000000", "0.00000000"], "qubits": [3], "params": [0.649262481741891, 0.0, 0.0]}, {"name": "measure", "clbits": [4], "qubits": [4]}, {"name": "u3", "texparams": ["0.64926248", "0.00000000", "0.00000000"], "qubits": [2], "params": [0.649262481741891, 0.0, 0.0]}, {"name": "cx", "texparams": [], "qubits": [3, 2], "params": []}, {"name": "measure", "clbits": [2], "qubits": [2]}, {"name": "measure", "clbits": [3], "qubits": [3]}]}
p1502
g41
tp1503
Rp1504
sg44
(dp1505
g46
Nsg47
g48
sg49
Nsg50
Nssa(dp1506
g34
VOPENQASM 2.0;\u000ainclude "qelib1.inc";\u000aqreg err_qr[5];\u000acreg err_cr[5];\u000au3(0.698131700797732,0.0,0.0) err_qr[4];\u000au3(1.448623279155294,0.0,0.0) err_qr[3];\u000acx err_qr[3],err_qr[4];\u000au3(0.649262481741891,0.0,0.0) err_qr[3];\u000au3(1.570796326794897,0.0,0.0) err_qr[4];\u000ameasure err_qr[4] -> err_cr[4];\u000au3(0.649262481741891,0.0,0.0) err_qr[2];\u000acx err_qr[3],err_qr[2];\u000au3(1.570796326794897,0.0,0.0) err_qr[2];\u000ameasure err_qr[2] -> err_cr[2];\u000au3(-1.570796326794897,0.0,0.0) err_qr[3];\u000ameasure err_qr[3] -> err_cr[3];\u000a
p1507
sg36
g53
sg38
g39
(V{"header": {"number_of_clbits": 5, "qubit_labels": [["err_qr", 0], ["err_qr", 1], ["err_qr", 2], ["err_qr", 3], ["err_qr", 4]], "number_of_qubits": 5, "clbit_labels": [["err_cr", 5]]}, "operations": [{"name": "u3", "texparams": ["0.69813170", "0.00000000", "0.00000000"], "qubits": [4], "params": [0.698131700797732, 0.0, 0.0]}, {"name": "u3", "texparams": ["1.44862328", "0.00000000", "0.00000000"], "qubits": [3], "params": [1.448623279155294, 0.0, 0.0]}, {"name": "cx", "texparams": [], "qubits": [3, 4], "params": []}, {"name": "u3", "texparams": ["0.64926248", "0.00000000", "0.00000000"], "qubits": [3], "params": [0.649262481741891, 0.0, 0.0]}, {"name": "u3", "texparams": ["1.57079633", "0.00000000", "0.00000000"], "qubits": [4], "params": [1.570796326794897, 0.0, 0.0]}, {"name": "measure", "clbits": [4], "qubits": [4]}, {"name": "u3", "texparams": ["0.64926248", "0.00000000", "0.00000000"], "qubits": [2], "params": [0.649262481741891, 0.0, 0.0]}, {"name": "cx", "texparams": [], "qubits": [3, 2], "params": []}, {"name": "u3", "texparams": ["1.57079633", "0.00000000", "0.00000000"], "qubits": [2], "params": [1.570796326794897, 0.0, 0.0]}, {"name": "measure", "clbits": [2], "qubits": [2]}, {"name": "u3", "texparams": ["-(1.57079633)", "0.00000000", "0.00000000"], "qubits": [3], "params": [-1.570796326794897, 0.0, 0.0]}, {"name": "measure", "clbits": [3], "qubits": [3]}]}
p1508
g41
tp1509
Rp1510
sg44
g1505
sasg4
VytsAzRCeWfQaQuKRC69g9L7dIr1U8w
p1511
sg44
(dp1512
g59
g60
sg61
L1024L
sg62
L10L
sssg63
(lp1513
L3L
aL4L
aL3L
aL2L
aL4L
aL2L
asg59
g60
sg61
L1024L
sg65
L0L
sa(dp1514
g2
(lp1515
F0.2860347328207636
aF0.34855407793680837
aF0.37684079408163834
aF0.6231592059183616
aF0.6514459220631916
aF0.7139652671792365
asg4
g5
sg6
g7
sVmain-counts
p1516
(dp1517
g10
(dp1518
V00000
p1519
L623L
sV10000
p1520
L10L
sV01100
p1521
L29L
sV00100
p1522
L3L
sV11100
p1523
L359L
sssg13
(lp1524
F37.1
aF10.8
aF4.9
aF2.8
asg15
I00
sg16
g17
sVerr-counts
p1525
(dp1526
g10
(dp1527
V01000
p1528
L9L
sV11000
p1529
L278L
sV01100
p1530
L202L
sV00000
p1531
L128L
sV00100
p1532
L7L
sV10100
p1533
L400L
sssg29
(dp1534
g31
(lp1535
(dp1536
g34
VOPENQASM 2.0;\u000ainclude "qelib1.inc";\u000aqreg main_qr[5];\u000acreg main_cr[5];\u000au3(0.376991118430775,0.0,0.0) main_qr[4];\u000au3(1.295034304979793,0.0,0.0) main_qr[3];\u000acx main_qr[3],main_qr[4];\u000au3(0.171042266695444,0.0,0.0) main_qr[3];\u000ameasure main_qr[4] -> main_cr[4];\u000au3(0.097738438111682,0.0,0.0) main_qr[2];\u000acx main_qr[3],main_qr[2];\u000ameasure main_qr[2] -> main_cr[2];\u000ameasure main_qr[3] -> main_cr[3];\u000a
p1537
sg36
g37
sg38
g39
(V{"header": {"number_of_clbits": 5, "qubit_labels": [["main_qr", 0], ["main_qr", 1], ["main_qr", 2], ["main_qr", 3], ["main_qr", 4]], "number_of_qubits": 5, "clbit_labels": [["main_cr", 5]]}, "operations": [{"name": "u3", "texparams": ["0.37699112", "0.00000000", "0.00000000"], "qubits": [4], "params": [0.376991118430775, 0.0, 0.0]}, {"name": "u3", "texparams": ["1.29503430", "0.00000000", "0.00000000"], "qubits": [3], "params": [1.295034304979793, 0.0, 0.0]}, {"name": "cx", "texparams": [], "qubits": [3, 4], "params": []}, {"name": "u3", "texparams": ["0.17104227", "0.00000000", "0.00000000"], "qubits": [3], "params": [0.171042266695444, 0.0, 0.0]}, {"name": "measure", "clbits": [4], "qubits": [4]}, {"name": "u3", "texparams": ["0.09773844", "0.00000000", "0.00000000"], "qubits": [2], "params": [0.097738438111682, 0.0, 0.0]}, {"name": "cx", "texparams": [], "qubits": [3, 2], "params": []}, {"name": "measure", "clbits": [2], "qubits": [2]}, {"name": "measure", "clbits": [3], "qubits": [3]}]}
p1538
g41
tp1539
Rp1540
sg44
(dp1541
g46
Nsg47
g48
sg49
Nsg50
Nssa(dp1542
g34
VOPENQASM 2.0;\u000ainclude "qelib1.inc";\u000aqreg err_qr[5];\u000acreg err_cr[5];\u000au3(0.376991118430775,0.0,0.0) err_qr[4];\u000au3(1.295034304979793,0.0,0.0) err_qr[3];\u000acx err_qr[3],err_qr[4];\u000au3(0.171042266695444,0.0,0.0) err_qr[3];\u000au3(1.570796326794897,0.0,0.0) err_qr[4];\u000ameasure err_qr[4] -> err_cr[4];\u000au3(0.097738438111682,0.0,0.0) err_qr[2];\u000acx err_qr[3],err_qr[2];\u000au3(1.570796326794897,0.0,0.0) err_qr[2];\u000ameasure err_qr[2] -> err_cr[2];\u000au3(-1.570796326794897,0.0,0.0) err_qr[3];\u000ameasure err_qr[3] -> err_cr[3];\u000a
p1543
sg36
g53
sg38
g39
(V{"header": {"number_of_clbits": 5, "qubit_labels": [["err_qr", 0], ["err_qr", 1], ["err_qr", 2], ["err_qr", 3], ["err_qr", 4]], "number_of_qubits": 5, "clbit_labels": [["err_cr", 5]]}, "operations": [{"name": "u3", "texparams": ["0.37699112", "0.00000000", "0.00000000"], "qubits": [4], "params": [0.376991118430775, 0.0, 0.0]}, {"name": "u3", "texparams": ["1.29503430", "0.00000000", "0.00000000"], "qubits": [3], "params": [1.295034304979793, 0.0, 0.0]}, {"name": "cx", "texparams": [], "qubits": [3, 4], "params": []}, {"name": "u3", "texparams": ["0.17104227", "0.00000000", "0.00000000"], "qubits": [3], "params": [0.171042266695444, 0.0, 0.0]}, {"name": "u3", "texparams": ["1.57079633", "0.00000000", "0.00000000"], "qubits": [4], "params": [1.570796326794897, 0.0, 0.0]}, {"name": "measure", "clbits": [4], "qubits": [4]}, {"name": "u3", "texparams": ["0.09773844", "0.00000000", "0.00000000"], "qubits": [2], "params": [0.097738438111682, 0.0, 0.0]}, {"name": "cx", "texparams": [], "qubits": [3, 2], "params": []}, {"name": "u3", "texparams": ["1.57079633", "0.00000000", "0.00000000"], "qubits": [2], "params": [1.570796326794897, 0.0, 0.0]}, {"name": "measure", "clbits": [2], "qubits": [2]}, {"name": "u3", "texparams": ["-(1.57079633)", "0.00000000", "0.00000000"], "qubits": [3], "params": [-1.570796326794897, 0.0, 0.0]}, {"name": "measure", "clbits": [3], "qubits": [3]}]}
p1544
g41
tp1545
Rp1546
sg44
g1541
sasg4
V69BgzqSu8wT9B6mNM6eGFk6YdHEEkY
p1547
sg44
(dp1548
g59
g60
sg61
L1024L
sg62
L10L
sssg63
(lp1549
L3L
aL4L
aL3L
aL2L
aL4L
aL2L
asg59
g60
sg61
L1024L
sg65
L0L
sa(dp1550
g2
(lp1551
F0.33216472872577885
aF0.3372301435029138
aF0.37753968550796435
aF0.6224603144920356
aF0.6627698564970862
aF0.6678352712742212
asg4
g5
sg6
g7
sVmain-counts
p1552
(dp1553
g10
(dp1554
V01000
p1555
L4L
sV11000
p1556
L6L
sV01100
p1557
L229L
sV11100
p1558
L398L
sV00000
p1559
L290L
sV00100
p1560
L4L
sV10000
p1561
L93L
sssg13
(lp1562
F43.0
aF8.5
aF34.1
aF7.1
asg15
I00
sg16
g17
sVerr-counts
p1563
(dp1564
g10
(dp1565
V01000
p1566
L43L
sV11000
p1567
L194L
sV01100
p1568
L155L
sV11100
p1569
L110L
sV10100
p1570
L302L
sV00000
p1571
L79L
sV00100
p1572
L69L
sV10000
p1573
L72L
sssg29
(dp1574
g31
(lp1575
(dp1576
g34
VOPENQASM 2.0;\u000ainclude "qelib1.inc";\u000aqreg main_qr[5];\u000acreg main_cr[5];\u000au3(0.296705972839036,0.0,0.0) main_qr[4];\u000au3(1.500983156715123,0.0,0.0) main_qr[3];\u000acx main_qr[3],main_qr[4];\u000au3(1.190314549860133,0.0,0.0) main_qr[3];\u000ameasure main_qr[4] -> main_cr[4];\u000au3(0.247836753783195,0.0,0.0) main_qr[2];\u000acx main_qr[3],main_qr[2];\u000ameasure main_qr[2] -> main_cr[2];\u000ameasure main_qr[3] -> main_cr[3];\u000a
p1577
sg36
g37
sg38
g39
(V{"header": {"number_of_clbits": 5, "qubit_labels": [["main_qr", 0], ["main_qr", 1], ["main_qr", 2], ["main_qr", 3], ["main_qr", 4]], "number_of_qubits": 5, "clbit_labels": [["main_cr", 5]]}, "operations": [{"name": "u3", "texparams": ["0.29670597", "0.00000000", "0.00000000"], "qubits": [4], "params": [0.296705972839036, 0.0, 0.0]}, {"name": "u3", "texparams": ["1.50098316", "0.00000000", "0.00000000"], "qubits": [3], "params": [1.500983156715123, 0.0, 0.0]}, {"name": "cx", "texparams": [], "qubits": [3, 4], "params": []}, {"name": "u3", "texparams": ["1.19031455", "0.00000000", "0.00000000"], "qubits": [3], "params": [1.190314549860133, 0.0, 0.0]}, {"name": "measure", "clbits": [4], "qubits": [4]}, {"name": "u3", "texparams": ["0.24783675", "0.00000000", "0.00000000"], "qubits": [2], "params": [0.247836753783195, 0.0, 0.0]}, {"name": "cx", "texparams": [], "qubits": [3, 2], "params": []}, {"name": "measure", "clbits": [2], "qubits": [2]}, {"name": "measure", "clbits": [3], "qubits": [3]}]}
p1578
g41
tp1579
Rp1580
sg44
(dp1581
g46
Nsg47
g48
sg49
Nsg50
Nssa(dp1582
g34
VOPENQASM 2.0;\u000ainclude "qelib1.inc";\u000aqreg err_qr[5];\u000acreg err_cr[5];\u000au3(0.296705972839036,0.0,0.0) err_qr[4];\u000au3(1.500983156715123,0.0,0.0) err_qr[3];\u000acx err_qr[3],err_qr[4];\u000au3(1.190314549860133,0.0,0.0) err_qr[3];\u000au3(1.570796326794897,0.0,0.0) err_qr[4];\u000ameasure err_qr[4] -> err_cr[4];\u000au3(0.247836753783195,0.0,0.0) err_qr[2];\u000acx err_qr[3],err_qr[2];\u000au3(1.570796326794897,0.0,0.0) err_qr[2];\u000ameasure err_qr[2] -> err_cr[2];\u000au3(-1.570796326794897,0.0,0.0) err_qr[3];\u000ameasure err_qr[3] -> err_cr[3];\u000a
p1583
sg36
g53
sg38
g39
(V{"header": {"number_of_clbits": 5, "qubit_labels": [["err_qr", 0], ["err_qr", 1], ["err_qr", 2], ["err_qr", 3], ["err_qr", 4]], "number_of_qubits": 5, "clbit_labels": [["err_cr", 5]]}, "operations": [{"name": "u3", "texparams": ["0.29670597", "0.00000000", "0.00000000"], "qubits": [4], "params": [0.296705972839036, 0.0, 0.0]}, {"name": "u3", "texparams": ["1.50098316", "0.00000000", "0.00000000"], "qubits": [3], "params": [1.500983156715123, 0.0, 0.0]}, {"name": "cx", "texparams": [], "qubits": [3, 4], "params": []}, {"name": "u3", "texparams": ["1.19031455", "0.00000000", "0.00000000"], "qubits": [3], "params": [1.190314549860133, 0.0, 0.0]}, {"name": "u3", "texparams": ["1.57079633", "0.00000000", "0.00000000"], "qubits": [4], "params": [1.570796326794897, 0.0, 0.0]}, {"name": "measure", "clbits": [4], "qubits": [4]}, {"name": "u3", "texparams": ["0.24783675", "0.00000000", "0.00000000"], "qubits": [2], "params": [0.247836753783195, 0.0, 0.0]}, {"name": "cx", "texparams": [], "qubits": [3, 2], "params": []}, {"name": "u3", "texparams": ["1.57079633", "0.00000000", "0.00000000"], "qubits": [2], "params": [1.570796326794897, 0.0, 0.0]}, {"name": "measure", "clbits": [2], "qubits": [2]}, {"name": "u3", "texparams": ["-(1.57079633)", "0.00000000", "0.00000000"], "qubits": [3], "params": [-1.570796326794897, 0.0, 0.0]}, {"name": "measure", "clbits": [3], "qubits": [3]}]}
p1584
g41
tp1585
Rp1586
sg44
g1581
sasg4
VuxJbHEWtXlYJzJVQhB2D6P4N9KUfBg
p1587
sg44
(dp1588
g59
g60
sg61
L1024L
sg62
L10L
sssg63
(lp1589
L3L
aL4L
aL3L
aL2L
aL4L
aL2L
asg59
g60
sg61
L1024L
sg65
L0L
sa(dp1590
g2
(lp1591
F0.14647897966824341
aF0.43846881249209624
aF0.48522192778279144
aF0.5147780722172085
aF0.5615311875079038
aF0.8535210203317566
asg4
g5
sg6
g7
sVmain-counts
p1592
(dp1593
g10
(dp1594
V01000
p1595
L36L
sV11000
p1596
L27L
sV01100
p1597
L239L
sV11100
p1598
L208L
sV10100
p1599
L28L
sV00000
p1600
L265L
sV00100
p1601
L35L
sV10000
p1602
L186L
sssg13
(lp1603
F42.3
aF0.2
aF43.9
aF21.8
asg15
I00
sg16
g17
sVerr-counts
p1604
(dp1605
g10
(dp1606
V01000
p1607
L40L
sV11000
p1608
L42L
sV01100
p1609
L207L
sV11100
p1610
L208L
sV10100
p1611
L227L
sV00000
p1612
L32L
sV00100
p1613
L232L
sV10000
p1614
L36L
sssg29
(dp1615
g31
(lp1616
(dp1617
g34
VOPENQASM 2.0;\u000ainclude "qelib1.inc";\u000aqreg main_qr[5];\u000acreg main_cr[5];\u000au3(0.006981317007977,0.0,0.0) main_qr[4];\u000au3(1.476548547187203,0.0,0.0) main_qr[3];\u000acx main_qr[3],main_qr[4];\u000au3(1.532399083251021,0.0,0.0) main_qr[3];\u000ameasure main_qr[4] -> main_cr[4];\u000au3(0.760963553869528,0.0,0.0) main_qr[2];\u000acx main_qr[3],main_qr[2];\u000ameasure main_qr[2] -> main_cr[2];\u000ameasure main_qr[3] -> main_cr[3];\u000a
p1618
sg36
g37
sg38
g39
(V{"header": {"number_of_clbits": 5, "qubit_labels": [["main_qr", 0], ["main_qr", 1], ["main_qr", 2], ["main_qr", 3], ["main_qr", 4]], "number_of_qubits": 5, "clbit_labels": [["main_cr", 5]]}, "operations": [{"name": "u3", "texparams": ["0.00698132", "0.00000000", "0.00000000"], "qubits": [4], "params": [0.006981317007977, 0.0, 0.0]}, {"name": "u3", "texparams": ["1.47654855", "0.00000000", "0.00000000"], "qubits": [3], "params": [1.476548547187203, 0.0, 0.0]}, {"name": "cx", "texparams": [], "qubits": [3, 4], "params": []}, {"name": "u3", "texparams": ["1.53239908", "0.00000000", "0.00000000"], "qubits": [3], "params": [1.532399083251021, 0.0, 0.0]}, {"name": "measure", "clbits": [4], "qubits": [4]}, {"name": "u3", "texparams": ["0.76096355", "0.00000000", "0.00000000"], "qubits": [2], "params": [0.760963553869528, 0.0, 0.0]}, {"name": "cx", "texparams": [], "qubits": [3, 2], "params": []}, {"name": "measure", "clbits": [2], "qubits": [2]}, {"name": "measure", "clbits": [3], "qubits": [3]}]}
p1619
g41
tp1620
Rp1621
sg44
(dp1622
g46
Nsg47
g48
sg49
Nsg50
Nssa(dp1623
g34
VOPENQASM 2.0;\u000ainclude "qelib1.inc";\u000aqreg err_qr[5];\u000acreg err_cr[5];\u000au3(0.006981317007977,0.0,0.0) err_qr[4];\u000au3(1.476548547187203,0.0,0.0) err_qr[3];\u000acx err_qr[3],err_qr[4];\u000au3(1.532399083251021,0.0,0.0) err_qr[3];\u000au3(1.570796326794897,0.0,0.0) err_qr[4];\u000ameasure err_qr[4] -> err_cr[4];\u000au3(0.760963553869528,0.0,0.0) err_qr[2];\u000acx err_qr[3],err_qr[2];\u000au3(1.570796326794897,0.0,0.0) err_qr[2];\u000ameasure err_qr[2] -> err_cr[2];\u000au3(-1.570796326794897,0.0,0.0) err_qr[3];\u000ameasure err_qr[3] -> err_cr[3];\u000a
p1624
sg36
g53
sg38
g39
(V{"header": {"number_of_clbits": 5, "qubit_labels": [["err_qr", 0], ["err_qr", 1], ["err_qr", 2], ["err_qr", 3], ["err_qr", 4]], "number_of_qubits": 5, "clbit_labels": [["err_cr", 5]]}, "operations": [{"name": "u3", "texparams": ["0.00698132", "0.00000000", "0.00000000"], "qubits": [4], "params": [0.006981317007977, 0.0, 0.0]}, {"name": "u3", "texparams": ["1.47654855", "0.00000000", "0.00000000"], "qubits": [3], "params": [1.476548547187203, 0.0, 0.0]}, {"name": "cx", "texparams": [], "qubits": [3, 4], "params": []}, {"name": "u3", "texparams": ["1.53239908", "0.00000000", "0.00000000"], "qubits": [3], "params": [1.532399083251021, 0.0, 0.0]}, {"name": "u3", "texparams": ["1.57079633", "0.00000000", "0.00000000"], "qubits": [4], "params": [1.570796326794897, 0.0, 0.0]}, {"name": "measure", "clbits": [4], "qubits": [4]}, {"name": "u3", "texparams": ["0.76096355", "0.00000000", "0.00000000"], "qubits": [2], "params": [0.760963553869528, 0.0, 0.0]}, {"name": "cx", "texparams": [], "qubits": [3, 2], "params": []}, {"name": "u3", "texparams": ["1.57079633", "0.00000000", "0.00000000"], "qubits": [2], "params": [1.570796326794897, 0.0, 0.0]}, {"name": "measure", "clbits": [2], "qubits": [2]}, {"name": "u3", "texparams": ["-(1.57079633)", "0.00000000", "0.00000000"], "qubits": [3], "params": [-1.570796326794897, 0.0, 0.0]}, {"name": "measure", "clbits": [3], "qubits": [3]}]}
p1625
g41
tp1626
Rp1627
sg44
g1622
sasg4
VSkKH0coLXDodXTPVGRyT3IrHBIWJZ5
p1628
sg44
(dp1629
g59
g60
sg61
L1024L
sg62
L10L
sssg63
(lp1630
L3L
aL4L
aL3L
aL2L
aL4L
aL2L
asg59
g60
sg61
L1024L
sg65
L0L
sa(dp1631
g2
(lp1632
F0.054956350002797916
aF0.480763949605867
aF0.48591581533021877
aF0.5140841846697812
aF0.519236050394133
aF0.9450436499972019
asg4
g5
sg6
g7
sVmain-counts
p1633
(dp1634
g10
(dp1635
V00000
p1636
L414L
sV01100
p1637
L209L
sV11100
p1638
L311L
sV10000
p1639
L90L
sssg13
(lp1640
F32.9
aF31.1
aF13.6
aF0.0
asg15
I00
sg16
g17
sVerr-counts
p1641
(dp1642
g10
(dp1643
V01000
p1644
L6L
sV11000
p1645
L462L
sV01100
p1646
L32L
sV00000
p1647
L26L
sV00100
p1648
L6L
sV10100
p1649
L492L
sssg29
(dp1650
g31
(lp1651
(dp1652
g34
VOPENQASM 2.0;\u000ainclude "qelib1.inc";\u000aqreg main_qr[5];\u000acreg main_cr[5];\u000au3(1.085594794740473,0.0,0.0) main_qr[4];\u000au3(1.148426647812269,0.0,0.0) main_qr[3];\u000acx main_qr[3],main_qr[4];\u000au3(0.474729556542458,0.0,0.0) main_qr[3];\u000ameasure main_qr[4] -> main_cr[4];\u000au3(0.0,0.0,0.0) main_qr[2];\u000acx main_qr[3],main_qr[2];\u000ameasure main_qr[2] -> main_cr[2];\u000ameasure main_qr[3] -> main_cr[3];\u000a
p1653
sg36
g37
sg38
g39
(V{"header": {"number_of_clbits": 5, "qubit_labels": [["main_qr", 0], ["main_qr", 1], ["main_qr", 2], ["main_qr", 3], ["main_qr", 4]], "number_of_qubits": 5, "clbit_labels": [["main_cr", 5]]}, "operations": [{"name": "u3", "texparams": ["1.08559479", "0.00000000", "0.00000000"], "qubits": [4], "params": [1.085594794740473, 0.0, 0.0]}, {"name": "u3", "texparams": ["1.14842665", "0.00000000", "0.00000000"], "qubits": [3], "params": [1.148426647812269, 0.0, 0.0]}, {"name": "cx", "texparams": [], "qubits": [3, 4], "params": []}, {"name": "u3", "texparams": ["0.47472956", "0.00000000", "0.00000000"], "qubits": [3], "params": [0.474729556542458, 0.0, 0.0]}, {"name": "measure", "clbits": [4], "qubits": [4]}, {"name": "u3", "texparams": ["0.00000000", "0.00000000", "0.00000000"], "qubits": [2], "params": [0.0, 0.0, 0.0]}, {"name": "cx", "texparams": [], "qubits": [3, 2], "params": []}, {"name": "measure", "clbits": [2], "qubits": [2]}, {"name": "measure", "clbits": [3], "qubits": [3]}]}
p1654
g41
tp1655
Rp1656
sg44
(dp1657
g46
Nsg47
g48
sg49
Nsg50
Nssa(dp1658
g34
VOPENQASM 2.0;\u000ainclude "qelib1.inc";\u000aqreg err_qr[5];\u000acreg err_cr[5];\u000au3(1.085594794740473,0.0,0.0) err_qr[4];\u000au3(1.148426647812269,0.0,0.0) err_qr[3];\u000acx err_qr[3],err_qr[4];\u000au3(0.474729556542458,0.0,0.0) err_qr[3];\u000au3(1.570796326794897,0.0,0.0) err_qr[4];\u000ameasure err_qr[4] -> err_cr[4];\u000au3(0.0,0.0,0.0) err_qr[2];\u000acx err_qr[3],err_qr[2];\u000au3(1.570796326794897,0.0,0.0) err_qr[2];\u000ameasure err_qr[2] -> err_cr[2];\u000au3(-1.570796326794897,0.0,0.0) err_qr[3];\u000ameasure err_qr[3] -> err_cr[3];\u000a
p1659
sg36
g53
sg38
g39
(V{"header": {"number_of_clbits": 5, "qubit_labels": [["err_qr", 0], ["err_qr", 1], ["err_qr", 2], ["err_qr", 3], ["err_qr", 4]], "number_of_qubits": 5, "clbit_labels": [["err_cr", 5]]}, "operations": [{"name": "u3", "texparams": ["1.08559479", "0.00000000", "0.00000000"], "qubits": [4], "params": [1.085594794740473, 0.0, 0.0]}, {"name": "u3", "texparams": ["1.14842665", "0.00000000", "0.00000000"], "qubits": [3], "params": [1.148426647812269, 0.0, 0.0]}, {"name": "cx", "texparams": [], "qubits": [3, 4], "params": []}, {"name": "u3", "texparams": ["0.47472956", "0.00000000", "0.00000000"], "qubits": [3], "params": [0.474729556542458, 0.0, 0.0]}, {"name": "u3", "texparams": ["1.57079633", "0.00000000", "0.00000000"], "qubits": [4], "params": [1.570796326794897, 0.0, 0.0]}, {"name": "measure", "clbits": [4], "qubits": [4]}, {"name": "u3", "texparams": ["0.00000000", "0.00000000", "0.00000000"], "qubits": [2], "params": [0.0, 0.0, 0.0]}, {"name": "cx", "texparams": [], "qubits": [3, 2], "params": []}, {"name": "u3", "texparams": ["1.57079633", "0.00000000", "0.00000000"], "qubits": [2], "params": [1.570796326794897, 0.0, 0.0]}, {"name": "measure", "clbits": [2], "qubits": [2]}, {"name": "u3", "texparams": ["-(1.57079633)", "0.00000000", "0.00000000"], "qubits": [3], "params": [-1.570796326794897, 0.0, 0.0]}, {"name": "measure", "clbits": [3], "qubits": [3]}]}
p1660
g41
tp1661
Rp1662
sg44
g1657
sasg4
VJAUsrCHnzUCl9klB1FzAx6J7IJ60V3
p1663
sg44
(dp1664
g59
g60
sg61
L1024L
sg62
L10L
sssg63
(lp1665
L3L
aL4L
aL3L
aL2L
aL4L
aL2L
asg59
g60
sg61
L1024L
sg65
L0L
sa(dp1666
g2
(lp1667
F0.32630085104369533
aF0.46418531089669485
aF0.4699161683579114
aF0.5300838316420886
aF0.5358146891033052
aF0.6736991489563047
asg4
g5
sg6
g7
sVmain-counts
p1668
(dp1669
g10
(dp1670
V00000
p1671
L517L
sV01100
p1672
L84L
sV11100
p1673
L421L
sV10000
p1674
L2L
sssg13
(lp1675
F40.5
aF8.1
aF14.9
aF0.4
asg15
I00
sg16
g17
sVerr-counts
p1676
(dp1677
g10
(dp1678
V01000
p1679
L18L
sV11000
p1680
L359L
sV01100
p1681
L155L
sV11100
p1682
L10L
sV10100
p1683
L289L
sV00000
p1684
L163L
sV00100
p1685
L22L
sV10000
p1686
L8L
sssg29
(dp1687
g31
(lp1688
(dp1689
g34
VOPENQASM 2.0;\u000ainclude "qelib1.inc";\u000aqreg main_qr[5];\u000acreg main_cr[5];\u000au3(0.282743338823081,0.0,0.0) main_qr[4];\u000au3(1.413716694115407,0.0,0.0) main_qr[3];\u000acx main_qr[3],main_qr[4];\u000au3(0.52010811709431,0.0,0.0) main_qr[3];\u000ameasure main_qr[4] -> main_cr[4];\u000au3(0.013962634015955,0.0,0.0) main_qr[2];\u000acx main_qr[3],main_qr[2];\u000ameasure main_qr[2] -> main_cr[2];\u000ameasure main_qr[3] -> main_cr[3];\u000a
p1690
sg36
g37
sg38
g39
(V{"header": {"number_of_clbits": 5, "qubit_labels": [["main_qr", 0], ["main_qr", 1], ["main_qr", 2], ["main_qr", 3], ["main_qr", 4]], "number_of_qubits": 5, "clbit_labels": [["main_cr", 5]]}, "operations": [{"name": "u3", "texparams": ["0.28274334", "0.00000000", "0.00000000"], "qubits": [4], "params": [0.282743338823081, 0.0, 0.0]}, {"name": "u3", "texparams": ["1.41371669", "0.00000000", "0.00000000"], "qubits": [3], "params": [1.413716694115407, 0.0, 0.0]}, {"name": "cx", "texparams": [], "qubits": [3, 4], "params": []}, {"name": "u3", "texparams": ["0.52010812", "0.00000000", "0.00000000"], "qubits": [3], "params": [0.52010811709431, 0.0, 0.0]}, {"name": "measure", "clbits": [4], "qubits": [4]}, {"name": "u3", "texparams": ["0.01396263", "0.00000000", "0.00000000"], "qubits": [2], "params": [0.013962634015955, 0.0, 0.0]}, {"name": "cx", "texparams": [], "qubits": [3, 2], "params": []}, {"name": "measure", "clbits": [2], "qubits": [2]}, {"name": "measure", "clbits": [3], "qubits": [3]}]}
p1691
g41
tp1692
Rp1693
sg44
(dp1694
g46
Nsg47
g48
sg49
Nsg50
Nssa(dp1695
g34
VOPENQASM 2.0;\u000ainclude "qelib1.inc";\u000aqreg err_qr[5];\u000acreg err_cr[5];\u000au3(0.282743338823081,0.0,0.0) err_qr[4];\u000au3(1.413716694115407,0.0,0.0) err_qr[3];\u000acx err_qr[3],err_qr[4];\u000au3(0.52010811709431,0.0,0.0) err_qr[3];\u000au3(1.570796326794897,0.0,0.0) err_qr[4];\u000ameasure err_qr[4] -> err_cr[4];\u000au3(0.013962634015955,0.0,0.0) err_qr[2];\u000acx err_qr[3],err_qr[2];\u000au3(1.570796326794897,0.0,0.0) err_qr[2];\u000ameasure err_qr[2] -> err_cr[2];\u000au3(-1.570796326794897,0.0,0.0) err_qr[3];\u000ameasure err_qr[3] -> err_cr[3];\u000a
p1696
sg36
g53
sg38
g39
(V{"header": {"number_of_clbits": 5, "qubit_labels": [["err_qr", 0], ["err_qr", 1], ["err_qr", 2], ["err_qr", 3], ["err_qr", 4]], "number_of_qubits": 5, "clbit_labels": [["err_cr", 5]]}, "operations": [{"name": "u3", "texparams": ["0.28274334", "0.00000000", "0.00000000"], "qubits": [4], "params": [0.282743338823081, 0.0, 0.0]}, {"name": "u3", "texparams": ["1.41371669", "0.00000000", "0.00000000"], "qubits": [3], "params": [1.413716694115407, 0.0, 0.0]}, {"name": "cx", "texparams": [], "qubits": [3, 4], "params": []}, {"name": "u3", "texparams": ["0.52010812", "0.00000000", "0.00000000"], "qubits": [3], "params": [0.52010811709431, 0.0, 0.0]}, {"name": "u3", "texparams": ["1.57079633", "0.00000000", "0.00000000"], "qubits": [4], "params": [1.570796326794897, 0.0, 0.0]}, {"name": "measure", "clbits": [4], "qubits": [4]}, {"name": "u3", "texparams": ["0.01396263", "0.00000000", "0.00000000"], "qubits": [2], "params": [0.013962634015955, 0.0, 0.0]}, {"name": "cx", "texparams": [], "qubits": [3, 2], "params": []}, {"name": "u3", "texparams": ["1.57079633", "0.00000000", "0.00000000"], "qubits": [2], "params": [1.570796326794897, 0.0, 0.0]}, {"name": "measure", "clbits": [2], "qubits": [2]}, {"name": "u3", "texparams": ["-(1.57079633)", "0.00000000", "0.00000000"], "qubits": [3], "params": [-1.570796326794897, 0.0, 0.0]}, {"name": "measure", "clbits": [3], "qubits": [3]}]}
p1697
g41
tp1698
Rp1699
sg44
g1694
sasg4
VcAAEWrwTRSseRqbvKJsg4vCu2m8sNl
p1700
sg44
(dp1701
g59
g60
sg61
L1024L
sg62
L10L
sssg63
(lp1702
L3L
aL4L
aL3L
aL2L
aL4L
aL2L
asg59
g60
sg61
L1024L
sg65
L0L
sa(dp1703
g2
(lp1704
F0.11676795749718566
aF0.26511692439832635
aF0.2659100040140478
aF0.7340899959859521
aF0.7348830756016737
aF0.8832320425028144
asg4
g5
sg6
g7
sVmain-counts
p1705
(dp1706
g10
(dp1707
V00000
p1708
L274L
sV10000
p1709
L1L
sV01100
p1710
L313L
sV00100
p1711
L1L
sV11100
p1712
L435L
sssg13
(lp1713
F38.2
aF24.3
aF27.5
aF2.2
asg15
I00
sg16
g17
sVerr-counts
p1714
(dp1715
g10
(dp1716
V01000
p1717
L15L
sV11000
p1718
L349L
sV01100
p1719
L51L
sV11100
p1720
L55L
sV10100
p1721
L425L
sV00000
p1722
L39L
sV00100
p1723
L22L
sV10000
p1724
L68L
sssg29
(dp1725
g31
(lp1726
(dp1727
g34
VOPENQASM 2.0;\u000ainclude "qelib1.inc";\u000aqreg main_qr[5];\u000acreg main_cr[5];\u000au3(0.848230016469244,0.0,0.0) main_qr[4];\u000au3(1.333431548523668,0.0,0.0) main_qr[3];\u000acx main_qr[3],main_qr[4];\u000au3(0.959931088596881,0.0,0.0) main_qr[3];\u000ameasure main_qr[4] -> main_cr[4];\u000au3(0.076794487087751,0.0,0.0) main_qr[2];\u000acx main_qr[3],main_qr[2];\u000ameasure main_qr[2] -> main_cr[2];\u000ameasure main_qr[3] -> main_cr[3];\u000a
p1728
sg36
g37
sg38
g39
(V{"header": {"number_of_clbits": 5, "qubit_labels": [["main_qr", 0], ["main_qr", 1], ["main_qr", 2], ["main_qr", 3], ["main_qr", 4]], "number_of_qubits": 5, "clbit_labels": [["main_cr", 5]]}, "operations": [{"name": "u3", "texparams": ["0.84823002", "0.00000000", "0.00000000"], "qubits": [4], "params": [0.848230016469244, 0.0, 0.0]}, {"name": "u3", "texparams": ["1.33343155", "0.00000000", "0.00000000"], "qubits": [3], "params": [1.333431548523668, 0.0, 0.0]}, {"name": "cx", "texparams": [], "qubits": [3, 4], "params": []}, {"name": "u3", "texparams": ["0.95993109", "0.00000000", "0.00000000"], "qubits": [3], "params": [0.959931088596881, 0.0, 0.0]}, {"name": "measure", "clbits": [4], "qubits": [4]}, {"name": "u3", "texparams": ["0.07679449", "0.00000000", "0.00000000"], "qubits": [2], "params": [0.076794487087751, 0.0, 0.0]}, {"name": "cx", "texparams": [], "qubits": [3, 2], "params": []}, {"name": "measure", "clbits": [2], "qubits": [2]}, {"name": "measure", "clbits": [3], "qubits": [3]}]}
p1729
g41
tp1730
Rp1731
sg44
(dp1732
g46
Nsg47
g48
sg49
Nsg50
Nssa(dp1733
g34
VOPENQASM 2.0;\u000ainclude "qelib1.inc";\u000aqreg err_qr[5];\u000acreg err_cr[5];\u000au3(0.848230016469244,0.0,0.0) err_qr[4];\u000au3(1.333431548523668,0.0,0.0) err_qr[3];\u000acx err_qr[3],err_qr[4];\u000au3(0.959931088596881,0.0,0.0) err_qr[3];\u000au3(1.570796326794897,0.0,0.0) err_qr[4];\u000ameasure err_qr[4] -> err_cr[4];\u000au3(0.076794487087751,0.0,0.0) err_qr[2];\u000acx err_qr[3],err_qr[2];\u000au3(1.570796326794897,0.0,0.0) err_qr[2];\u000ameasure err_qr[2] -> err_cr[2];\u000au3(-1.570796326794897,0.0,0.0) err_qr[3];\u000ameasure err_qr[3] -> err_cr[3];\u000a
p1734
sg36
g53
sg38
g39
(V{"header": {"number_of_clbits": 5, "qubit_labels": [["err_qr", 0], ["err_qr", 1], ["err_qr", 2], ["err_qr", 3], ["err_qr", 4]], "number_of_qubits": 5, "clbit_labels": [["err_cr", 5]]}, "operations": [{"name": "u3", "texparams": ["0.84823002", "0.00000000", "0.00000000"], "qubits": [4], "params": [0.848230016469244, 0.0, 0.0]}, {"name": "u3", "texparams": ["1.33343155", "0.00000000", "0.00000000"], "qubits": [3], "params": [1.333431548523668, 0.0, 0.0]}, {"name": "cx", "texparams": [], "qubits": [3, 4], "params": []}, {"name": "u3", "texparams": ["0.95993109", "0.00000000", "0.00000000"], "qubits": [3], "params": [0.959931088596881, 0.0, 0.0]}, {"name": "u3", "texparams": ["1.57079633", "0.00000000", "0.00000000"], "qubits": [4], "params": [1.570796326794897, 0.0, 0.0]}, {"name": "measure", "clbits": [4], "qubits": [4]}, {"name": "u3", "texparams": ["0.07679449", "0.00000000", "0.00000000"], "qubits": [2], "params": [0.076794487087751, 0.0, 0.0]}, {"name": "cx", "texparams": [], "qubits": [3, 2], "params": []}, {"name": "u3", "texparams": ["1.57079633", "0.00000000", "0.00000000"], "qubits": [2], "params": [1.570796326794897, 0.0, 0.0]}, {"name": "measure", "clbits": [2], "qubits": [2]}, {"name": "u3", "texparams": ["-(1.57079633)", "0.00000000", "0.00000000"], "qubits": [3], "params": [-1.570796326794897, 0.0, 0.0]}, {"name": "measure", "clbits": [3], "qubits": [3]}]}
p1735
g41
tp1736
Rp1737
sg44
g1732
sasg4
VlCu03onn25h7FQUiGn0j8A85NvCdbm
p1738
sg44
(dp1739
g59
g60
sg61
L1024L
sg62
L10L
sssg63
(lp1740
L3L
aL4L
aL3L
aL2L
aL4L
aL2L
asg59
g60
sg61
L1024L
sg65
L0L
sa.